
aeternitas_char_description.o:     file format pe-x86-64


Disassembly of section .text:

0000000000000000 <get_skin_type>:
       0:	56                   	push   %rsi
       1:	53                   	push   %rbx
       2:	48 83 ec 28          	sub    $0x28,%rsp
       6:	48 8d 15 3b 00 00 00 	lea    0x3b(%rip),%rdx        # 48 <get_skin_type+0x48>
       d:	48 8d 35 21 00 00 00 	lea    0x21(%rip),%rsi        # 35 <get_skin_type+0x35>
      14:	48 89 cb             	mov    %rcx,%rbx
      17:	e8 00 00 00 00       	call   1c <get_skin_type+0x1c>
      1c:	85 c0                	test   %eax,%eax
      1e:	0f 84 50 02 00 00    	je     274 <get_skin_type+0x274>
      24:	48 8d 15 43 00 00 00 	lea    0x43(%rip),%rdx        # 6e <get_skin_type+0x6e>
      2b:	48 89 d9             	mov    %rbx,%rcx
      2e:	e8 00 00 00 00       	call   33 <get_skin_type+0x33>
      33:	85 c0                	test   %eax,%eax
      35:	0f 84 39 02 00 00    	je     274 <get_skin_type+0x274>
      3b:	48 8d 15 4b 00 00 00 	lea    0x4b(%rip),%rdx        # 8d <get_skin_type+0x8d>
      42:	48 89 d9             	mov    %rbx,%rcx
      45:	e8 00 00 00 00       	call   4a <get_skin_type+0x4a>
      4a:	85 c0                	test   %eax,%eax
      4c:	0f 84 22 02 00 00    	je     274 <get_skin_type+0x274>
      52:	48 8d 15 53 00 00 00 	lea    0x53(%rip),%rdx        # ac <get_skin_type+0xac>
      59:	48 89 d9             	mov    %rbx,%rcx
      5c:	e8 00 00 00 00       	call   61 <get_skin_type+0x61>
      61:	85 c0                	test   %eax,%eax
      63:	0f 84 0b 02 00 00    	je     274 <get_skin_type+0x274>
      69:	48 8d 15 5c 00 00 00 	lea    0x5c(%rip),%rdx        # cc <get_skin_type+0xcc>
      70:	48 89 d9             	mov    %rbx,%rcx
      73:	e8 00 00 00 00       	call   78 <get_skin_type+0x78>
      78:	85 c0                	test   %eax,%eax
      7a:	0f 84 f4 01 00 00    	je     274 <get_skin_type+0x274>
      80:	48 8d 15 66 00 00 00 	lea    0x66(%rip),%rdx        # ed <get_skin_type+0xed>
      87:	48 89 d9             	mov    %rbx,%rcx
      8a:	e8 00 00 00 00       	call   8f <get_skin_type+0x8f>
      8f:	85 c0                	test   %eax,%eax
      91:	0f 84 dd 01 00 00    	je     274 <get_skin_type+0x274>
      97:	48 8d 15 72 00 00 00 	lea    0x72(%rip),%rdx        # 110 <get_skin_type+0x110>
      9e:	48 89 d9             	mov    %rbx,%rcx
      a1:	e8 00 00 00 00       	call   a6 <get_skin_type+0xa6>
      a6:	85 c0                	test   %eax,%eax
      a8:	0f 84 c6 01 00 00    	je     274 <get_skin_type+0x274>
      ae:	48 8d 15 7b 00 00 00 	lea    0x7b(%rip),%rdx        # 130 <get_skin_type+0x130>
      b5:	48 89 d9             	mov    %rbx,%rcx
      b8:	e8 00 00 00 00       	call   bd <get_skin_type+0xbd>
      bd:	85 c0                	test   %eax,%eax
      bf:	0f 84 af 01 00 00    	je     274 <get_skin_type+0x274>
      c5:	48 8d 15 83 00 00 00 	lea    0x83(%rip),%rdx        # 14f <get_skin_type+0x14f>
      cc:	48 89 d9             	mov    %rbx,%rcx
      cf:	e8 00 00 00 00       	call   d4 <get_skin_type+0xd4>
      d4:	85 c0                	test   %eax,%eax
      d6:	0f 84 98 01 00 00    	je     274 <get_skin_type+0x274>
      dc:	48 8d 15 8f 00 00 00 	lea    0x8f(%rip),%rdx        # 172 <get_skin_type+0x172>
      e3:	48 89 d9             	mov    %rbx,%rcx
      e6:	e8 00 00 00 00       	call   eb <get_skin_type+0xeb>
      eb:	85 c0                	test   %eax,%eax
      ed:	0f 84 81 01 00 00    	je     274 <get_skin_type+0x274>
      f3:	48 8d 15 99 00 00 00 	lea    0x99(%rip),%rdx        # 193 <get_skin_type+0x193>
      fa:	48 89 d9             	mov    %rbx,%rcx
      fd:	e8 00 00 00 00       	call   102 <get_skin_type+0x102>
     102:	85 c0                	test   %eax,%eax
     104:	0f 84 6a 01 00 00    	je     274 <get_skin_type+0x274>
     10a:	48 8d 15 a1 00 00 00 	lea    0xa1(%rip),%rdx        # 1b2 <get_skin_type+0x1b2>
     111:	48 89 d9             	mov    %rbx,%rcx
     114:	48 8d 35 11 00 00 00 	lea    0x11(%rip),%rsi        # 12c <get_skin_type+0x12c>
     11b:	e8 00 00 00 00       	call   120 <get_skin_type+0x120>
     120:	85 c0                	test   %eax,%eax
     122:	0f 84 4c 01 00 00    	je     274 <get_skin_type+0x274>
     128:	48 8d 15 aa 00 00 00 	lea    0xaa(%rip),%rdx        # 1d9 <get_skin_type+0x1d9>
     12f:	48 89 d9             	mov    %rbx,%rcx
     132:	e8 00 00 00 00       	call   137 <get_skin_type+0x137>
     137:	85 c0                	test   %eax,%eax
     139:	0f 84 35 01 00 00    	je     274 <get_skin_type+0x274>
     13f:	48 8d 15 b1 00 00 00 	lea    0xb1(%rip),%rdx        # 1f7 <get_skin_type+0x1f7>
     146:	48 89 d9             	mov    %rbx,%rcx
     149:	e8 00 00 00 00       	call   14e <get_skin_type+0x14e>
     14e:	85 c0                	test   %eax,%eax
     150:	0f 84 1e 01 00 00    	je     274 <get_skin_type+0x274>
     156:	48 8d 15 bc 00 00 00 	lea    0xbc(%rip),%rdx        # 219 <get_skin_type+0x219>
     15d:	48 89 d9             	mov    %rbx,%rcx
     160:	e8 00 00 00 00       	call   165 <get_skin_type+0x165>
     165:	85 c0                	test   %eax,%eax
     167:	0f 84 07 01 00 00    	je     274 <get_skin_type+0x274>
     16d:	48 8d 15 c2 00 00 00 	lea    0xc2(%rip),%rdx        # 236 <get_skin_type+0x236>
     174:	48 89 d9             	mov    %rbx,%rcx
     177:	e8 00 00 00 00       	call   17c <get_skin_type+0x17c>
     17c:	85 c0                	test   %eax,%eax
     17e:	0f 84 f0 00 00 00    	je     274 <get_skin_type+0x274>
     184:	48 8d 15 cb 00 00 00 	lea    0xcb(%rip),%rdx        # 256 <get_skin_type+0x256>
     18b:	48 89 d9             	mov    %rbx,%rcx
     18e:	e8 00 00 00 00       	call   193 <get_skin_type+0x193>
     193:	85 c0                	test   %eax,%eax
     195:	0f 84 d9 00 00 00    	je     274 <get_skin_type+0x274>
     19b:	48 8d 15 d3 00 00 00 	lea    0xd3(%rip),%rdx        # 275 <get_skin_type+0x275>
     1a2:	48 89 d9             	mov    %rbx,%rcx
     1a5:	e8 00 00 00 00       	call   1aa <get_skin_type+0x1aa>
     1aa:	85 c0                	test   %eax,%eax
     1ac:	0f 84 cc 00 00 00    	je     27e <get_skin_type+0x27e>
     1b2:	48 8d 15 dc 00 00 00 	lea    0xdc(%rip),%rdx        # 295 <get_skin_type+0x295>
     1b9:	48 89 d9             	mov    %rbx,%rcx
     1bc:	e8 00 00 00 00       	call   1c1 <get_skin_type+0x1c1>
     1c1:	85 c0                	test   %eax,%eax
     1c3:	0f 84 b5 00 00 00    	je     27e <get_skin_type+0x27e>
     1c9:	48 8d 15 e6 00 00 00 	lea    0xe6(%rip),%rdx        # 2b6 <feat_push+0x6>
     1d0:	48 89 d9             	mov    %rbx,%rcx
     1d3:	e8 00 00 00 00       	call   1d8 <get_skin_type+0x1d8>
     1d8:	85 c0                	test   %eax,%eax
     1da:	0f 84 9e 00 00 00    	je     27e <get_skin_type+0x27e>
     1e0:	48 8d 15 f3 00 00 00 	lea    0xf3(%rip),%rdx        # 2da <feat_push+0x2a>
     1e7:	48 89 d9             	mov    %rbx,%rcx
     1ea:	e8 00 00 00 00       	call   1ef <get_skin_type+0x1ef>
     1ef:	85 c0                	test   %eax,%eax
     1f1:	0f 84 87 00 00 00    	je     27e <get_skin_type+0x27e>
     1f7:	48 8d 15 fa 00 00 00 	lea    0xfa(%rip),%rdx        # 2f8 <feat_push+0x48>
     1fe:	48 89 d9             	mov    %rbx,%rcx
     201:	e8 00 00 00 00       	call   206 <get_skin_type+0x206>
     206:	85 c0                	test   %eax,%eax
     208:	74 74                	je     27e <get_skin_type+0x27e>
     20a:	48 8d 15 07 01 00 00 	lea    0x107(%rip),%rdx        # 318 <d_apf+0x18>
     211:	48 89 d9             	mov    %rbx,%rcx
     214:	e8 00 00 00 00       	call   219 <get_skin_type+0x219>
     219:	85 c0                	test   %eax,%eax
     21b:	0f 84 81 00 00 00    	je     2a2 <get_skin_type+0x2a2>
     221:	48 8d 15 0d 01 00 00 	lea    0x10d(%rip),%rdx        # 335 <d_apf+0x35>
     228:	48 89 d9             	mov    %rbx,%rcx
     22b:	e8 00 00 00 00       	call   230 <get_skin_type+0x230>
     230:	85 c0                	test   %eax,%eax
     232:	74 65                	je     299 <get_skin_type+0x299>
     234:	48 8d 15 15 01 00 00 	lea    0x115(%rip),%rdx        # 350 <d_apf+0x50>
     23b:	48 89 d9             	mov    %rbx,%rcx
     23e:	e8 00 00 00 00       	call   243 <get_skin_type+0x243>
     243:	85 c0                	test   %eax,%eax
     245:	74 52                	je     299 <get_skin_type+0x299>
     247:	48 8d 15 1c 01 00 00 	lea    0x11c(%rip),%rdx        # 36a <d_apf+0x6a>
     24e:	48 89 d9             	mov    %rbx,%rcx
     251:	e8 00 00 00 00       	call   256 <get_skin_type+0x256>
     256:	85 c0                	test   %eax,%eax
     258:	74 36                	je     290 <get_skin_type+0x290>
     25a:	48 8d 15 22 01 00 00 	lea    0x122(%rip),%rdx        # 383 <get_title+0x13>
     261:	48 89 d9             	mov    %rbx,%rcx
     264:	e8 00 00 00 00       	call   269 <get_skin_type+0x269>
     269:	85 c0                	test   %eax,%eax
     26b:	74 1a                	je     287 <get_skin_type+0x287>
     26d:	48 8d 35 36 00 00 00 	lea    0x36(%rip),%rsi        # 2aa <get_skin_type+0x2aa>
     274:	48 89 f0             	mov    %rsi,%rax
     277:	48 83 c4 28          	add    $0x28,%rsp
     27b:	5b                   	pop    %rbx
     27c:	5e                   	pop    %rsi
     27d:	c3                   	ret
     27e:	48 8d 35 0a 00 00 00 	lea    0xa(%rip),%rsi        # 28f <get_skin_type+0x28f>
     285:	eb ed                	jmp    274 <get_skin_type+0x274>
     287:	48 8d 35 31 00 00 00 	lea    0x31(%rip),%rsi        # 2bf <feat_push+0xf>
     28e:	eb e4                	jmp    274 <get_skin_type+0x274>
     290:	48 8d 35 25 00 00 00 	lea    0x25(%rip),%rsi        # 2bc <feat_push+0xc>
     297:	eb db                	jmp    274 <get_skin_type+0x274>
     299:	48 8d 35 00 00 00 00 	lea    0x0(%rip),%rsi        # 2a0 <get_skin_type+0x2a0>
     2a0:	eb d2                	jmp    274 <get_skin_type+0x274>
     2a2:	48 8d 35 18 00 00 00 	lea    0x18(%rip),%rsi        # 2c1 <feat_push+0x11>
     2a9:	eb c9                	jmp    274 <get_skin_type+0x274>
     2ab:	0f 1f 44 00 00       	nopl   0x0(%rax,%rax,1)

00000000000002b0 <feat_push>:
     2b0:	48 83 ec 38          	sub    $0x38,%rsp
     2b4:	4c 89 4c 24 58       	mov    %r9,0x58(%rsp)
     2b9:	83 3a 17             	cmpl   $0x17,(%rdx)
     2bc:	7f 30                	jg     2ee <feat_push+0x3e>
     2be:	48 63 02             	movslq (%rdx),%rax
     2c1:	48 89 54 24 48       	mov    %rdx,0x48(%rsp)
     2c6:	4c 8d 4c 24 58       	lea    0x58(%rsp),%r9
     2cb:	ba 80 02 00 00       	mov    $0x280,%edx
     2d0:	4c 89 4c 24 28       	mov    %r9,0x28(%rsp)
     2d5:	48 8d 04 80          	lea    (%rax,%rax,4),%rax
     2d9:	48 c1 e0 07          	shl    $0x7,%rax
     2dd:	48 01 c1             	add    %rax,%rcx
     2e0:	e8 00 00 00 00       	call   2e5 <feat_push+0x35>
     2e5:	4c 8b 54 24 48       	mov    0x48(%rsp),%r10
     2ea:	41 83 02 01          	addl   $0x1,(%r10)
     2ee:	48 83 c4 38          	add    $0x38,%rsp
     2f2:	c3                   	ret
     2f3:	66 90                	xchg   %ax,%ax
     2f5:	66 66 2e 0f 1f 84 00 	data16 cs nopw 0x0(%rax,%rax,1)
     2fc:	00 00 00 00 

0000000000000300 <d_apf>:
     300:	53                   	push   %rbx
     301:	48 83 ec 40          	sub    $0x40,%rsp
     305:	4d 89 c3             	mov    %r8,%r11
     308:	4d 89 c8             	mov    %r9,%r8
     30b:	49 8b 1b             	mov    (%r11),%rbx
     30e:	48 39 d3             	cmp    %rdx,%rbx
     311:	72 0d                	jb     320 <d_apf+0x20>
     313:	48 83 c4 40          	add    $0x40,%rsp
     317:	5b                   	pop    %rbx
     318:	c3                   	ret
     319:	0f 1f 80 00 00 00 00 	nopl   0x0(%rax)
     320:	48 89 54 24 58       	mov    %rdx,0x58(%rsp)
     325:	4c 8d 4c 24 70       	lea    0x70(%rsp),%r9
     32a:	48 29 da             	sub    %rbx,%rdx
     32d:	48 01 d9             	add    %rbx,%rcx
     330:	4c 89 4c 24 38       	mov    %r9,0x38(%rsp)
     335:	48 89 54 24 28       	mov    %rdx,0x28(%rsp)
     33a:	4c 89 5c 24 60       	mov    %r11,0x60(%rsp)
     33f:	e8 00 00 00 00       	call   344 <d_apf+0x44>
     344:	85 c0                	test   %eax,%eax
     346:	7e cb                	jle    313 <d_apf+0x13>
     348:	4c 8b 54 24 58       	mov    0x58(%rsp),%r10
     34d:	48 98                	cltq
     34f:	4c 8b 5c 24 60       	mov    0x60(%rsp),%r11
     354:	48 01 c3             	add    %rax,%rbx
     357:	49 83 ea 01          	sub    $0x1,%r10
     35b:	48 3b 44 24 28       	cmp    0x28(%rsp),%rax
     360:	4c 0f 42 d3          	cmovb  %rbx,%r10
     364:	4d 89 13             	mov    %r10,(%r11)
     367:	48 83 c4 40          	add    $0x40,%rsp
     36b:	5b                   	pop    %rbx
     36c:	c3                   	ret
     36d:	0f 1f 00             	nopl   (%rax)

0000000000000370 <get_title>:
     370:	41 57                	push   %r15
     372:	41 56                	push   %r14
     374:	41 55                	push   %r13
     376:	41 54                	push   %r12
     378:	55                   	push   %rbp
     379:	57                   	push   %rdi
     37a:	56                   	push   %rsi
     37b:	53                   	push   %rbx
     37c:	48 83 ec 58          	sub    $0x58,%rsp
     380:	0f b6 b9 c0 00 00 00 	movzbl 0xc0(%rcx),%edi
     387:	40 84 ff             	test   %dil,%dil
     38a:	0f 85 40 01 00 00    	jne    4d0 <get_title+0x160>
     390:	8b 81 cc 01 00 00    	mov    0x1cc(%rcx),%eax
     396:	44 8b a1 a8 01 00 00 	mov    0x1a8(%rcx),%r12d
     39d:	48 8d 1d 28 01 00 00 	lea    0x128(%rip),%rbx        # 4cc <get_title+0x15c>
     3a4:	bf 61 00 00 00       	mov    $0x61,%edi
     3a9:	8b a9 b4 01 00 00    	mov    0x1b4(%rcx),%ebp
     3af:	44 8b a9 c0 01 00 00 	mov    0x1c0(%rcx),%r13d
     3b6:	89 44 24 2c          	mov    %eax,0x2c(%rsp)
     3ba:	44 8b b1 c4 01 00 00 	mov    0x1c4(%rcx),%r14d
     3c1:	48 8b 35 00 00 00 00 	mov    0x0(%rip),%rsi        # 3c8 <get_title+0x58>
     3c8:	40 0f b6 cf          	movzbl %dil,%ecx
     3cc:	41 bf 01 00 00 00    	mov    $0x1,%r15d
     3d2:	0f 1f 00             	nopl   (%rax)
     3d5:	66 66 2e 0f 1f 84 00 	data16 cs nopw 0x0(%rax,%rax,1)
     3dc:	00 00 00 00 
     3e0:	ff d6                	call   *%rsi
     3e2:	42 0f b6 0c 3b       	movzbl (%rbx,%r15,1),%ecx
     3e7:	42 88 44 3c 2f       	mov    %al,0x2f(%rsp,%r15,1)
     3ec:	84 c9                	test   %cl,%cl
     3ee:	0f 84 8c 01 00 00    	je     580 <get_title+0x210>
     3f4:	49 83 c7 01          	add    $0x1,%r15
     3f8:	49 83 ff 20          	cmp    $0x20,%r15
     3fc:	75 e2                	jne    3e0 <get_title+0x70>
     3fe:	48 8d 44 24 4f       	lea    0x4f(%rsp),%rax
     403:	c6 00 00             	movb   $0x0,(%rax)
     406:	81 7c 24 30 6d 61 67 	cmpl   $0x6567616d,0x30(%rsp)
     40d:	65 
     40e:	0f 84 82 01 00 00    	je     596 <get_title+0x226>
     414:	b8 01 00 00 00       	mov    $0x1,%eax
     419:	83 fd 0e             	cmp    $0xe,%ebp
     41c:	0f 9f c2             	setg   %dl
     41f:	85 c0                	test   %eax,%eax
     421:	75 08                	jne    42b <get_title+0xbb>
     423:	84 d2                	test   %dl,%dl
     425:	0f 85 ed 01 00 00    	jne    618 <get_title+0x2a8>
     42b:	48 b8 77 61 72 72 69 	movabs $0x726f6972726177,%rax
     432:	6f 72 00 
     435:	41 83 fc 0e          	cmp    $0xe,%r12d
     439:	0f 9f c1             	setg   %cl
     43c:	48 39 44 24 30       	cmp    %rax,0x30(%rsp)
     441:	75 08                	jne    44b <get_title+0xdb>
     443:	84 c9                	test   %cl,%cl
     445:	0f 85 dd 01 00 00    	jne    628 <get_title+0x2b8>
     44b:	81 7c 24 30 72 6f 67 	cmpl   $0x75676f72,0x30(%rsp)
     452:	75 
     453:	0f 84 57 01 00 00    	je     5b0 <get_title+0x240>
     459:	48 b8 70 61 6c 61 64 	movabs $0x6e6964616c6170,%rax
     460:	69 6e 00 
     463:	48 39 44 24 30       	cmp    %rax,0x30(%rsp)
     468:	75 08                	jne    472 <get_title+0x102>
     46a:	84 c9                	test   %cl,%cl
     46c:	0f 85 8b 01 00 00    	jne    5fd <get_title+0x28d>
     472:	81 7c 24 30 62 61 72 	cmpl   $0x64726162,0x30(%rsp)
     479:	64 
     47a:	0f 84 b8 01 00 00    	je     638 <get_title+0x2c8>
     480:	b8 01 00 00 00       	mov    $0x1,%eax
     485:	41 83 fe 0e          	cmp    $0xe,%r14d
     489:	7e 08                	jle    493 <get_title+0x123>
     48b:	85 c0                	test   %eax,%eax
     48d:	0f 84 76 01 00 00    	je     609 <get_title+0x299>
     493:	81 7c 24 30 72 61 6e 	cmpl   $0x676e6172,0x30(%rsp)
     49a:	67 
     49b:	0f 84 a9 01 00 00    	je     64a <get_title+0x2da>
     4a1:	b8 01 00 00 00       	mov    $0x1,%eax
     4a6:	41 83 fd 0e          	cmp    $0xe,%r13d
     4aa:	7e 5c                	jle    508 <get_title+0x198>
     4ac:	85 c0                	test   %eax,%eax
     4ae:	75 58                	jne    508 <get_title+0x198>
     4b0:	48 8d 05 7c 01 00 00 	lea    0x17c(%rip),%rax        # 633 <get_title+0x2c3>
     4b7:	48 83 c4 58          	add    $0x58,%rsp
     4bb:	5b                   	pop    %rbx
     4bc:	5e                   	pop    %rsi
     4bd:	5f                   	pop    %rdi
     4be:	5d                   	pop    %rbp
     4bf:	41 5c                	pop    %r12
     4c1:	41 5d                	pop    %r13
     4c3:	41 5e                	pop    %r14
     4c5:	41 5f                	pop    %r15
     4c7:	c3                   	ret
     4c8:	0f 1f 84 00 00 00 00 	nopl   0x0(%rax,%rax,1)
     4cf:	00 
     4d0:	8b 81 cc 01 00 00    	mov    0x1cc(%rcx),%eax
     4d6:	44 8b a1 a8 01 00 00 	mov    0x1a8(%rcx),%r12d
     4dd:	48 8d 99 c0 00 00 00 	lea    0xc0(%rcx),%rbx
     4e4:	8b a9 b4 01 00 00    	mov    0x1b4(%rcx),%ebp
     4ea:	44 8b a9 c0 01 00 00 	mov    0x1c0(%rcx),%r13d
     4f1:	89 44 24 2c          	mov    %eax,0x2c(%rsp)
     4f5:	44 8b b1 c4 01 00 00 	mov    0x1c4(%rcx),%r14d
     4fc:	e9 c0 fe ff ff       	jmp    3c1 <get_title+0x51>
     501:	0f 1f 80 00 00 00 00 	nopl   0x0(%rax)
     508:	81 7c 24 30 64 72 75 	cmpl   $0x69757264,0x30(%rsp)
     50f:	69 
     510:	0f 84 cf 00 00 00    	je     5e5 <get_title+0x275>
     516:	48 8d 05 9b 01 00 00 	lea    0x19b(%rip),%rax        # 6b8 <legs_append+0x58>
     51d:	83 7c 24 2c 31       	cmpl   $0x31,0x2c(%rsp)
     522:	7f 93                	jg     4b7 <get_title+0x147>
     524:	48 8d 05 a5 01 00 00 	lea    0x1a5(%rip),%rax        # 6d0 <legs_append+0x70>
     52b:	41 83 fe 0e          	cmp    $0xe,%r14d
     52f:	7f 86                	jg     4b7 <get_title+0x147>
     531:	48 8d 05 af 01 00 00 	lea    0x1af(%rip),%rax        # 6e7 <legs_append+0x87>
     538:	41 83 fd 0e          	cmp    $0xe,%r13d
     53c:	0f 8f 75 ff ff ff    	jg     4b7 <get_title+0x147>
     542:	40 0f b6 cf          	movzbl %dil,%ecx
     546:	ff 15 00 00 00 00    	call   *0x0(%rip)        # 54c <get_title+0x1dc>
     54c:	48 8d 53 01          	lea    0x1(%rbx),%rdx
     550:	41 b8 26 00 00 00    	mov    $0x26,%r8d
     556:	48 8d 0d 01 00 00 00 	lea    0x1(%rip),%rcx        # 55e <get_title+0x1ee>
     55d:	88 05 00 00 00 00    	mov    %al,0x0(%rip)        # 563 <get_title+0x1f3>
     563:	e8 00 00 00 00       	call   568 <get_title+0x1f8>
     568:	c6 05 26 00 00 00 00 	movb   $0x0,0x26(%rip)        # 595 <get_title+0x225>
     56f:	48 8d 05 00 00 00 00 	lea    0x0(%rip),%rax        # 576 <get_title+0x206>
     576:	e9 3c ff ff ff       	jmp    4b7 <get_title+0x147>
     57b:	0f 1f 44 00 00       	nopl   0x0(%rax,%rax,1)
     580:	4a 8d 44 3c 30       	lea    0x30(%rsp,%r15,1),%rax
     585:	c6 00 00             	movb   $0x0,(%rax)
     588:	81 7c 24 30 6d 61 67 	cmpl   $0x6567616d,0x30(%rsp)
     58f:	65 
     590:	0f 85 7e fe ff ff    	jne    414 <get_title+0xa4>
     596:	31 c0                	xor    %eax,%eax
     598:	80 7c 24 34 00       	cmpb   $0x0,0x34(%rsp)
     59d:	0f 84 76 fe ff ff    	je     419 <get_title+0xa9>
     5a3:	e9 6c fe ff ff       	jmp    414 <get_title+0xa4>
     5a8:	0f 1f 84 00 00 00 00 	nopl   0x0(%rax,%rax,1)
     5af:	00 
     5b0:	66 83 7c 24 34 65    	cmpw   $0x65,0x34(%rsp)
     5b6:	0f 85 9d fe ff ff    	jne    459 <get_title+0xe9>
     5bc:	84 c9                	test   %cl,%cl
     5be:	74 0f                	je     5cf <get_title+0x25f>
     5c0:	48 8d 05 47 01 00 00 	lea    0x147(%rip),%rax        # 70e <legs_append+0xae>
     5c7:	84 d2                	test   %dl,%dl
     5c9:	0f 85 e8 fe ff ff    	jne    4b7 <get_title+0x147>
     5cf:	48 8d 05 57 01 00 00 	lea    0x157(%rip),%rax        # 72d <legs_append+0xcd>
     5d6:	41 83 fd 0e          	cmp    $0xe,%r13d
     5da:	0f 8e 79 fe ff ff    	jle    459 <get_title+0xe9>
     5e0:	e9 d2 fe ff ff       	jmp    4b7 <get_title+0x147>
     5e5:	48 8d 05 8a 01 00 00 	lea    0x18a(%rip),%rax        # 776 <legs_append+0x116>
     5ec:	66 83 7c 24 34 64    	cmpw   $0x64,0x34(%rsp)
     5f2:	0f 85 1e ff ff ff    	jne    516 <get_title+0x1a6>
     5f8:	e9 ba fe ff ff       	jmp    4b7 <get_title+0x147>
     5fd:	48 8d 05 65 01 00 00 	lea    0x165(%rip),%rax        # 769 <legs_append+0x109>
     604:	e9 ae fe ff ff       	jmp    4b7 <get_title+0x147>
     609:	48 8d 05 73 01 00 00 	lea    0x173(%rip),%rax        # 783 <legs_append+0x123>
     610:	e9 a2 fe ff ff       	jmp    4b7 <get_title+0x147>
     615:	0f 1f 00             	nopl   (%rax)
     618:	48 8d 05 33 01 00 00 	lea    0x133(%rip),%rax        # 752 <legs_append+0xf2>
     61f:	e9 93 fe ff ff       	jmp    4b7 <get_title+0x147>
     624:	0f 1f 40 00          	nopl   0x0(%rax)
     628:	48 8d 05 3e 01 00 00 	lea    0x13e(%rip),%rax        # 76d <legs_append+0x10d>
     62f:	e9 83 fe ff ff       	jmp    4b7 <get_title+0x147>
     634:	0f 1f 40 00          	nopl   0x0(%rax)
     638:	31 c0                	xor    %eax,%eax
     63a:	80 7c 24 34 00       	cmpb   $0x0,0x34(%rsp)
     63f:	0f 84 40 fe ff ff    	je     485 <get_title+0x115>
     645:	e9 36 fe ff ff       	jmp    480 <get_title+0x110>
     64a:	31 c0                	xor    %eax,%eax
     64c:	81 7c 24 33 67 65 72 	cmpl   $0x726567,0x33(%rsp)
     653:	00 
     654:	0f 85 47 fe ff ff    	jne    4a1 <get_title+0x131>
     65a:	e9 47 fe ff ff       	jmp    4a6 <get_title+0x136>
     65f:	90                   	nop

0000000000000660 <legs_append>:
     660:	41 57                	push   %r15
     662:	41 56                	push   %r14
     664:	41 55                	push   %r13
     666:	41 54                	push   %r12
     668:	55                   	push   %rbp
     669:	57                   	push   %rdi
     66a:	56                   	push   %rsi
     66b:	53                   	push   %rbx
     66c:	48 81 ec 28 01 00 00 	sub    $0x128,%rsp
     673:	48 8b 84 24 90 01 00 	mov    0x190(%rsp),%rax
     67a:	00 
     67b:	48 8b 68 10          	mov    0x10(%rax),%rbp
     67f:	48 89 cb             	mov    %rcx,%rbx
     682:	48 89 d6             	mov    %rdx,%rsi
     685:	4c 89 c7             	mov    %r8,%rdi
     688:	4d 89 cc             	mov    %r9,%r12
     68b:	4d 8d 69 40          	lea    0x40(%r9),%r13
     68f:	48 85 ed             	test   %rbp,%rbp
     692:	74 0c                	je     6a0 <legs_append+0x40>
     694:	0f b6 4d 00          	movzbl 0x0(%rbp),%ecx
     698:	84 c9                	test   %cl,%cl
     69a:	0f 85 f0 03 00 00    	jne    a90 <legs_append+0x430>
     6a0:	c6 44 24 70 00       	movb   $0x0,0x70(%rsp)
     6a5:	48 8d 15 0f 02 00 00 	lea    0x20f(%rip),%rdx        # 8bb <legs_append+0x25b>
     6ac:	4c 89 e9             	mov    %r13,%rcx
     6af:	e8 00 00 00 00       	call   6b4 <legs_append+0x54>
     6b4:	85 c0                	test   %eax,%eax
     6b6:	0f 84 04 04 00 00    	je     ac0 <legs_append+0x460>
     6bc:	48 8d 15 bc 00 00 00 	lea    0xbc(%rip),%rdx        # 77f <legs_append+0x11f>
     6c3:	4c 89 e9             	mov    %r13,%rcx
     6c6:	e8 00 00 00 00       	call   6cb <legs_append+0x6b>
     6cb:	85 c0                	test   %eax,%eax
     6cd:	0f 84 7d 03 00 00    	je     a50 <legs_append+0x3f0>
     6d3:	48 8d 15 50 02 00 00 	lea    0x250(%rip),%rdx        # 92a <legs_append+0x2ca>
     6da:	4c 89 e9             	mov    %r13,%rcx
     6dd:	e8 00 00 00 00       	call   6e2 <legs_append+0x82>
     6e2:	85 c0                	test   %eax,%eax
     6e4:	0f 84 66 03 00 00    	je     a50 <legs_append+0x3f0>
     6ea:	48 8d 15 55 02 00 00 	lea    0x255(%rip),%rdx        # 946 <legs_append+0x2e6>
     6f1:	4c 89 e9             	mov    %r13,%rcx
     6f4:	e8 00 00 00 00       	call   6f9 <legs_append+0x99>
     6f9:	85 c0                	test   %eax,%eax
     6fb:	0f 84 4f 03 00 00    	je     a50 <legs_append+0x3f0>
     701:	48 8d 15 cb 00 00 00 	lea    0xcb(%rip),%rdx        # 7d3 <legs_append+0x173>
     708:	4c 89 e9             	mov    %r13,%rcx
     70b:	e8 00 00 00 00       	call   710 <legs_append+0xb0>
     710:	85 c0                	test   %eax,%eax
     712:	0f 84 c8 03 00 00    	je     ae0 <legs_append+0x480>
     718:	48 8d 15 b4 02 00 00 	lea    0x2b4(%rip),%rdx        # 9d3 <legs_append+0x373>
     71f:	4c 89 e9             	mov    %r13,%rcx
     722:	e8 00 00 00 00       	call   727 <legs_append+0xc7>
     727:	85 c0                	test   %eax,%eax
     729:	0f 84 b1 03 00 00    	je     ae0 <legs_append+0x480>
     72f:	48 8d 15 bc 02 00 00 	lea    0x2bc(%rip),%rdx        # 9f2 <legs_append+0x392>
     736:	4c 89 e9             	mov    %r13,%rcx
     739:	e8 00 00 00 00       	call   73e <legs_append+0xde>
     73e:	85 c0                	test   %eax,%eax
     740:	0f 84 9a 03 00 00    	je     ae0 <legs_append+0x480>
     746:	48 8d 15 1c 03 00 00 	lea    0x31c(%rip),%rdx        # a69 <legs_append+0x409>
     74d:	4c 89 e9             	mov    %r13,%rcx
     750:	e8 00 00 00 00       	call   755 <legs_append+0xf5>
     755:	85 c0                	test   %eax,%eax
     757:	0f 84 d3 03 00 00    	je     b30 <legs_append+0x4d0>
     75d:	48 8d 15 f3 00 00 00 	lea    0xf3(%rip),%rdx        # 857 <legs_append+0x1f7>
     764:	4c 89 e9             	mov    %r13,%rcx
     767:	e8 00 00 00 00       	call   76c <legs_append+0x10c>
     76c:	85 c0                	test   %eax,%eax
     76e:	0f 84 94 03 00 00    	je     b08 <legs_append+0x4a8>
     774:	48 8d 15 e6 00 00 00 	lea    0xe6(%rip),%rdx        # 861 <legs_append+0x201>
     77b:	4c 89 e9             	mov    %r13,%rcx
     77e:	e8 00 00 00 00       	call   783 <legs_append+0x123>
     783:	85 c0                	test   %eax,%eax
     785:	0f 84 7d 03 00 00    	je     b08 <legs_append+0x4a8>
     78b:	48 8d 15 d3 00 00 00 	lea    0xd3(%rip),%rdx        # 865 <legs_append+0x205>
     792:	4c 89 e9             	mov    %r13,%rcx
     795:	e8 00 00 00 00       	call   79a <legs_append+0x13a>
     79a:	85 c0                	test   %eax,%eax
     79c:	0f 84 66 03 00 00    	je     b08 <legs_append+0x4a8>
     7a2:	48 8d 15 cd 03 00 00 	lea    0x3cd(%rip),%rdx        # b76 <legs_append+0x516>
     7a9:	4c 89 e9             	mov    %r13,%rcx
     7ac:	e8 00 00 00 00       	call   7b1 <legs_append+0x151>
     7b1:	85 c0                	test   %eax,%eax
     7b3:	0f 84 d5 04 00 00    	je     c8e <legs_append+0x62e>
     7b9:	48 8d 15 3b 00 00 00 	lea    0x3b(%rip),%rdx        # 7fb <legs_append+0x19b>
     7c0:	4c 89 e9             	mov    %r13,%rcx
     7c3:	41 be 01 00 00 00    	mov    $0x1,%r14d
     7c9:	e8 00 00 00 00       	call   7ce <legs_append+0x16e>
     7ce:	85 c0                	test   %eax,%eax
     7d0:	0f 84 da 00 00 00    	je     8b0 <legs_append+0x250>
     7d6:	48 8d 15 43 00 00 00 	lea    0x43(%rip),%rdx        # 820 <legs_append+0x1c0>
     7dd:	4c 89 e9             	mov    %r13,%rcx
     7e0:	e8 00 00 00 00       	call   7e5 <legs_append+0x185>
     7e5:	85 c0                	test   %eax,%eax
     7e7:	0f 84 c3 00 00 00    	je     8b0 <legs_append+0x250>
     7ed:	48 8d 15 4b 00 00 00 	lea    0x4b(%rip),%rdx        # 83f <legs_append+0x1df>
     7f4:	4c 89 e9             	mov    %r13,%rcx
     7f7:	e8 00 00 00 00       	call   7fc <legs_append+0x19c>
     7fc:	85 c0                	test   %eax,%eax
     7fe:	0f 84 ac 00 00 00    	je     8b0 <legs_append+0x250>
     804:	48 8d 15 5c 00 00 00 	lea    0x5c(%rip),%rdx        # 867 <legs_append+0x207>
     80b:	4c 89 e9             	mov    %r13,%rcx
     80e:	e8 00 00 00 00       	call   813 <legs_append+0x1b3>
     813:	85 c0                	test   %eax,%eax
     815:	0f 84 95 00 00 00    	je     8b0 <legs_append+0x250>
     81b:	48 8d 15 66 00 00 00 	lea    0x66(%rip),%rdx        # 888 <legs_append+0x228>
     822:	4c 89 e9             	mov    %r13,%rcx
     825:	e8 00 00 00 00       	call   82a <legs_append+0x1ca>
     82a:	85 c0                	test   %eax,%eax
     82c:	0f 84 7e 00 00 00    	je     8b0 <legs_append+0x250>
     832:	48 8d 15 72 00 00 00 	lea    0x72(%rip),%rdx        # 8ab <legs_append+0x24b>
     839:	4c 89 e9             	mov    %r13,%rcx
     83c:	e8 00 00 00 00       	call   841 <legs_append+0x1e1>
     841:	85 c0                	test   %eax,%eax
     843:	74 6b                	je     8b0 <legs_append+0x250>
     845:	48 8d 15 53 00 00 00 	lea    0x53(%rip),%rdx        # 89f <legs_append+0x23f>
     84c:	4c 89 e9             	mov    %r13,%rcx
     84f:	e8 00 00 00 00       	call   854 <legs_append+0x1f4>
     854:	85 c0                	test   %eax,%eax
     856:	74 58                	je     8b0 <legs_append+0x250>
     858:	48 8d 15 83 00 00 00 	lea    0x83(%rip),%rdx        # 8e2 <legs_append+0x282>
     85f:	4c 89 e9             	mov    %r13,%rcx
     862:	e8 00 00 00 00       	call   867 <legs_append+0x207>
     867:	85 c0                	test   %eax,%eax
     869:	74 45                	je     8b0 <legs_append+0x250>
     86b:	48 8d 15 8f 00 00 00 	lea    0x8f(%rip),%rdx        # 901 <legs_append+0x2a1>
     872:	4c 89 e9             	mov    %r13,%rcx
     875:	e8 00 00 00 00       	call   87a <legs_append+0x21a>
     87a:	85 c0                	test   %eax,%eax
     87c:	74 32                	je     8b0 <legs_append+0x250>
     87e:	48 8d 15 99 00 00 00 	lea    0x99(%rip),%rdx        # 91e <legs_append+0x2be>
     885:	4c 89 e9             	mov    %r13,%rcx
     888:	e8 00 00 00 00       	call   88d <legs_append+0x22d>
     88d:	85 c0                	test   %eax,%eax
     88f:	74 1f                	je     8b0 <legs_append+0x250>
     891:	48 8d 15 1f 04 00 00 	lea    0x41f(%rip),%rdx        # cb7 <legs_append+0x657>
     898:	4c 89 e9             	mov    %r13,%rcx
     89b:	45 31 f6             	xor    %r14d,%r14d
     89e:	e8 00 00 00 00       	call   8a3 <legs_append+0x243>
     8a3:	85 c0                	test   %eax,%eax
     8a5:	41 0f 94 c6          	sete   %r14b
     8a9:	0f 1f 80 00 00 00 00 	nopl   0x0(%rax)
     8b0:	48 8d 15 a1 00 00 00 	lea    0xa1(%rip),%rdx        # 958 <legs_append+0x2f8>
     8b7:	4c 89 e9             	mov    %r13,%rcx
     8ba:	e8 00 00 00 00       	call   8bf <legs_append+0x25f>
     8bf:	c7 44 24 5c 01 00 00 	movl   $0x1,0x5c(%rsp)
     8c6:	00 
     8c7:	85 c0                	test   %eax,%eax
     8c9:	74 45                	je     910 <legs_append+0x2b0>
     8cb:	48 8d 15 b1 00 00 00 	lea    0xb1(%rip),%rdx        # 983 <legs_append+0x323>
     8d2:	4c 89 e9             	mov    %r13,%rcx
     8d5:	e8 00 00 00 00       	call   8da <legs_append+0x27a>
     8da:	85 c0                	test   %eax,%eax
     8dc:	74 32                	je     910 <legs_append+0x2b0>
     8de:	48 8d 15 aa 00 00 00 	lea    0xaa(%rip),%rdx        # 98f <legs_append+0x32f>
     8e5:	4c 89 e9             	mov    %r13,%rcx
     8e8:	e8 00 00 00 00       	call   8ed <legs_append+0x28d>
     8ed:	85 c0                	test   %eax,%eax
     8ef:	74 1f                	je     910 <legs_append+0x2b0>
     8f1:	48 8d 15 29 04 00 00 	lea    0x429(%rip),%rdx        # d21 <legs_append+0x6c1>
     8f8:	4c 89 e9             	mov    %r13,%rcx
     8fb:	e8 00 00 00 00       	call   900 <legs_append+0x2a0>
     900:	85 c0                	test   %eax,%eax
     902:	0f 94 c0             	sete   %al
     905:	0f b6 c0             	movzbl %al,%eax
     908:	89 44 24 5c          	mov    %eax,0x5c(%rsp)
     90c:	0f 1f 40 00          	nopl   0x0(%rax)
     910:	48 8d 15 22 03 00 00 	lea    0x322(%rip),%rdx        # c39 <legs_append+0x5d9>
     917:	49 8d 8c 24 10 01 00 	lea    0x110(%r12),%rcx
     91e:	00 
     91f:	e8 00 00 00 00       	call   924 <legs_append+0x2c4>
     924:	48 8d 15 ea 01 00 00 	lea    0x1ea(%rip),%rdx        # b15 <legs_append+0x4b5>
     92b:	85 c0                	test   %eax,%eax
     92d:	48 8d 05 f1 01 00 00 	lea    0x1f1(%rip),%rax        # b25 <legs_append+0x4c5>
     934:	48 0f 45 c2          	cmovne %rdx,%rax
     938:	48 89 44 24 68       	mov    %rax,0x68(%rsp)
     93d:	41 0f b6 84 24 78 01 	movzbl 0x178(%r12),%eax
     944:	00 00 
     946:	41 89 c7             	mov    %eax,%r15d
     949:	45 85 f6             	test   %r14d,%r14d
     94c:	0f 84 2a 02 00 00    	je     b7c <legs_append+0x51c>
     952:	48 8d 15 fe 01 00 00 	lea    0x1fe(%rip),%rdx        # b57 <legs_append+0x4f7>
     959:	4d 8d ac 24 78 01 00 	lea    0x178(%r12),%r13
     960:	00 
     961:	48 89 54 24 60       	mov    %rdx,0x60(%rsp)
     966:	84 c0                	test   %al,%al
     968:	0f 84 3b 02 00 00    	je     ba9 <legs_append+0x549>
     96e:	41 0f b6 cf          	movzbl %r15b,%ecx
     972:	41 bc 01 00 00 00    	mov    $0x1,%r12d
     978:	0f 1f 84 00 00 00 00 	nopl   0x0(%rax,%rax,1)
     97f:	00 
     980:	ff 15 00 00 00 00    	call   *0x0(%rip)        # 986 <legs_append+0x326>
     986:	43 0f b6 4c 25 00    	movzbl 0x0(%r13,%r12,1),%ecx
     98c:	42 88 44 24 7f       	mov    %al,0x7f(%rsp,%r12,1)
     991:	84 c9                	test   %cl,%cl
     993:	74 10                	je     9a5 <legs_append+0x345>
     995:	49 83 c4 01          	add    $0x1,%r12
     999:	49 83 fc 20          	cmp    $0x20,%r12
     99d:	75 e1                	jne    980 <legs_append+0x320>
     99f:	41 bc 1f 00 00 00    	mov    $0x1f,%r12d
     9a5:	42 c6 84 24 80 00 00 	movb   $0x0,0x80(%rsp,%r12,1)
     9ac:	00 00 
     9ae:	45 85 f6             	test   %r14d,%r14d
     9b1:	0f 85 fa 01 00 00    	jne    bb1 <legs_append+0x551>
     9b7:	8b 44 24 5c          	mov    0x5c(%rsp),%eax
     9bb:	85 c0                	test   %eax,%eax
     9bd:	0f 85 24 03 00 00    	jne    ce7 <legs_append+0x687>
     9c3:	4c 8d a4 24 80 00 00 	lea    0x80(%rsp),%r12
     9ca:	00 
     9cb:	48 8d 15 35 04 00 00 	lea    0x435(%rip),%rdx        # e07 <face_desc_append+0x97>
     9d2:	4c 89 e1             	mov    %r12,%rcx
     9d5:	e8 00 00 00 00       	call   9da <legs_append+0x37a>
     9da:	85 c0                	test   %eax,%eax
     9dc:	74 09                	je     9e7 <legs_append+0x387>
     9de:	45 84 ff             	test   %r15b,%r15b
     9e1:	0f 85 33 03 00 00    	jne    d1a <legs_append+0x6ba>
     9e7:	c6 84 24 a0 00 00 00 	movb   $0x0,0xa0(%rsp)
     9ee:	00 
     9ef:	4c 8d ac 24 a0 00 00 	lea    0xa0(%rsp),%r13
     9f6:	00 
     9f7:	48 8b 4c 24 60       	mov    0x60(%rsp),%rcx
     9fc:	48 8d 15 0d 02 00 00 	lea    0x20d(%rip),%rdx        # c10 <legs_append+0x5b0>
     a03:	49 89 f8             	mov    %rdi,%r8
     a06:	48 8d 05 05 02 00 00 	lea    0x205(%rip),%rax        # c12 <legs_append+0x5b2>
     a0d:	4c 8d 0d 60 04 00 00 	lea    0x460(%rip),%r9        # e74 <face_desc_append+0x104>
     a14:	c6 84 24 1f 01 00 00 	movb   $0x0,0x11f(%rsp)
     a1b:	00 
     a1c:	80 39 00             	cmpb   $0x0,(%rcx)
     a1f:	48 89 4c 24 30       	mov    %rcx,0x30(%rsp)
     a24:	48 89 d9             	mov    %rbx,%rcx
     a27:	48 0f 45 c2          	cmovne %rdx,%rax
     a2b:	4c 89 6c 24 40       	mov    %r13,0x40(%rsp)
     a30:	48 89 f2             	mov    %rsi,%rdx
     a33:	48 89 6c 24 38       	mov    %rbp,0x38(%rsp)
     a38:	48 89 44 24 28       	mov    %rax,0x28(%rsp)
     a3d:	48 8b 44 24 68       	mov    0x68(%rsp),%rax
     a42:	48 89 44 24 20       	mov    %rax,0x20(%rsp)
     a47:	e8 b4 f8 ff ff       	call   300 <d_apf>
     a4c:	eb 27                	jmp    a75 <legs_append+0x415>
     a4e:	66 90                	xchg   %ax,%ax
     a50:	48 8d 44 24 70       	lea    0x70(%rsp),%rax
     a55:	48 89 6c 24 28       	mov    %rbp,0x28(%rsp)
     a5a:	49 89 f8             	mov    %rdi,%r8
     a5d:	48 89 f2             	mov    %rsi,%rdx
     a60:	48 89 44 24 20       	mov    %rax,0x20(%rsp)
     a65:	4c 8d 0d 60 02 00 00 	lea    0x260(%rip),%r9        # ccc <legs_append+0x66c>
     a6c:	48 89 d9             	mov    %rbx,%rcx
     a6f:	e8 8c f8 ff ff       	call   300 <d_apf>
     a74:	90                   	nop
     a75:	48 81 c4 28 01 00 00 	add    $0x128,%rsp
     a7c:	5b                   	pop    %rbx
     a7d:	5e                   	pop    %rsi
     a7e:	5f                   	pop    %rdi
     a7f:	5d                   	pop    %rbp
     a80:	41 5c                	pop    %r12
     a82:	41 5d                	pop    %r13
     a84:	41 5e                	pop    %r14
     a86:	41 5f                	pop    %r15
     a88:	c3                   	ret
     a89:	0f 1f 80 00 00 00 00 	nopl   0x0(%rax)
     a90:	ff 15 00 00 00 00    	call   *0x0(%rip)        # a96 <legs_append+0x436>
     a96:	48 8d 55 01          	lea    0x1(%rbp),%rdx
     a9a:	48 8d 4c 24 71       	lea    0x71(%rsp),%rcx
     a9f:	41 b8 0e 00 00 00    	mov    $0xe,%r8d
     aa5:	88 44 24 70          	mov    %al,0x70(%rsp)
     aa9:	e8 00 00 00 00       	call   aae <legs_append+0x44e>
     aae:	c6 44 24 7f 00       	movb   $0x0,0x7f(%rsp)
     ab3:	e9 ed fb ff ff       	jmp    6a5 <legs_append+0x45>
     ab8:	0f 1f 84 00 00 00 00 	nopl   0x0(%rax,%rax,1)
     abf:	00 
     ac0:	48 89 6c 24 20       	mov    %rbp,0x20(%rsp)
     ac5:	49 89 f8             	mov    %rdi,%r8
     ac8:	48 89 f2             	mov    %rsi,%rdx
     acb:	48 89 d9             	mov    %rbx,%rcx
     ace:	4c 8d 0d 18 02 00 00 	lea    0x218(%rip),%r9        # ced <legs_append+0x68d>
     ad5:	e8 26 f8 ff ff       	call   300 <d_apf>
     ada:	eb 99                	jmp    a75 <legs_append+0x415>
     adc:	0f 1f 40 00          	nopl   0x0(%rax)
     ae0:	48 8d 44 24 70       	lea    0x70(%rsp),%rax
     ae5:	49 89 f8             	mov    %rdi,%r8
     ae8:	48 89 f2             	mov    %rsi,%rdx
     aeb:	48 89 d9             	mov    %rbx,%rcx
     aee:	48 89 44 24 20       	mov    %rax,0x20(%rsp)
     af3:	4c 8d 0d c8 02 00 00 	lea    0x2c8(%rip),%r9        # dc2 <face_desc_append+0x52>
     afa:	e8 01 f8 ff ff       	call   300 <d_apf>
     aff:	e9 71 ff ff ff       	jmp    a75 <legs_append+0x415>
     b04:	0f 1f 40 00          	nopl   0x0(%rax)
     b08:	48 8d 44 24 70       	lea    0x70(%rsp),%rax
     b0d:	49 89 f8             	mov    %rdi,%r8
     b10:	48 89 f2             	mov    %rsi,%rdx
     b13:	48 89 d9             	mov    %rbx,%rcx
     b16:	48 89 44 24 20       	mov    %rax,0x20(%rsp)
     b1b:	4c 8d 0d 70 03 00 00 	lea    0x370(%rip),%r9        # e92 <face_desc_append+0x122>
     b22:	e8 d9 f7 ff ff       	call   300 <d_apf>
     b27:	e9 49 ff ff ff       	jmp    a75 <legs_append+0x415>
     b2c:	0f 1f 40 00          	nopl   0x0(%rax)
     b30:	49 8d 8c 24 10 01 00 	lea    0x110(%r12),%rcx
     b37:	00 
     b38:	48 8d 15 22 03 00 00 	lea    0x322(%rip),%rdx        # e61 <face_desc_append+0xf1>
     b3f:	e8 00 00 00 00       	call   b44 <legs_append+0x4e4>
     b44:	48 89 6c 24 28       	mov    %rbp,0x28(%rsp)
     b49:	49 89 f8             	mov    %rdi,%r8
     b4c:	48 89 d9             	mov    %rbx,%rcx
     b4f:	85 c0                	test   %eax,%eax
     b51:	48 8d 15 e3 01 00 00 	lea    0x1e3(%rip),%rdx        # d3b <legs_append+0x6db>
     b58:	48 8d 05 ea 01 00 00 	lea    0x1ea(%rip),%rax        # d49 <legs_append+0x6e9>
     b5f:	48 0f 44 c2          	cmove  %rdx,%rax
     b63:	4c 8d 0d 30 03 00 00 	lea    0x330(%rip),%r9        # e9a <face_desc_append+0x12a>
     b6a:	48 89 f2             	mov    %rsi,%rdx
     b6d:	48 89 44 24 20       	mov    %rax,0x20(%rsp)
     b72:	e8 89 f7 ff ff       	call   300 <d_apf>
     b77:	e9 f9 fe ff ff       	jmp    a75 <legs_append+0x415>
     b7c:	8b 54 24 5c          	mov    0x5c(%rsp),%edx
     b80:	85 d2                	test   %edx,%edx
     b82:	0f 84 2a 01 00 00    	je     cb2 <legs_append+0x652>
     b88:	84 c0                	test   %al,%al
     b8a:	0f 84 43 01 00 00    	je     cd3 <legs_append+0x673>
     b90:	48 8d 05 06 02 00 00 	lea    0x206(%rip),%rax        # d9d <face_desc_append+0x2d>
     b97:	4d 8d ac 24 78 01 00 	lea    0x178(%r12),%r13
     b9e:	00 
     b9f:	48 89 44 24 60       	mov    %rax,0x60(%rsp)
     ba4:	e9 c5 fd ff ff       	jmp    96e <legs_append+0x30e>
     ba9:	c6 84 24 80 00 00 00 	movb   $0x0,0x80(%rsp)
     bb0:	00 
     bb1:	48 ba 20 69 6e 20 70 	movabs $0x64646170206e6920,%rdx
     bb8:	61 64 64 
     bbb:	48 b8 2c 20 65 6e 64 	movabs $0x676e69646e65202c,%rax
     bc2:	69 6e 67 
     bc5:	48 89 94 24 a8 00 00 	mov    %rdx,0xa8(%rsp)
     bcc:	00 
     bcd:	48 89 84 24 a0 00 00 	mov    %rax,0xa0(%rsp)
     bd4:	00 
     bd5:	48 b8 65 64 20 70 61 	movabs $0x73776170206465,%rax
     bdc:	77 73 00 
     bdf:	31 d2                	xor    %edx,%edx
     be1:	48 c7 84 24 08 01 00 	movq   $0x0,0x108(%rsp)
     be8:	00 00 00 00 00 
     bed:	4c 8d ac 24 a0 00 00 	lea    0xa0(%rsp),%r13
     bf4:	00 
     bf5:	48 89 84 24 b0 00 00 	mov    %rax,0xb0(%rsp)
     bfc:	00 
     bfd:	48 89 94 24 b8 00 00 	mov    %rdx,0xb8(%rsp)
     c04:	00 
     c05:	48 c7 84 24 c0 00 00 	movq   $0x0,0xc0(%rsp)
     c0c:	00 00 00 00 00 
     c11:	48 c7 84 24 c8 00 00 	movq   $0x0,0xc8(%rsp)
     c18:	00 00 00 00 00 
     c1d:	48 c7 84 24 d0 00 00 	movq   $0x0,0xd0(%rsp)
     c24:	00 00 00 00 00 
     c29:	48 c7 84 24 d8 00 00 	movq   $0x0,0xd8(%rsp)
     c30:	00 00 00 00 00 
     c35:	48 c7 84 24 e0 00 00 	movq   $0x0,0xe0(%rsp)
     c3c:	00 00 00 00 00 
     c41:	48 c7 84 24 e8 00 00 	movq   $0x0,0xe8(%rsp)
     c48:	00 00 00 00 00 
     c4d:	48 c7 84 24 f0 00 00 	movq   $0x0,0xf0(%rsp)
     c54:	00 00 00 00 00 
     c59:	48 c7 84 24 f8 00 00 	movq   $0x0,0xf8(%rsp)
     c60:	00 00 00 00 00 
     c65:	48 c7 84 24 00 01 00 	movq   $0x0,0x100(%rsp)
     c6c:	00 00 00 00 00 
     c71:	48 c7 84 24 0f 01 00 	movq   $0x0,0x10f(%rsp)
     c78:	00 00 00 00 00 
     c7d:	48 c7 84 24 17 01 00 	movq   $0x0,0x117(%rsp)
     c84:	00 00 00 00 00 
     c89:	e9 69 fd ff ff       	jmp    9f7 <legs_append+0x397>
     c8e:	48 8d 44 24 70       	lea    0x70(%rsp),%rax
     c93:	49 89 f8             	mov    %rdi,%r8
     c96:	48 89 f2             	mov    %rsi,%rdx
     c99:	48 89 d9             	mov    %rbx,%rcx
     c9c:	48 89 44 24 20       	mov    %rax,0x20(%rsp)
     ca1:	4c 8d 0d e0 03 00 00 	lea    0x3e0(%rip),%r9        # 1088 <face_desc_append+0x318>
     ca8:	e8 53 f6 ff ff       	call   300 <d_apf>
     cad:	e9 c3 fd ff ff       	jmp    a75 <legs_append+0x415>
     cb2:	84 c0                	test   %al,%al
     cb4:	0f 84 9a 00 00 00    	je     d54 <legs_append+0x6f4>
     cba:	48 8d 05 05 02 00 00 	lea    0x205(%rip),%rax        # ec6 <face_desc_append+0x156>
     cc1:	4d 8d ac 24 78 01 00 	lea    0x178(%r12),%r13
     cc8:	00 
     cc9:	48 89 44 24 60       	mov    %rax,0x60(%rsp)
     cce:	e9 9b fc ff ff       	jmp    96e <legs_append+0x30e>
     cd3:	48 8d 05 06 02 00 00 	lea    0x206(%rip),%rax        # ee0 <face_desc_append+0x170>
     cda:	c6 84 24 80 00 00 00 	movb   $0x0,0x80(%rsp)
     ce1:	00 
     ce2:	48 89 44 24 60       	mov    %rax,0x60(%rsp)
     ce7:	48 b8 2c 20 65 6e 64 	movabs $0x676e69646e65202c,%rax
     cee:	69 6e 67 
     cf1:	48 ba 20 69 6e 20 63 	movabs $0x77616c63206e6920,%rdx
     cf8:	6c 61 77 
     cfb:	48 89 84 24 a0 00 00 	mov    %rax,0xa0(%rsp)
     d02:	00 
     d03:	48 b8 65 64 20 66 65 	movabs $0x74656566206465,%rax
     d0a:	65 74 00 
     d0d:	48 89 94 24 a8 00 00 	mov    %rdx,0xa8(%rsp)
     d14:	00 
     d15:	e9 c5 fe ff ff       	jmp    bdf <legs_append+0x57f>
     d1a:	48 89 6c 24 20       	mov    %rbp,0x20(%rsp)
     d1f:	4c 8d ac 24 a0 00 00 	lea    0xa0(%rsp),%r13
     d26:	00 
     d27:	49 89 e9             	mov    %rbp,%r9
     d2a:	ba 80 00 00 00       	mov    $0x80,%edx
     d2f:	4c 89 64 24 28       	mov    %r12,0x28(%rsp)
     d34:	4c 8d 05 40 04 00 00 	lea    0x440(%rip),%r8        # 117b <face_desc_append+0x40b>
     d3b:	4c 89 e9             	mov    %r13,%rcx
     d3e:	e8 00 00 00 00       	call   d43 <legs_append+0x6e3>
     d43:	48 8b 84 24 90 01 00 	mov    0x190(%rsp),%rax
     d4a:	00 
     d4b:	48 8b 68 10          	mov    0x10(%rax),%rbp
     d4f:	e9 a3 fc ff ff       	jmp    9f7 <legs_append+0x397>
     d54:	48 8d 05 05 02 00 00 	lea    0x205(%rip),%rax        # f60 <face_desc_append+0x1f0>
     d5b:	c6 84 24 80 00 00 00 	movb   $0x0,0x80(%rsp)
     d62:	00 
     d63:	48 89 44 24 60       	mov    %rax,0x60(%rsp)
     d68:	e9 7a fc ff ff       	jmp    9e7 <legs_append+0x387>
     d6d:	0f 1f 00             	nopl   (%rax)

0000000000000d70 <face_desc_append>:
     d70:	41 57                	push   %r15
     d72:	41 56                	push   %r14
     d74:	41 55                	push   %r13
     d76:	41 54                	push   %r12
     d78:	55                   	push   %rbp
     d79:	57                   	push   %rdi
     d7a:	56                   	push   %rsi
     d7b:	53                   	push   %rbx
     d7c:	48 83 ec 78          	sub    $0x78,%rsp
     d80:	48 89 cf             	mov    %rcx,%rdi
     d83:	41 0f b6 49 40       	movzbl 0x40(%r9),%ecx
     d88:	48 89 d5             	mov    %rdx,%rbp
     d8b:	4d 89 c4             	mov    %r8,%r12
     d8e:	4c 89 cb             	mov    %r9,%rbx
     d91:	4d 8d 69 40          	lea    0x40(%r9),%r13
     d95:	84 c9                	test   %cl,%cl
     d97:	0f 84 6b 04 00 00    	je     1208 <face_desc_append+0x498>
     d9d:	48 8b 35 00 00 00 00 	mov    0x0(%rip),%rsi        # da4 <face_desc_append+0x34>
     da4:	41 bf 01 00 00 00    	mov    $0x1,%r15d
     daa:	4c 8d 74 24 40       	lea    0x40(%rsp),%r14
     daf:	90                   	nop
     db0:	ff d6                	call   *%rsi
     db2:	42 0f b6 4c 3b 40    	movzbl 0x40(%rbx,%r15,1),%ecx
     db8:	42 88 44 3c 3f       	mov    %al,0x3f(%rsp,%r15,1)
     dbd:	84 c9                	test   %cl,%cl
     dbf:	0f 84 eb 00 00 00    	je     eb0 <face_desc_append+0x140>
     dc5:	49 83 c7 01          	add    $0x1,%r15
     dc9:	49 83 ff 30          	cmp    $0x30,%r15
     dcd:	75 e1                	jne    db0 <face_desc_append+0x40>
     dcf:	4c 8d 7c 24 6f       	lea    0x6f(%rsp),%r15
     dd4:	48 8b 84 24 e0 00 00 	mov    0xe0(%rsp),%rax
     ddb:	00 
     ddc:	41 c6 07 00          	movb   $0x0,(%r15)
     de0:	48 8b 58 10          	mov    0x10(%rax),%rbx
     de4:	48 85 db             	test   %rbx,%rbx
     de7:	0f 84 b3 00 00 00    	je     ea0 <face_desc_append+0x130>
     ded:	0f b6 0b             	movzbl (%rbx),%ecx
     df0:	84 c9                	test   %cl,%cl
     df2:	0f 84 a8 00 00 00    	je     ea0 <face_desc_append+0x130>
     df8:	ff 15 00 00 00 00    	call   *0x0(%rip)        # dfe <face_desc_append+0x8e>
     dfe:	48 8d 53 01          	lea    0x1(%rbx),%rdx
     e02:	48 8d 4c 24 31       	lea    0x31(%rsp),%rcx
     e07:	41 b8 0e 00 00 00    	mov    $0xe,%r8d
     e0d:	88 44 24 30          	mov    %al,0x30(%rsp)
     e11:	e8 00 00 00 00       	call   e16 <face_desc_append+0xa6>
     e16:	c6 44 24 3f 00       	movb   $0x0,0x3f(%rsp)
     e1b:	48 8d 15 bc 00 00 00 	lea    0xbc(%rip),%rdx        # ede <face_desc_append+0x16e>
     e22:	4c 89 e9             	mov    %r13,%rcx
     e25:	e8 00 00 00 00       	call   e2a <face_desc_append+0xba>
     e2a:	85 c0                	test   %eax,%eax
     e2c:	74 32                	je     e60 <face_desc_append+0xf0>
     e2e:	48 8d 15 50 02 00 00 	lea    0x250(%rip),%rdx        # 1085 <face_desc_append+0x315>
     e35:	4c 89 e9             	mov    %r13,%rcx
     e38:	e8 00 00 00 00       	call   e3d <face_desc_append+0xcd>
     e3d:	85 c0                	test   %eax,%eax
     e3f:	74 1f                	je     e60 <face_desc_append+0xf0>
     e41:	48 8d 15 55 02 00 00 	lea    0x255(%rip),%rdx        # 109d <face_desc_append+0x32d>
     e48:	4c 89 e9             	mov    %r13,%rcx
     e4b:	e8 00 00 00 00       	call   e50 <face_desc_append+0xe0>
     e50:	85 c0                	test   %eax,%eax
     e52:	75 6c                	jne    ec0 <face_desc_append+0x150>
     e54:	90                   	nop
     e55:	66 66 2e 0f 1f 84 00 	data16 cs nopw 0x0(%rax,%rax,1)
     e5c:	00 00 00 00 
     e60:	48 8d 44 24 30       	lea    0x30(%rsp),%rax
     e65:	4c 89 74 24 28       	mov    %r14,0x28(%rsp)
     e6a:	4d 89 e0             	mov    %r12,%r8
     e6d:	48 89 ea             	mov    %rbp,%rdx
     e70:	48 89 44 24 20       	mov    %rax,0x20(%rsp)
     e75:	4c 8d 0d 90 04 00 00 	lea    0x490(%rip),%r9        # 130c <face_desc_append+0x59c>
     e7c:	48 89 f9             	mov    %rdi,%rcx
     e7f:	e8 7c f4 ff ff       	call   300 <d_apf>
     e84:	90                   	nop
     e85:	48 83 c4 78          	add    $0x78,%rsp
     e89:	5b                   	pop    %rbx
     e8a:	5e                   	pop    %rsi
     e8b:	5f                   	pop    %rdi
     e8c:	5d                   	pop    %rbp
     e8d:	41 5c                	pop    %r12
     e8f:	41 5d                	pop    %r13
     e91:	41 5e                	pop    %r14
     e93:	41 5f                	pop    %r15
     e95:	c3                   	ret
     e96:	66 2e 0f 1f 84 00 00 	cs nopw 0x0(%rax,%rax,1)
     e9d:	00 00 00 
     ea0:	c6 44 24 30 00       	movb   $0x0,0x30(%rsp)
     ea5:	e9 71 ff ff ff       	jmp    e1b <face_desc_append+0xab>
     eaa:	66 0f 1f 44 00 00    	nopw   0x0(%rax,%rax,1)
     eb0:	4d 01 f7             	add    %r14,%r15
     eb3:	e9 1c ff ff ff       	jmp    dd4 <face_desc_append+0x64>
     eb8:	0f 1f 84 00 00 00 00 	nopl   0x0(%rax,%rax,1)
     ebf:	00 
     ec0:	48 8d 15 cb 00 00 00 	lea    0xcb(%rip),%rdx        # f92 <face_desc_append+0x222>
     ec7:	4c 89 e9             	mov    %r13,%rcx
     eca:	e8 00 00 00 00       	call   ecf <face_desc_append+0x15f>
     ecf:	85 c0                	test   %eax,%eax
     ed1:	74 8d                	je     e60 <face_desc_append+0xf0>
     ed3:	48 8d 15 cd 03 00 00 	lea    0x3cd(%rip),%rdx        # 12a7 <face_desc_append+0x537>
     eda:	4c 89 e9             	mov    %r13,%rcx
     edd:	e8 00 00 00 00       	call   ee2 <face_desc_append+0x172>
     ee2:	85 c0                	test   %eax,%eax
     ee4:	0f 84 76 ff ff ff    	je     e60 <face_desc_append+0xf0>
     eea:	48 8d 15 a1 00 00 00 	lea    0xa1(%rip),%rdx        # f92 <face_desc_append+0x222>
     ef1:	4c 89 e9             	mov    %r13,%rcx
     ef4:	e8 00 00 00 00       	call   ef9 <face_desc_append+0x189>
     ef9:	85 c0                	test   %eax,%eax
     efb:	0f 84 14 03 00 00    	je     1215 <face_desc_append+0x4a5>
     f01:	48 8d 15 b1 00 00 00 	lea    0xb1(%rip),%rdx        # fb9 <face_desc_append+0x249>
     f08:	4c 89 e9             	mov    %r13,%rcx
     f0b:	e8 00 00 00 00       	call   f10 <face_desc_append+0x1a0>
     f10:	85 c0                	test   %eax,%eax
     f12:	0f 84 fd 02 00 00    	je     1215 <face_desc_append+0x4a5>
     f18:	48 8d 15 aa 00 00 00 	lea    0xaa(%rip),%rdx        # fc9 <face_desc_append+0x259>
     f1f:	4c 89 e9             	mov    %r13,%rcx
     f22:	e8 00 00 00 00       	call   f27 <face_desc_append+0x1b7>
     f27:	85 c0                	test   %eax,%eax
     f29:	0f 84 e6 02 00 00    	je     1215 <face_desc_append+0x4a5>
     f2f:	48 8d 15 35 05 00 00 	lea    0x535(%rip),%rdx        # 146b <naked_body_append+0x8b>
     f36:	4c 89 e9             	mov    %r13,%rcx
     f39:	e8 00 00 00 00       	call   f3e <face_desc_append+0x1ce>
     f3e:	85 c0                	test   %eax,%eax
     f40:	0f 84 f8 02 00 00    	je     123e <face_desc_append+0x4ce>
     f46:	48 8d 15 39 05 00 00 	lea    0x539(%rip),%rdx        # 1486 <naked_body_append+0xa6>
     f4d:	4c 89 e9             	mov    %r13,%rcx
     f50:	e8 00 00 00 00       	call   f55 <face_desc_append+0x1e5>
     f55:	85 c0                	test   %eax,%eax
     f57:	0f 84 e1 02 00 00    	je     123e <face_desc_append+0x4ce>
     f5d:	48 8d 15 42 05 00 00 	lea    0x542(%rip),%rdx        # 14a6 <naked_body_append+0xc6>
     f64:	4c 89 e9             	mov    %r13,%rcx
     f67:	e8 00 00 00 00       	call   f6c <face_desc_append+0x1fc>
     f6c:	85 c0                	test   %eax,%eax
     f6e:	0f 84 ca 02 00 00    	je     123e <face_desc_append+0x4ce>
     f74:	48 8d 15 07 01 00 00 	lea    0x107(%rip),%rdx        # 1082 <face_desc_append+0x312>
     f7b:	4c 89 e9             	mov    %r13,%rcx
     f7e:	e8 00 00 00 00       	call   f83 <face_desc_append+0x213>
     f83:	85 c0                	test   %eax,%eax
     f85:	0f 84 dc 02 00 00    	je     1267 <face_desc_append+0x4f7>
     f8b:	48 8d 15 d3 00 00 00 	lea    0xd3(%rip),%rdx        # 1065 <face_desc_append+0x2f5>
     f92:	4c 89 e9             	mov    %r13,%rcx
     f95:	e8 00 00 00 00       	call   f9a <face_desc_append+0x22a>
     f9a:	85 c0                	test   %eax,%eax
     f9c:	0f 84 c5 02 00 00    	je     1267 <face_desc_append+0x4f7>
     fa2:	48 8d 15 dc 00 00 00 	lea    0xdc(%rip),%rdx        # 1085 <face_desc_append+0x315>
     fa9:	4c 89 e9             	mov    %r13,%rcx
     fac:	e8 00 00 00 00       	call   fb1 <face_desc_append+0x241>
     fb1:	85 c0                	test   %eax,%eax
     fb3:	0f 84 ae 02 00 00    	je     1267 <face_desc_append+0x4f7>
     fb9:	48 8d 15 e6 00 00 00 	lea    0xe6(%rip),%rdx        # 10a6 <face_desc_append+0x336>
     fc0:	4c 89 e9             	mov    %r13,%rcx
     fc3:	e8 00 00 00 00       	call   fc8 <face_desc_append+0x258>
     fc8:	85 c0                	test   %eax,%eax
     fca:	0f 84 97 02 00 00    	je     1267 <face_desc_append+0x4f7>
     fd0:	48 8d 15 f3 00 00 00 	lea    0xf3(%rip),%rdx        # 10ca <face_desc_append+0x35a>
     fd7:	4c 89 e9             	mov    %r13,%rcx
     fda:	e8 00 00 00 00       	call   fdf <face_desc_append+0x26f>
     fdf:	85 c0                	test   %eax,%eax
     fe1:	0f 84 80 02 00 00    	je     1267 <face_desc_append+0x4f7>
     fe7:	48 8d 15 fa 00 00 00 	lea    0xfa(%rip),%rdx        # 10e8 <face_desc_append+0x378>
     fee:	4c 89 e9             	mov    %r13,%rcx
     ff1:	e8 00 00 00 00       	call   ff6 <face_desc_append+0x286>
     ff6:	85 c0                	test   %eax,%eax
     ff8:	0f 84 69 02 00 00    	je     1267 <face_desc_append+0x4f7>
     ffe:	48 8d 15 7b 00 00 00 	lea    0x7b(%rip),%rdx        # 1080 <face_desc_append+0x310>
    1005:	4c 89 e9             	mov    %r13,%rcx
    1008:	e8 00 00 00 00       	call   100d <face_desc_append+0x29d>
    100d:	85 c0                	test   %eax,%eax
    100f:	0f 84 52 02 00 00    	je     1267 <face_desc_append+0x4f7>
    1015:	48 8d 15 53 00 00 00 	lea    0x53(%rip),%rdx        # 106f <face_desc_append+0x2ff>
    101c:	4c 89 e9             	mov    %r13,%rcx
    101f:	e8 00 00 00 00       	call   1024 <face_desc_append+0x2b4>
    1024:	85 c0                	test   %eax,%eax
    1026:	0f 84 64 02 00 00    	je     1290 <face_desc_append+0x520>
    102c:	48 8d 15 8f 00 00 00 	lea    0x8f(%rip),%rdx        # 10c2 <face_desc_append+0x352>
    1033:	4c 89 e9             	mov    %r13,%rcx
    1036:	e8 00 00 00 00       	call   103b <face_desc_append+0x2cb>
    103b:	85 c0                	test   %eax,%eax
    103d:	0f 84 4d 02 00 00    	je     1290 <face_desc_append+0x520>
    1043:	48 8d 15 83 00 00 00 	lea    0x83(%rip),%rdx        # 10cd <face_desc_append+0x35d>
    104a:	4c 89 e9             	mov    %r13,%rcx
    104d:	e8 00 00 00 00       	call   1052 <face_desc_append+0x2e2>
    1052:	85 c0                	test   %eax,%eax
    1054:	0f 84 36 02 00 00    	je     1290 <face_desc_append+0x520>
    105a:	48 8d 15 1a 06 00 00 	lea    0x61a(%rip),%rdx        # 167b <naked_body_append+0x29b>
    1061:	4c 89 e9             	mov    %r13,%rcx
    1064:	e8 00 00 00 00       	call   1069 <face_desc_append+0x2f9>
    1069:	85 c0                	test   %eax,%eax
    106b:	0f 84 46 03 00 00    	je     13b7 <face_desc_append+0x647>
    1071:	48 8d 15 c2 00 00 00 	lea    0xc2(%rip),%rdx        # 113a <face_desc_append+0x3ca>
    1078:	4c 89 e9             	mov    %r13,%rcx
    107b:	e8 00 00 00 00       	call   1080 <face_desc_append+0x310>
    1080:	85 c0                	test   %eax,%eax
    1082:	0f 84 2f 03 00 00    	je     13b7 <face_desc_append+0x647>
    1088:	48 8d 15 20 06 00 00 	lea    0x620(%rip),%rdx        # 16af <naked_body_append+0x2cf>
    108f:	4c 89 e9             	mov    %r13,%rcx
    1092:	e8 00 00 00 00       	call   1097 <face_desc_append+0x327>
    1097:	85 c0                	test   %eax,%eax
    1099:	0f 84 18 03 00 00    	je     13b7 <face_desc_append+0x647>
    109f:	48 8d 15 29 06 00 00 	lea    0x629(%rip),%rdx        # 16cf <naked_body_append+0x2ef>
    10a6:	4c 89 e9             	mov    %r13,%rcx
    10a9:	e8 00 00 00 00       	call   10ae <face_desc_append+0x33e>
    10ae:	85 c0                	test   %eax,%eax
    10b0:	0f 84 01 03 00 00    	je     13b7 <face_desc_append+0x647>
    10b6:	48 8d 15 77 06 00 00 	lea    0x677(%rip),%rdx        # 1734 <naked_body_append+0x354>
    10bd:	4c 89 e9             	mov    %r13,%rcx
    10c0:	e8 00 00 00 00       	call   10c5 <face_desc_append+0x355>
    10c5:	85 c0                	test   %eax,%eax
    10c7:	0f 84 c1 02 00 00    	je     138e <face_desc_append+0x61e>
    10cd:	48 8d 15 7d 06 00 00 	lea    0x67d(%rip),%rdx        # 1751 <naked_body_append+0x371>
    10d4:	4c 89 e9             	mov    %r13,%rcx
    10d7:	e8 00 00 00 00       	call   10dc <face_desc_append+0x36c>
    10dc:	85 c0                	test   %eax,%eax
    10de:	0f 84 aa 02 00 00    	je     138e <face_desc_append+0x61e>
    10e4:	48 8d 15 84 06 00 00 	lea    0x684(%rip),%rdx        # 176f <naked_body_append+0x38f>
    10eb:	4c 89 e9             	mov    %r13,%rcx
    10ee:	e8 00 00 00 00       	call   10f3 <face_desc_append+0x383>
    10f3:	85 c0                	test   %eax,%eax
    10f5:	0f 84 93 02 00 00    	je     138e <face_desc_append+0x61e>
    10fb:	48 8d 15 3b 00 00 00 	lea    0x3b(%rip),%rdx        # 113d <face_desc_append+0x3cd>
    1102:	4c 89 e9             	mov    %r13,%rcx
    1105:	e8 00 00 00 00       	call   110a <face_desc_append+0x39a>
    110a:	85 c0                	test   %eax,%eax
    110c:	0f 84 a7 01 00 00    	je     12b9 <face_desc_append+0x549>
    1112:	48 8d 15 43 00 00 00 	lea    0x43(%rip),%rdx        # 115c <face_desc_append+0x3ec>
    1119:	4c 89 e9             	mov    %r13,%rcx
    111c:	e8 00 00 00 00       	call   1121 <face_desc_append+0x3b1>
    1121:	85 c0                	test   %eax,%eax
    1123:	0f 84 90 01 00 00    	je     12b9 <face_desc_append+0x549>
    1129:	48 8d 15 4b 00 00 00 	lea    0x4b(%rip),%rdx        # 117b <face_desc_append+0x40b>
    1130:	4c 89 e9             	mov    %r13,%rcx
    1133:	e8 00 00 00 00       	call   1138 <face_desc_append+0x3c8>
    1138:	85 c0                	test   %eax,%eax
    113a:	0f 84 79 01 00 00    	je     12b9 <face_desc_append+0x549>
    1140:	48 8d 15 c0 06 00 00 	lea    0x6c0(%rip),%rdx        # 1807 <naked_body_append+0x427>
    1147:	4c 89 e9             	mov    %r13,%rcx
    114a:	e8 00 00 00 00       	call   114f <face_desc_append+0x3df>
    114f:	85 c0                	test   %eax,%eax
    1151:	0f 84 62 01 00 00    	je     12b9 <face_desc_append+0x549>
    1157:	48 8d 15 c5 06 00 00 	lea    0x6c5(%rip),%rdx        # 1823 <naked_body_append+0x443>
    115e:	4c 89 e9             	mov    %r13,%rcx
    1161:	e8 00 00 00 00       	call   1166 <face_desc_append+0x3f6>
    1166:	85 c0                	test   %eax,%eax
    1168:	0f 84 4b 01 00 00    	je     12b9 <face_desc_append+0x549>
    116e:	48 8d 15 5c 00 00 00 	lea    0x5c(%rip),%rdx        # 11d1 <face_desc_append+0x461>
    1175:	4c 89 e9             	mov    %r13,%rcx
    1178:	e8 00 00 00 00       	call   117d <face_desc_append+0x40d>
    117d:	85 c0                	test   %eax,%eax
    117f:	0f 84 34 01 00 00    	je     12b9 <face_desc_append+0x549>
    1185:	48 8d 15 66 00 00 00 	lea    0x66(%rip),%rdx        # 11f2 <face_desc_append+0x482>
    118c:	4c 89 e9             	mov    %r13,%rcx
    118f:	e8 00 00 00 00       	call   1194 <face_desc_append+0x424>
    1194:	85 c0                	test   %eax,%eax
    1196:	0f 84 1d 01 00 00    	je     12b9 <face_desc_append+0x549>
    119c:	48 8d 15 0d 01 00 00 	lea    0x10d(%rip),%rdx        # 12b0 <face_desc_append+0x540>
    11a3:	4c 89 e9             	mov    %r13,%rcx
    11a6:	e8 00 00 00 00       	call   11ab <face_desc_append+0x43b>
    11ab:	85 c0                	test   %eax,%eax
    11ad:	74 2a                	je     11d9 <face_desc_append+0x469>
    11af:	48 8d 15 15 01 00 00 	lea    0x115(%rip),%rdx        # 12cb <face_desc_append+0x55b>
    11b6:	4c 89 e9             	mov    %r13,%rcx
    11b9:	e8 00 00 00 00       	call   11be <face_desc_append+0x44e>
    11be:	85 c0                	test   %eax,%eax
    11c0:	74 17                	je     11d9 <face_desc_append+0x469>
    11c2:	48 8d 15 1f 07 00 00 	lea    0x71f(%rip),%rdx        # 18e8 <naked_body_append+0x508>
    11c9:	4c 89 e9             	mov    %r13,%rcx
    11cc:	e8 00 00 00 00       	call   11d1 <face_desc_append+0x461>
    11d1:	85 c0                	test   %eax,%eax
    11d3:	0f 85 09 01 00 00    	jne    12e2 <face_desc_append+0x572>
    11d9:	48 8d 44 24 30       	lea    0x30(%rsp),%rax
    11de:	4c 89 74 24 28       	mov    %r14,0x28(%rsp)
    11e3:	4d 89 e0             	mov    %r12,%r8
    11e6:	48 89 ea             	mov    %rbp,%rdx
    11e9:	48 89 44 24 20       	mov    %rax,0x20(%rsp)
    11ee:	4c 8d 0d 28 07 00 00 	lea    0x728(%rip),%r9        # 191d <naked_body_append+0x53d>
    11f5:	48 89 f9             	mov    %rdi,%rcx
    11f8:	e8 03 f1 ff ff       	call   300 <d_apf>
    11fd:	e9 83 fc ff ff       	jmp    e85 <face_desc_append+0x115>
    1202:	66 0f 1f 44 00 00    	nopw   0x0(%rax,%rax,1)
    1208:	4c 8d 74 24 40       	lea    0x40(%rsp),%r14
    120d:	4d 89 f7             	mov    %r14,%r15
    1210:	e9 bf fb ff ff       	jmp    dd4 <face_desc_append+0x64>
    1215:	48 8d 44 24 30       	lea    0x30(%rsp),%rax
    121a:	4c 89 74 24 28       	mov    %r14,0x28(%rsp)
    121f:	4d 89 e0             	mov    %r12,%r8
    1222:	48 89 ea             	mov    %rbp,%rdx
    1225:	48 89 44 24 20       	mov    %rax,0x20(%rsp)
    122a:	4c 8d 0d e8 04 00 00 	lea    0x4e8(%rip),%r9        # 1719 <naked_body_append+0x339>
    1231:	48 89 f9             	mov    %rdi,%rcx
    1234:	e8 c7 f0 ff ff       	call   300 <d_apf>
    1239:	e9 47 fc ff ff       	jmp    e85 <face_desc_append+0x115>
    123e:	48 8d 44 24 30       	lea    0x30(%rsp),%rax
    1243:	4c 89 74 24 28       	mov    %r14,0x28(%rsp)
    1248:	4d 89 e0             	mov    %r12,%r8
    124b:	48 89 ea             	mov    %rbp,%rdx
    124e:	48 89 44 24 20       	mov    %rax,0x20(%rsp)
    1253:	4c 8d 0d 50 05 00 00 	lea    0x550(%rip),%r9        # 17aa <naked_body_append+0x3ca>
    125a:	48 89 f9             	mov    %rdi,%rcx
    125d:	e8 9e f0 ff ff       	call   300 <d_apf>
    1262:	e9 1e fc ff ff       	jmp    e85 <face_desc_append+0x115>
    1267:	48 8d 44 24 30       	lea    0x30(%rsp),%rax
    126c:	4c 89 74 24 28       	mov    %r14,0x28(%rsp)
    1271:	4d 89 e0             	mov    %r12,%r8
    1274:	48 89 ea             	mov    %rbp,%rdx
    1277:	48 89 44 24 20       	mov    %rax,0x20(%rsp)
    127c:	4c 8d 0d 90 05 00 00 	lea    0x590(%rip),%r9        # 1813 <naked_body_append+0x433>
    1283:	48 89 f9             	mov    %rdi,%rcx
    1286:	e8 75 f0 ff ff       	call   300 <d_apf>
    128b:	e9 f5 fb ff ff       	jmp    e85 <face_desc_append+0x115>
    1290:	48 8d 44 24 30       	lea    0x30(%rsp),%rax
    1295:	4c 89 74 24 28       	mov    %r14,0x28(%rsp)
    129a:	4d 89 e0             	mov    %r12,%r8
    129d:	48 89 ea             	mov    %rbp,%rdx
    12a0:	48 89 44 24 20       	mov    %rax,0x20(%rsp)
    12a5:	4c 8d 0d d8 05 00 00 	lea    0x5d8(%rip),%r9        # 1884 <naked_body_append+0x4a4>
    12ac:	48 89 f9             	mov    %rdi,%rcx
    12af:	e8 4c f0 ff ff       	call   300 <d_apf>
    12b4:	e9 cc fb ff ff       	jmp    e85 <face_desc_append+0x115>
    12b9:	48 8d 44 24 30       	lea    0x30(%rsp),%rax
    12be:	4c 89 74 24 28       	mov    %r14,0x28(%rsp)
    12c3:	4d 89 e0             	mov    %r12,%r8
    12c6:	48 89 ea             	mov    %rbp,%rdx
    12c9:	48 89 44 24 20       	mov    %rax,0x20(%rsp)
    12ce:	4c 8d 0d d0 06 00 00 	lea    0x6d0(%rip),%r9        # 19a5 <naked_body_append+0x5c5>
    12d5:	48 89 f9             	mov    %rdi,%rcx
    12d8:	e8 23 f0 ff ff       	call   300 <d_apf>
    12dd:	e9 a3 fb ff ff       	jmp    e85 <face_desc_append+0x115>
    12e2:	48 8d 15 70 07 00 00 	lea    0x770(%rip),%rdx        # 1a59 <naked_body_append+0x679>
    12e9:	4c 89 e9             	mov    %r13,%rcx
    12ec:	e8 00 00 00 00       	call   12f1 <face_desc_append+0x581>
    12f1:	85 c0                	test   %eax,%eax
    12f3:	74 4c                	je     1341 <face_desc_append+0x5d1>
    12f5:	48 8d 15 74 07 00 00 	lea    0x774(%rip),%rdx        # 1a70 <naked_body_append+0x690>
    12fc:	4c 89 e9             	mov    %r13,%rcx
    12ff:	e8 00 00 00 00       	call   1304 <face_desc_append+0x594>
    1304:	85 c0                	test   %eax,%eax
    1306:	74 39                	je     1341 <face_desc_append+0x5d1>
    1308:	48 8d 15 7d 07 00 00 	lea    0x77d(%rip),%rdx        # 1a8c <naked_body_append+0x6ac>
    130f:	4c 89 e9             	mov    %r13,%rcx
    1312:	e8 00 00 00 00       	call   1317 <face_desc_append+0x5a7>
    1317:	85 c0                	test   %eax,%eax
    1319:	74 26                	je     1341 <face_desc_append+0x5d1>
    131b:	48 8d 15 86 07 00 00 	lea    0x786(%rip),%rdx        # 1aa8 <naked_body_append+0x6c8>
    1322:	4c 89 e9             	mov    %r13,%rcx
    1325:	e8 00 00 00 00       	call   132a <face_desc_append+0x5ba>
    132a:	85 c0                	test   %eax,%eax
    132c:	74 13                	je     1341 <face_desc_append+0x5d1>
    132e:	48 8d 15 8f 07 00 00 	lea    0x78f(%rip),%rdx        # 1ac4 <naked_body_append+0x6e4>
    1335:	4c 89 e9             	mov    %r13,%rcx
    1338:	e8 00 00 00 00       	call   133d <face_desc_append+0x5cd>
    133d:	85 c0                	test   %eax,%eax
    133f:	75 24                	jne    1365 <face_desc_append+0x5f5>
    1341:	48 8d 44 24 30       	lea    0x30(%rsp),%rax
    1346:	4d 89 e0             	mov    %r12,%r8
    1349:	48 89 ea             	mov    %rbp,%rdx
    134c:	48 89 f9             	mov    %rdi,%rcx
    134f:	48 89 44 24 20       	mov    %rax,0x20(%rsp)
    1354:	4c 8d 0d 98 07 00 00 	lea    0x798(%rip),%r9        # 1af3 <naked_body_append+0x713>
    135b:	e8 a0 ef ff ff       	call   300 <d_apf>
    1360:	e9 20 fb ff ff       	jmp    e85 <face_desc_append+0x115>
    1365:	48 8d 44 24 30       	lea    0x30(%rsp),%rax
    136a:	4c 89 74 24 28       	mov    %r14,0x28(%rsp)
    136f:	4d 89 e0             	mov    %r12,%r8
    1372:	48 89 ea             	mov    %rbp,%rdx
    1375:	48 89 44 24 20       	mov    %rax,0x20(%rsp)
    137a:	4c 8d 0d eb 07 00 00 	lea    0x7eb(%rip),%r9        # 1b6c <naked_body_append+0x78c>
    1381:	48 89 f9             	mov    %rdi,%rcx
    1384:	e8 77 ef ff ff       	call   300 <d_apf>
    1389:	e9 f7 fa ff ff       	jmp    e85 <face_desc_append+0x115>
    138e:	48 8d 44 24 30       	lea    0x30(%rsp),%rax
    1393:	4c 89 74 24 28       	mov    %r14,0x28(%rsp)
    1398:	4d 89 e0             	mov    %r12,%r8
    139b:	48 89 ea             	mov    %rbp,%rdx
    139e:	48 89 44 24 20       	mov    %rax,0x20(%rsp)
    13a3:	4c 8d 0d 90 06 00 00 	lea    0x690(%rip),%r9        # 1a3a <naked_body_append+0x65a>
    13aa:	48 89 f9             	mov    %rdi,%rcx
    13ad:	e8 4e ef ff ff       	call   300 <d_apf>
    13b2:	e9 ce fa ff ff       	jmp    e85 <face_desc_append+0x115>
    13b7:	48 8d 44 24 30       	lea    0x30(%rsp),%rax
    13bc:	4c 89 74 24 28       	mov    %r14,0x28(%rsp)
    13c1:	4d 89 e0             	mov    %r12,%r8
    13c4:	48 89 ea             	mov    %rbp,%rdx
    13c7:	48 89 44 24 20       	mov    %rax,0x20(%rsp)
    13cc:	4c 8d 0d 38 06 00 00 	lea    0x638(%rip),%r9        # 1a0b <naked_body_append+0x62b>
    13d3:	48 89 f9             	mov    %rdi,%rcx
    13d6:	e8 25 ef ff ff       	call   300 <d_apf>
    13db:	e9 a5 fa ff ff       	jmp    e85 <face_desc_append+0x115>

00000000000013e0 <naked_body_append>:
    13e0:	41 57                	push   %r15
    13e2:	41 56                	push   %r14
    13e4:	41 55                	push   %r13
    13e6:	41 54                	push   %r12
    13e8:	55                   	push   %rbp
    13e9:	57                   	push   %rdi
    13ea:	56                   	push   %rsi
    13eb:	53                   	push   %rbx
    13ec:	48 81 ec 08 02 00 00 	sub    $0x208,%rsp
    13f3:	4c 8b a4 24 70 02 00 	mov    0x270(%rsp),%r12
    13fa:	00 
    13fb:	48 89 8c 24 50 02 00 	mov    %rcx,0x250(%rsp)
    1402:	00 
    1403:	49 8d 49 40          	lea    0x40(%r9),%rcx
    1407:	4c 89 ce             	mov    %r9,%rsi
    140a:	48 89 94 24 58 02 00 	mov    %rdx,0x258(%rsp)
    1411:	00 
    1412:	4c 89 84 24 60 02 00 	mov    %r8,0x260(%rsp)
    1419:	00 
    141a:	e8 e1 eb ff ff       	call   0 <get_skin_type>
    141f:	48 89 44 24 50       	mov    %rax,0x50(%rsp)
    1424:	80 be 50 02 00 00 00 	cmpb   $0x0,0x250(%rsi)
    142b:	0f 84 9f 05 00 00    	je     19d0 <naked_body_append+0x5f0>
    1431:	48 8d 05 07 08 00 00 	lea    0x807(%rip),%rax        # 1c3f <naked_body_append+0x85f>
    1438:	4c 8d b6 50 02 00 00 	lea    0x250(%rsi),%r14
    143f:	48 89 44 24 40       	mov    %rax,0x40(%rsp)
    1444:	48 8d 2d 07 08 00 00 	lea    0x807(%rip),%rbp        # 1c52 <naked_body_append+0x872>
    144b:	48 8d 96 60 02 00 00 	lea    0x260(%rsi),%rdx
    1452:	80 be 60 02 00 00 00 	cmpb   $0x0,0x260(%rsi)
    1459:	48 89 e8             	mov    %rbp,%rax
    145c:	48 0f 45 ea          	cmovne %rdx,%rbp
    1460:	80 be 80 02 00 00 00 	cmpb   $0x0,0x280(%rsi)
    1467:	48 8d 96 80 02 00 00 	lea    0x280(%rsi),%rdx
    146e:	48 0f 44 d0          	cmove  %rax,%rdx
    1472:	80 be 70 02 00 00 00 	cmpb   $0x0,0x270(%rsi)
    1479:	48 89 54 24 48       	mov    %rdx,0x48(%rsp)
    147e:	48 8d 96 70 02 00 00 	lea    0x270(%rsi),%rdx
    1485:	48 0f 45 c2          	cmovne %rdx,%rax
    1489:	48 89 44 24 58       	mov    %rax,0x58(%rsp)
    148e:	0f b6 86 10 01 00 00 	movzbl 0x110(%rsi),%eax
    1495:	84 c0                	test   %al,%al
    1497:	74 43                	je     14dc <naked_body_append+0xfc>
    1499:	48 8b 1d 00 00 00 00 	mov    0x0(%rip),%rbx        # 14a0 <naked_body_append+0xc0>
    14a0:	4c 8d bc 24 90 00 00 	lea    0x90(%rsp),%r15
    14a7:	00 
    14a8:	48 8d be 11 01 00 00 	lea    0x111(%rsi),%rdi
    14af:	4c 8d ac 24 af 00 00 	lea    0xaf(%rsp),%r13
    14b6:	00 
    14b7:	66 0f 1f 84 00 00 00 	nopw   0x0(%rax,%rax,1)
    14be:	00 00 
    14c0:	0f b6 c8             	movzbl %al,%ecx
    14c3:	ff d3                	call   *%rbx
    14c5:	41 88 07             	mov    %al,(%r15)
    14c8:	0f b6 07             	movzbl (%rdi),%eax
    14cb:	84 c0                	test   %al,%al
    14cd:	74 0d                	je     14dc <naked_body_append+0xfc>
    14cf:	49 83 c7 01          	add    $0x1,%r15
    14d3:	48 83 c7 01          	add    $0x1,%rdi
    14d7:	4d 39 fd             	cmp    %r15,%r13
    14da:	75 e4                	jne    14c0 <naked_body_append+0xe0>
    14dc:	49 8b 1c 24          	mov    (%r12),%rbx
    14e0:	48 85 db             	test   %rbx,%rbx
    14e3:	74 0b                	je     14f0 <naked_body_append+0x110>
    14e5:	0f b6 0b             	movzbl (%rbx),%ecx
    14e8:	84 c9                	test   %cl,%cl
    14ea:	0f 85 30 05 00 00    	jne    1a20 <naked_body_append+0x640>
    14f0:	c6 44 24 70 00       	movb   $0x0,0x70(%rsp)
    14f5:	49 8b 5c 24 10       	mov    0x10(%r12),%rbx
    14fa:	48 85 db             	test   %rbx,%rbx
    14fd:	74 0b                	je     150a <naked_body_append+0x12a>
    14ff:	0f b6 0b             	movzbl (%rbx),%ecx
    1502:	84 c9                	test   %cl,%cl
    1504:	0f 85 de 04 00 00    	jne    19e8 <naked_body_append+0x608>
    150a:	c6 84 24 80 00 00 00 	movb   $0x0,0x80(%rsp)
    1511:	00 
    1512:	48 89 5c 24 30       	mov    %rbx,0x30(%rsp)
    1517:	49 8b 44 24 18       	mov    0x18(%r12),%rax
    151c:	4c 8d 0d 38 0a 00 00 	lea    0xa38(%rip),%r9        # 1f5b <aet_describe_pc+0x1db>
    1523:	48 8b 94 24 58 02 00 	mov    0x258(%rsp),%rdx
    152a:	00 
    152b:	48 8b 8c 24 50 02 00 	mov    0x250(%rsp),%rcx
    1532:	00 
    1533:	48 89 44 24 28       	mov    %rax,0x28(%rsp)
    1538:	48 8d 44 24 70       	lea    0x70(%rsp),%rax
    153d:	4c 8b 84 24 60 02 00 	mov    0x260(%rsp),%r8
    1544:	00 
    1545:	48 89 44 24 20       	mov    %rax,0x20(%rsp)
    154a:	e8 b1 ed ff ff       	call   300 <d_apf>
    154f:	48 8b 54 24 40       	mov    0x40(%rsp),%rdx
    1554:	4c 89 f1             	mov    %r14,%rcx
    1557:	e8 00 00 00 00       	call   155c <naked_body_append+0x17c>
    155c:	85 c0                	test   %eax,%eax
    155e:	0f 84 9c 05 00 00    	je     1b00 <naked_body_append+0x720>
    1564:	48 8d 15 68 0a 00 00 	lea    0xa68(%rip),%rdx        # 1fd3 <aet_describe_pc+0x253>
    156b:	4c 89 f1             	mov    %r14,%rcx
    156e:	4c 8d 3d 21 08 00 00 	lea    0x821(%rip),%r15        # 1d96 <aet_describe_pc+0x16>
    1575:	e8 00 00 00 00       	call   157a <naked_body_append+0x19a>
    157a:	85 c0                	test   %eax,%eax
    157c:	0f 85 ce 04 00 00    	jne    1a50 <naked_body_append+0x670>
    1582:	41 0f b6 06          	movzbl (%r14),%eax
    1586:	c6 84 24 00 01 00 00 	movb   $0x0,0x100(%rsp)
    158d:	00 
    158e:	c6 84 24 60 01 00 00 	movb   $0x0,0x160(%rsp)
    1595:	00 
    1596:	84 c0                	test   %al,%al
    1598:	0f 84 bb 07 00 00    	je     1d59 <naked_body_append+0x979>
    159e:	48 8d bc 24 b0 00 00 	lea    0xb0(%rsp),%rdi
    15a5:	00 
    15a6:	48 8b 1d 00 00 00 00 	mov    0x0(%rip),%rbx        # 15ad <naked_body_append+0x1cd>
    15ad:	41 bd 01 00 00 00    	mov    $0x1,%r13d
    15b3:	48 89 7c 24 60       	mov    %rdi,0x60(%rsp)
    15b8:	0f 1f 84 00 00 00 00 	nopl   0x0(%rax,%rax,1)
    15bf:	00 
    15c0:	0f b6 c8             	movzbl %al,%ecx
    15c3:	ff d3                	call   *%rbx
    15c5:	42 88 84 2c af 00 00 	mov    %al,0xaf(%rsp,%r13,1)
    15cc:	00 
    15cd:	43 0f b6 04 2e       	movzbl (%r14,%r13,1),%eax
    15d2:	84 c0                	test   %al,%al
    15d4:	0f 84 66 05 00 00    	je     1b40 <naked_body_append+0x760>
    15da:	49 83 c5 01          	add    $0x1,%r13
    15de:	49 83 fd 20          	cmp    $0x20,%r13
    15e2:	75 dc                	jne    15c0 <naked_body_append+0x1e0>
    15e4:	4c 8d ac 24 cf 00 00 	lea    0xcf(%rsp),%r13
    15eb:	00 
    15ec:	41 c6 45 00 00       	movb   $0x0,0x0(%r13)
    15f1:	44 0f b6 ae 90 02 00 	movzbl 0x290(%rsi),%r13d
    15f8:	00 
    15f9:	45 84 ed             	test   %r13b,%r13b
    15fc:	74 1b                	je     1619 <naked_body_append+0x239>
    15fe:	48 8d 8e 90 02 00 00 	lea    0x290(%rsi),%rcx
    1605:	48 8d 15 8e 0a 00 00 	lea    0xa8e(%rip),%rdx        # 209a <aet_describe_pc+0x31a>
    160c:	e8 00 00 00 00       	call   1611 <naked_body_append+0x231>
    1611:	85 c0                	test   %eax,%eax
    1613:	0f 85 97 06 00 00    	jne    1cb0 <naked_body_append+0x8d0>
    1619:	48 b8 20 77 69 74 68 	movabs $0x7270206874697720,%rax
    1620:	20 70 72 
    1623:	48 ba 6f 6d 69 6e 65 	movabs $0x20746e656e696d6f,%rdx
    162a:	6e 74 20 
    162d:	48 c7 84 24 48 01 00 	movq   $0x0,0x148(%rsp)
    1634:	00 00 00 00 00 
    1639:	4c 8d 94 24 00 01 00 	lea    0x100(%rsp),%r10
    1640:	00 
    1641:	48 89 84 24 00 01 00 	mov    %rax,0x100(%rsp)
    1648:	00 
    1649:	48 b8 6e 69 70 70 6c 	movabs $0x73656c7070696e,%rax
    1650:	65 73 00 
    1653:	48 89 94 24 08 01 00 	mov    %rdx,0x108(%rsp)
    165a:	00 
    165b:	31 d2                	xor    %edx,%edx
    165d:	48 89 84 24 10 01 00 	mov    %rax,0x110(%rsp)
    1664:	00 
    1665:	48 89 94 24 18 01 00 	mov    %rdx,0x118(%rsp)
    166c:	00 
    166d:	48 c7 84 24 20 01 00 	movq   $0x0,0x120(%rsp)
    1674:	00 00 00 00 00 
    1679:	48 c7 84 24 28 01 00 	movq   $0x0,0x128(%rsp)
    1680:	00 00 00 00 00 
    1685:	48 c7 84 24 30 01 00 	movq   $0x0,0x130(%rsp)
    168c:	00 00 00 00 00 
    1691:	48 c7 84 24 38 01 00 	movq   $0x0,0x138(%rsp)
    1698:	00 00 00 00 00 
    169d:	48 c7 84 24 40 01 00 	movq   $0x0,0x140(%rsp)
    16a4:	00 00 00 00 00 
    16a9:	48 c7 84 24 4f 01 00 	movq   $0x0,0x14f(%rsp)
    16b0:	00 00 00 00 00 
    16b5:	48 c7 84 24 57 01 00 	movq   $0x0,0x157(%rsp)
    16bc:	00 00 00 00 00 
    16c1:	8b 86 a0 02 00 00    	mov    0x2a0(%rsi),%eax
    16c7:	c6 84 24 5f 01 00 00 	movb   $0x0,0x15f(%rsp)
    16ce:	00 
    16cf:	4c 8d ac 24 60 01 00 	lea    0x160(%rsp),%r13
    16d6:	00 
    16d7:	85 c0                	test   %eax,%eax
    16d9:	7e 53                	jle    172e <naked_body_append+0x34e>
    16db:	49 8b 4c 24 18       	mov    0x18(%r12),%rcx
    16e0:	48 8d 1d ec 08 00 00 	lea    0x8ec(%rip),%rbx        # 1fd3 <aet_describe_pc+0x253>
    16e7:	4c 89 54 24 68       	mov    %r10,0x68(%rsp)
    16ec:	48 89 da             	mov    %rbx,%rdx
    16ef:	e8 00 00 00 00       	call   16f4 <naked_body_append+0x314>
    16f4:	4c 8d 05 a8 0a 00 00 	lea    0xaa8(%rip),%r8        # 21a3 <aet_describe_pc+0x423>
    16fb:	ba a0 00 00 00       	mov    $0xa0,%edx
    1700:	4c 89 e9             	mov    %r13,%rcx
    1703:	85 c0                	test   %eax,%eax
    1705:	48 8d 05 f0 08 00 00 	lea    0x8f0(%rip),%rax        # 1ffc <aet_describe_pc+0x27c>
    170c:	48 0f 44 c3          	cmove  %rbx,%rax
    1710:	48 89 44 24 28       	mov    %rax,0x28(%rsp)
    1715:	48 8b 44 24 60       	mov    0x60(%rsp),%rax
    171a:	48 89 44 24 20       	mov    %rax,0x20(%rsp)
    171f:	4d 8b 4c 24 10       	mov    0x10(%r12),%r9
    1724:	e8 00 00 00 00       	call   1729 <naked_body_append+0x349>
    1729:	4c 8b 54 24 68       	mov    0x68(%rsp),%r10
    172e:	4c 8d b4 24 80 00 00 	lea    0x80(%rsp),%r14
    1735:	00 
    1736:	4c 89 6c 24 38       	mov    %r13,0x38(%rsp)
    173b:	4c 8b 84 24 60 02 00 	mov    0x260(%rsp),%r8
    1742:	00 
    1743:	4c 8d 0d cd 0a 00 00 	lea    0xacd(%rip),%r9        # 2217 <aet_describe_pc+0x497>
    174a:	4c 89 54 24 30       	mov    %r10,0x30(%rsp)
    174f:	48 8b 94 24 58 02 00 	mov    0x258(%rsp),%rdx
    1756:	00 
    1757:	4c 89 7c 24 28       	mov    %r15,0x28(%rsp)
    175c:	48 8b 8c 24 50 02 00 	mov    0x250(%rsp),%rcx
    1763:	00 
    1764:	4c 89 74 24 20       	mov    %r14,0x20(%rsp)
    1769:	e8 92 eb ff ff       	call   300 <d_apf>
    176e:	48 8b 54 24 40       	mov    0x40(%rsp),%rdx
    1773:	48 89 e9             	mov    %rbp,%rcx
    1776:	e8 00 00 00 00       	call   177b <naked_body_append+0x39b>
    177b:	85 c0                	test   %eax,%eax
    177d:	0f 84 ba 00 00 00    	je     183d <naked_body_append+0x45d>
    1783:	48 8d 15 68 0a 00 00 	lea    0xa68(%rip),%rdx        # 21f2 <aet_describe_pc+0x472>
    178a:	48 89 e9             	mov    %rbp,%rcx
    178d:	48 8d 3d 0a 09 00 00 	lea    0x90a(%rip),%rdi        # 209e <aet_describe_pc+0x31e>
    1794:	e8 00 00 00 00       	call   1799 <naked_body_append+0x3b9>
    1799:	85 c0                	test   %eax,%eax
    179b:	74 1e                	je     17bb <naked_body_append+0x3db>
    179d:	48 8d 15 6d 0a 00 00 	lea    0xa6d(%rip),%rdx        # 2211 <aet_describe_pc+0x491>
    17a4:	48 89 e9             	mov    %rbp,%rcx
    17a7:	48 8d 3d f3 08 00 00 	lea    0x8f3(%rip),%rdi        # 20a1 <aet_describe_pc+0x321>
    17ae:	e8 00 00 00 00       	call   17b3 <naked_body_append+0x3d3>
    17b3:	85 c0                	test   %eax,%eax
    17b5:	0f 85 d4 03 00 00    	jne    1b8f <naked_body_append+0x7af>
    17bb:	48 8b 54 24 40       	mov    0x40(%rsp),%rdx
    17c0:	48 8b 4c 24 58       	mov    0x58(%rsp),%rcx
    17c5:	c6 84 24 60 01 00 00 	movb   $0x0,0x160(%rsp)
    17cc:	00 
    17cd:	e8 00 00 00 00       	call   17d2 <naked_body_append+0x3f2>
    17d2:	85 c0                	test   %eax,%eax
    17d4:	0f 85 36 04 00 00    	jne    1c10 <naked_body_append+0x830>
    17da:	8b 96 a4 02 00 00    	mov    0x2a4(%rsi),%edx
    17e0:	48 8d 05 90 09 00 00 	lea    0x990(%rip),%rax        # 2177 <aet_describe_pc+0x3f7>
    17e7:	83 fa 32             	cmp    $0x32,%edx
    17ea:	7f 14                	jg     1800 <naked_body_append+0x420>
    17ec:	85 d2                	test   %edx,%edx
    17ee:	48 8d 05 05 02 00 00 	lea    0x205(%rip),%rax        # 19fa <naked_body_append+0x61a>
    17f5:	48 8d 15 b6 09 00 00 	lea    0x9b6(%rip),%rdx        # 21b2 <aet_describe_pc+0x432>
    17fc:	48 0f 4f c2          	cmovg  %rdx,%rax
    1800:	48 89 44 24 38       	mov    %rax,0x38(%rsp)
    1805:	4c 8b 84 24 60 02 00 	mov    0x260(%rsp),%r8
    180c:	00 
    180d:	4c 8d 0d 40 0b 00 00 	lea    0xb40(%rip),%r9        # 2354 <aet_describe_pc+0x5d4>
    1814:	4c 89 6c 24 30       	mov    %r13,0x30(%rsp)
    1819:	48 8b 94 24 58 02 00 	mov    0x258(%rsp),%rdx
    1820:	00 
    1821:	48 89 7c 24 28       	mov    %rdi,0x28(%rsp)
    1826:	49 8b 44 24 10       	mov    0x10(%r12),%rax
    182b:	48 8b 8c 24 50 02 00 	mov    0x250(%rsp),%rcx
    1832:	00 
    1833:	48 89 44 24 20       	mov    %rax,0x20(%rsp)
    1838:	e8 c3 ea ff ff       	call   300 <d_apf>
    183d:	48 8b 54 24 40       	mov    0x40(%rsp),%rdx
    1842:	48 8b 4c 24 48       	mov    0x48(%rsp),%rcx
    1847:	e8 00 00 00 00       	call   184c <naked_body_append+0x46c>
    184c:	85 c0                	test   %eax,%eax
    184e:	74 74                	je     18c4 <naked_body_append+0x4e4>
    1850:	48 8b 4c 24 48       	mov    0x48(%rsp),%rcx
    1855:	48 8d 15 5f 0b 00 00 	lea    0xb5f(%rip),%rdx        # 23bb <aet_describe_pc+0x63b>
    185c:	e8 00 00 00 00       	call   1861 <naked_body_append+0x481>
    1861:	85 c0                	test   %eax,%eax
    1863:	48 8d 05 e7 09 00 00 	lea    0x9e7(%rip),%rax        # 2251 <aet_describe_pc+0x4d1>
    186a:	74 20                	je     188c <naked_body_append+0x4ac>
    186c:	48 8b 4c 24 48       	mov    0x48(%rsp),%rcx
    1871:	48 8d 15 73 0a 00 00 	lea    0xa73(%rip),%rdx        # 22eb <aet_describe_pc+0x56b>
    1878:	e8 00 00 00 00       	call   187d <naked_body_append+0x49d>
    187d:	85 c0                	test   %eax,%eax
    187f:	48 8d 05 d3 09 00 00 	lea    0x9d3(%rip),%rax        # 2259 <aet_describe_pc+0x4d9>
    1886:	0f 85 be 02 00 00    	jne    1b4a <naked_body_append+0x76a>
    188c:	49 8b 54 24 10       	mov    0x10(%r12),%rdx
    1891:	48 89 44 24 28       	mov    %rax,0x28(%rsp)
    1896:	4c 8d 0d 78 0b 00 00 	lea    0xb78(%rip),%r9        # 2415 <aet_describe_pc+0x695>
    189d:	4c 89 74 24 20       	mov    %r14,0x20(%rsp)
    18a2:	4c 8b 84 24 60 02 00 	mov    0x260(%rsp),%r8
    18a9:	00 
    18aa:	48 89 54 24 30       	mov    %rdx,0x30(%rsp)
    18af:	48 8b 8c 24 50 02 00 	mov    0x250(%rsp),%rcx
    18b6:	00 
    18b7:	48 8b 94 24 58 02 00 	mov    0x258(%rsp),%rdx
    18be:	00 
    18bf:	e8 3c ea ff ff       	call   300 <d_apf>
    18c4:	80 7d 00 00          	cmpb   $0x0,0x0(%rbp)
    18c8:	74 11                	je     18db <naked_body_append+0x4fb>
    18ca:	48 8b 54 24 40       	mov    0x40(%rsp),%rdx
    18cf:	48 89 e9             	mov    %rbp,%rcx
    18d2:	e8 00 00 00 00       	call   18d7 <naked_body_append+0x4f7>
    18d7:	85 c0                	test   %eax,%eax
    18d9:	75 44                	jne    191f <naked_body_append+0x53f>
    18db:	48 8b 44 24 48       	mov    0x48(%rsp),%rax
    18e0:	80 38 00             	cmpb   $0x0,(%rax)
    18e3:	74 11                	je     18f6 <naked_body_append+0x516>
    18e5:	48 8b 54 24 40       	mov    0x40(%rsp),%rdx
    18ea:	48 89 c1             	mov    %rax,%rcx
    18ed:	e8 00 00 00 00       	call   18f2 <naked_body_append+0x512>
    18f2:	85 c0                	test   %eax,%eax
    18f4:	75 29                	jne    191f <naked_body_append+0x53f>
    18f6:	4c 89 74 24 20       	mov    %r14,0x20(%rsp)
    18fb:	4c 8b 84 24 60 02 00 	mov    0x260(%rsp),%r8
    1902:	00 
    1903:	4c 8d 0d c0 0b 00 00 	lea    0xbc0(%rip),%r9        # 24ca <aet_describe_pc+0x74a>
    190a:	48 8b 94 24 58 02 00 	mov    0x258(%rsp),%rdx
    1911:	00 
    1912:	48 8b 8c 24 50 02 00 	mov    0x250(%rsp),%rcx
    1919:	00 
    191a:	e8 e1 e9 ff ff       	call   300 <d_apf>
    191f:	0f b6 86 10 01 00 00 	movzbl 0x110(%rsi),%eax
    1926:	84 c0                	test   %al,%al
    1928:	0f 84 23 04 00 00    	je     1d51 <naked_body_append+0x971>
    192e:	48 8b 1d 00 00 00 00 	mov    0x0(%rip),%rbx        # 1935 <naked_body_append+0x555>
    1935:	bd 01 00 00 00       	mov    $0x1,%ebp
    193a:	66 0f 1f 44 00 00    	nopw   0x0(%rax,%rax,1)
    1940:	0f b6 c8             	movzbl %al,%ecx
    1943:	ff d3                	call   *%rbx
    1945:	88 84 2c 5f 01 00 00 	mov    %al,0x15f(%rsp,%rbp,1)
    194c:	0f b6 84 2e 10 01 00 	movzbl 0x110(%rsi,%rbp,1),%eax
    1953:	00 
    1954:	84 c0                	test   %al,%al
    1956:	0f 84 94 01 00 00    	je     1af0 <naked_body_append+0x710>
    195c:	48 83 c5 01          	add    $0x1,%rbp
    1960:	48 83 fd 20          	cmp    $0x20,%rbp
    1964:	75 da                	jne    1940 <naked_body_append+0x560>
    1966:	48 8d ac 24 7f 01 00 	lea    0x17f(%rsp),%rbp
    196d:	00 
    196e:	c6 45 00 00          	movb   $0x0,0x0(%rbp)
    1972:	4c 8b 84 24 60 02 00 	mov    0x260(%rsp),%r8
    1979:	00 
    197a:	4c 8d 0d 08 0c 00 00 	lea    0xc08(%rip),%r9        # 2589 <aet_describe_pc+0x809>
    1981:	4c 89 6c 24 38       	mov    %r13,0x38(%rsp)
    1986:	49 8b 44 24 10       	mov    0x10(%r12),%rax
    198b:	4c 89 74 24 20       	mov    %r14,0x20(%rsp)
    1990:	48 8b 94 24 58 02 00 	mov    0x258(%rsp),%rdx
    1997:	00 
    1998:	48 89 44 24 30       	mov    %rax,0x30(%rsp)
    199d:	48 8b 44 24 50       	mov    0x50(%rsp),%rax
    19a2:	48 8b 8c 24 50 02 00 	mov    0x250(%rsp),%rcx
    19a9:	00 
    19aa:	48 89 44 24 28       	mov    %rax,0x28(%rsp)
    19af:	e8 4c e9 ff ff       	call   300 <d_apf>
    19b4:	90                   	nop
    19b5:	48 81 c4 08 02 00 00 	add    $0x208,%rsp
    19bc:	5b                   	pop    %rbx
    19bd:	5e                   	pop    %rsi
    19be:	5f                   	pop    %rdi
    19bf:	5d                   	pop    %rbp
    19c0:	41 5c                	pop    %r12
    19c2:	41 5d                	pop    %r13
    19c4:	41 5e                	pop    %r14
    19c6:	41 5f                	pop    %r15
    19c8:	c3                   	ret
    19c9:	0f 1f 80 00 00 00 00 	nopl   0x0(%rax)
    19d0:	48 8d 05 07 08 00 00 	lea    0x807(%rip),%rax        # 21de <aet_describe_pc+0x45e>
    19d7:	48 89 44 24 40       	mov    %rax,0x40(%rsp)
    19dc:	49 89 c6             	mov    %rax,%r14
    19df:	e9 60 fa ff ff       	jmp    1444 <naked_body_append+0x64>
    19e4:	0f 1f 40 00          	nopl   0x0(%rax)
    19e8:	ff 15 00 00 00 00    	call   *0x0(%rip)        # 19ee <naked_body_append+0x60e>
    19ee:	48 8d 53 01          	lea    0x1(%rbx),%rdx
    19f2:	48 8d 8c 24 81 00 00 	lea    0x81(%rsp),%rcx
    19f9:	00 
    19fa:	41 b8 0e 00 00 00    	mov    $0xe,%r8d
    1a00:	88 84 24 80 00 00 00 	mov    %al,0x80(%rsp)
    1a07:	e8 00 00 00 00       	call   1a0c <naked_body_append+0x62c>
    1a0c:	c6 84 24 8f 00 00 00 	movb   $0x0,0x8f(%rsp)
    1a13:	00 
    1a14:	e9 f9 fa ff ff       	jmp    1512 <naked_body_append+0x132>
    1a19:	0f 1f 80 00 00 00 00 	nopl   0x0(%rax)
    1a20:	ff 15 00 00 00 00    	call   *0x0(%rip)        # 1a26 <naked_body_append+0x646>
    1a26:	48 8d 53 01          	lea    0x1(%rbx),%rdx
    1a2a:	48 8d 4c 24 71       	lea    0x71(%rsp),%rcx
    1a2f:	41 b8 0e 00 00 00    	mov    $0xe,%r8d
    1a35:	88 44 24 70          	mov    %al,0x70(%rsp)
    1a39:	e8 00 00 00 00       	call   1a3e <naked_body_append+0x65e>
    1a3e:	c6 44 24 7f 00       	movb   $0x0,0x7f(%rsp)
    1a43:	e9 ad fa ff ff       	jmp    14f5 <naked_body_append+0x115>
    1a48:	0f 1f 84 00 00 00 00 	nopl   0x0(%rax,%rax,1)
    1a4f:	00 
    1a50:	48 8d 15 6d 0a 00 00 	lea    0xa6d(%rip),%rdx        # 24c4 <aet_describe_pc+0x744>
    1a57:	4c 89 f1             	mov    %r14,%rcx
    1a5a:	4c 8d 3d 0c 08 00 00 	lea    0x80c(%rip),%r15        # 226d <aet_describe_pc+0x4ed>
    1a61:	e8 00 00 00 00       	call   1a66 <naked_body_append+0x686>
    1a66:	85 c0                	test   %eax,%eax
    1a68:	0f 84 14 fb ff ff    	je     1582 <naked_body_append+0x1a2>
    1a6e:	48 8d 15 73 0a 00 00 	lea    0xa73(%rip),%rdx        # 24e8 <aet_describe_pc+0x768>
    1a75:	4c 89 f1             	mov    %r14,%rcx
    1a78:	4c 8d 3d 3b 08 00 00 	lea    0x83b(%rip),%r15        # 22ba <aet_describe_pc+0x53a>
    1a7f:	e8 00 00 00 00       	call   1a84 <naked_body_append+0x6a4>
    1a84:	85 c0                	test   %eax,%eax
    1a86:	0f 84 f6 fa ff ff    	je     1582 <naked_body_append+0x1a2>
    1a8c:	48 8d 15 7b 0a 00 00 	lea    0xa7b(%rip),%rdx        # 250e <aet_describe_pc+0x78e>
    1a93:	4c 89 f1             	mov    %r14,%rcx
    1a96:	4c 8d 3d c0 08 00 00 	lea    0x8c0(%rip),%r15        # 235d <aet_describe_pc+0x5dd>
    1a9d:	e8 00 00 00 00       	call   1aa2 <naked_body_append+0x6c2>
    1aa2:	85 c0                	test   %eax,%eax
    1aa4:	0f 84 d8 fa ff ff    	je     1582 <naked_body_append+0x1a2>
    1aaa:	48 8d 15 81 0a 00 00 	lea    0xa81(%rip),%rdx        # 2532 <aet_describe_pc+0x7b2>
    1ab1:	4c 89 f1             	mov    %r14,%rcx
    1ab4:	4c 8d 3d 58 08 00 00 	lea    0x858(%rip),%r15        # 2313 <aet_describe_pc+0x593>
    1abb:	e8 00 00 00 00       	call   1ac0 <naked_body_append+0x6e0>
    1ac0:	85 c0                	test   %eax,%eax
    1ac2:	0f 84 ba fa ff ff    	je     1582 <naked_body_append+0x1a2>
    1ac8:	48 8d 15 86 0a 00 00 	lea    0xa86(%rip),%rdx        # 2555 <aet_describe_pc+0x7d5>
    1acf:	4c 89 f1             	mov    %r14,%rcx
    1ad2:	e8 00 00 00 00       	call   1ad7 <naked_body_append+0x6f7>
    1ad7:	85 c0                	test   %eax,%eax
    1ad9:	48 8d 05 88 08 00 00 	lea    0x888(%rip),%rax        # 2368 <aet_describe_pc+0x5e8>
    1ae0:	49 0f 45 c6          	cmovne %r14,%rax
    1ae4:	49 89 c7             	mov    %rax,%r15
    1ae7:	e9 96 fa ff ff       	jmp    1582 <naked_body_append+0x1a2>
    1aec:	0f 1f 40 00          	nopl   0x0(%rax)
    1af0:	4c 01 ed             	add    %r13,%rbp
    1af3:	e9 76 fe ff ff       	jmp    196e <naked_body_append+0x58e>
    1af8:	0f 1f 84 00 00 00 00 	nopl   0x0(%rax,%rax,1)
    1aff:	00 
    1b00:	4c 8d b4 24 80 00 00 	lea    0x80(%rsp),%r14
    1b07:	00 
    1b08:	4c 8b 84 24 60 02 00 	mov    0x260(%rsp),%r8
    1b0f:	00 
    1b10:	48 8b 94 24 58 02 00 	mov    0x258(%rsp),%rdx
    1b17:	00 
    1b18:	4c 8d 0d e8 0a 00 00 	lea    0xae8(%rip),%r9        # 2607 <aet_describe_pc+0x887>
    1b1f:	4c 89 74 24 20       	mov    %r14,0x20(%rsp)
    1b24:	48 8b 8c 24 50 02 00 	mov    0x250(%rsp),%rcx
    1b2b:	00 
    1b2c:	4c 8d ac 24 60 01 00 	lea    0x160(%rsp),%r13
    1b33:	00 
    1b34:	e8 c7 e7 ff ff       	call   300 <d_apf>
    1b39:	e9 30 fc ff ff       	jmp    176e <naked_body_append+0x38e>
    1b3e:	66 90                	xchg   %ax,%ax
    1b40:	4c 03 6c 24 60       	add    0x60(%rsp),%r13
    1b45:	e9 a2 fa ff ff       	jmp    15ec <naked_body_append+0x20c>
    1b4a:	48 8b 4c 24 48       	mov    0x48(%rsp),%rcx
    1b4f:	48 8d 15 65 0b 00 00 	lea    0xb65(%rip),%rdx        # 26bb <aet_describe_pc+0x93b>
    1b56:	e8 00 00 00 00       	call   1b5b <naked_body_append+0x77b>
    1b5b:	85 c0                	test   %eax,%eax
    1b5d:	48 8d 05 ff 09 00 00 	lea    0x9ff(%rip),%rax        # 2563 <aet_describe_pc+0x7e3>
    1b64:	0f 84 22 fd ff ff    	je     188c <naked_body_append+0x4ac>
    1b6a:	48 8b 4c 24 48       	mov    0x48(%rsp),%rcx
    1b6f:	48 8d 15 6b 0b 00 00 	lea    0xb6b(%rip),%rdx        # 26e1 <aet_describe_pc+0x961>
    1b76:	e8 00 00 00 00       	call   1b7b <naked_body_append+0x79b>
    1b7b:	85 c0                	test   %eax,%eax
    1b7d:	48 8d 05 18 0a 00 00 	lea    0xa18(%rip),%rax        # 259c <aet_describe_pc+0x81c>
    1b84:	48 0f 45 44 24 48    	cmovne 0x48(%rsp),%rax
    1b8a:	e9 fd fc ff ff       	jmp    188c <naked_body_append+0x4ac>
    1b8f:	48 8d 15 73 0a 00 00 	lea    0xa73(%rip),%rdx        # 2609 <aet_describe_pc+0x889>
    1b96:	48 89 e9             	mov    %rbp,%rcx
    1b99:	48 8d 3d 25 09 00 00 	lea    0x925(%rip),%rdi        # 24c5 <aet_describe_pc+0x745>
    1ba0:	e8 00 00 00 00       	call   1ba5 <naked_body_append+0x7c5>
    1ba5:	85 c0                	test   %eax,%eax
    1ba7:	0f 84 0e fc ff ff    	je     17bb <naked_body_append+0x3db>
    1bad:	48 8d 15 7b 0a 00 00 	lea    0xa7b(%rip),%rdx        # 262f <aet_describe_pc+0x8af>
    1bb4:	48 89 e9             	mov    %rbp,%rcx
    1bb7:	48 8d 3d 75 09 00 00 	lea    0x975(%rip),%rdi        # 2533 <aet_describe_pc+0x7b3>
    1bbe:	e8 00 00 00 00       	call   1bc3 <naked_body_append+0x7e3>
    1bc3:	85 c0                	test   %eax,%eax
    1bc5:	0f 84 f0 fb ff ff    	je     17bb <naked_body_append+0x3db>
    1bcb:	48 8d 15 81 0a 00 00 	lea    0xa81(%rip),%rdx        # 2653 <aet_describe_pc+0x8d3>
    1bd2:	48 89 e9             	mov    %rbp,%rcx
    1bd5:	48 8d 3d 3e 09 00 00 	lea    0x93e(%rip),%rdi        # 251a <aet_describe_pc+0x79a>
    1bdc:	e8 00 00 00 00       	call   1be1 <naked_body_append+0x801>
    1be1:	85 c0                	test   %eax,%eax
    1be3:	0f 84 d2 fb ff ff    	je     17bb <naked_body_append+0x3db>
    1be9:	48 8d 15 86 0a 00 00 	lea    0xa86(%rip),%rdx        # 2676 <aet_describe_pc+0x8f6>
    1bf0:	48 89 e9             	mov    %rbp,%rcx
    1bf3:	48 8d 3d 58 09 00 00 	lea    0x958(%rip),%rdi        # 2552 <aet_describe_pc+0x7d2>
    1bfa:	e8 00 00 00 00       	call   1bff <naked_body_append+0x81f>
    1bff:	85 c0                	test   %eax,%eax
    1c01:	48 0f 45 fd          	cmovne %rbp,%rdi
    1c05:	e9 b1 fb ff ff       	jmp    17bb <naked_body_append+0x3db>
    1c0a:	66 0f 1f 44 00 00    	nopw   0x0(%rax,%rax,1)
    1c10:	48 8b 54 24 58       	mov    0x58(%rsp),%rdx
    1c15:	4c 8d 94 24 00 01 00 	lea    0x100(%rsp),%r10
    1c1c:	00 
    1c1d:	0f b6 02             	movzbl (%rdx),%eax
    1c20:	84 c0                	test   %al,%al
    1c22:	0f 84 46 01 00 00    	je     1d6e <naked_body_append+0x98e>
    1c28:	4c 89 54 24 58       	mov    %r10,0x58(%rsp)
    1c2d:	4c 8b 3d 00 00 00 00 	mov    0x0(%rip),%r15        # 1c34 <naked_body_append+0x854>
    1c34:	48 89 d3             	mov    %rdx,%rbx
    1c37:	48 89 b4 24 68 02 00 	mov    %rsi,0x268(%rsp)
    1c3e:	00 
    1c3f:	be 01 00 00 00       	mov    $0x1,%esi
    1c44:	90                   	nop
    1c45:	66 66 2e 0f 1f 84 00 	data16 cs nopw 0x0(%rax,%rax,1)
    1c4c:	00 00 00 00 
    1c50:	0f b6 c8             	movzbl %al,%ecx
    1c53:	41 ff d7             	call   *%r15
    1c56:	88 84 34 ff 00 00 00 	mov    %al,0xff(%rsp,%rsi,1)
    1c5d:	0f b6 04 33          	movzbl (%rbx,%rsi,1),%eax
    1c61:	84 c0                	test   %al,%al
    1c63:	0f 84 c7 00 00 00    	je     1d30 <naked_body_append+0x950>
    1c69:	48 83 c6 01          	add    $0x1,%rsi
    1c6d:	48 83 fe 20          	cmp    $0x20,%rsi
    1c71:	75 dd                	jne    1c50 <naked_body_append+0x870>
    1c73:	48 8b b4 24 68 02 00 	mov    0x268(%rsp),%rsi
    1c7a:	00 
    1c7b:	4c 8b 54 24 58       	mov    0x58(%rsp),%r10
    1c80:	48 8d 94 24 1f 01 00 	lea    0x11f(%rsp),%rdx
    1c87:	00 
    1c88:	c6 02 00             	movb   $0x0,(%rdx)
    1c8b:	4d 89 d1             	mov    %r10,%r9
    1c8e:	4c 8d 05 1f 0b 00 00 	lea    0xb1f(%rip),%r8        # 27b4 <aet_describe_pc+0xa34>
    1c95:	4c 89 e9             	mov    %r13,%rcx
    1c98:	ba 60 00 00 00       	mov    $0x60,%edx
    1c9d:	e8 00 00 00 00       	call   1ca2 <naked_body_append+0x8c2>
    1ca2:	e9 33 fb ff ff       	jmp    17da <naked_body_append+0x3fa>
    1ca7:	66 0f 1f 84 00 00 00 	nopw   0x0(%rax,%rax,1)
    1cae:	00 00 
    1cb0:	48 8b 1d 00 00 00 00 	mov    0x0(%rip),%rbx        # 1cb7 <naked_body_append+0x8d7>
    1cb7:	41 be 01 00 00 00    	mov    $0x1,%r14d
    1cbd:	48 8d bc 24 d0 00 00 	lea    0xd0(%rsp),%rdi
    1cc4:	00 
    1cc5:	66 66 2e 0f 1f 84 00 	data16 cs nopw 0x0(%rax,%rax,1)
    1ccc:	00 00 00 00 
    1cd0:	41 0f b6 cd          	movzbl %r13b,%ecx
    1cd4:	ff d3                	call   *%rbx
    1cd6:	46 0f b6 ac 36 90 02 	movzbl 0x290(%rsi,%r14,1),%r13d
    1cdd:	00 00 
    1cdf:	42 88 84 34 cf 00 00 	mov    %al,0xcf(%rsp,%r14,1)
    1ce6:	00 
    1ce7:	45 84 ed             	test   %r13b,%r13b
    1cea:	74 5d                	je     1d49 <naked_body_append+0x969>
    1cec:	49 83 c6 01          	add    $0x1,%r14
    1cf0:	49 83 fe 30          	cmp    $0x30,%r14
    1cf4:	75 da                	jne    1cd0 <naked_body_append+0x8f0>
    1cf6:	49 89 f9             	mov    %rdi,%r9
    1cf9:	4c 8d b4 24 ff 00 00 	lea    0xff(%rsp),%r14
    1d00:	00 
    1d01:	41 c6 06 00          	movb   $0x0,(%r14)
    1d05:	4c 8d 94 24 00 01 00 	lea    0x100(%rsp),%r10
    1d0c:	00 
    1d0d:	ba 60 00 00 00       	mov    $0x60,%edx
    1d12:	4c 8d 05 95 0a 00 00 	lea    0xa95(%rip),%r8        # 27ae <aet_describe_pc+0xa2e>
    1d19:	4c 89 d1             	mov    %r10,%rcx
    1d1c:	4c 89 54 24 68       	mov    %r10,0x68(%rsp)
    1d21:	e8 00 00 00 00       	call   1d26 <naked_body_append+0x946>
    1d26:	4c 8b 54 24 68       	mov    0x68(%rsp),%r10
    1d2b:	e9 91 f9 ff ff       	jmp    16c1 <naked_body_append+0x2e1>
    1d30:	4c 8b 54 24 58       	mov    0x58(%rsp),%r10
    1d35:	49 89 f7             	mov    %rsi,%r15
    1d38:	48 8b b4 24 68 02 00 	mov    0x268(%rsp),%rsi
    1d3f:	00 
    1d40:	4b 8d 14 3a          	lea    (%r10,%r15,1),%rdx
    1d44:	e9 3f ff ff ff       	jmp    1c88 <naked_body_append+0x8a8>
    1d49:	49 89 f9             	mov    %rdi,%r9
    1d4c:	49 01 fe             	add    %rdi,%r14
    1d4f:	eb b0                	jmp    1d01 <naked_body_append+0x921>
    1d51:	4c 89 ed             	mov    %r13,%rbp
    1d54:	e9 15 fc ff ff       	jmp    196e <naked_body_append+0x58e>
    1d59:	48 8d 84 24 b0 00 00 	lea    0xb0(%rsp),%rax
    1d60:	00 
    1d61:	48 89 44 24 60       	mov    %rax,0x60(%rsp)
    1d66:	49 89 c5             	mov    %rax,%r13
    1d69:	e9 7e f8 ff ff       	jmp    15ec <naked_body_append+0x20c>
    1d6e:	4c 89 d2             	mov    %r10,%rdx
    1d71:	e9 12 ff ff ff       	jmp    1c88 <naked_body_append+0x8a8>
    1d76:	66 2e 0f 1f 84 00 00 	cs nopw 0x0(%rax,%rax,1)
    1d7d:	00 00 00 

0000000000001d80 <aet_describe_pc>:
    1d80:	41 57                	push   %r15
    1d82:	b8 f8 91 00 00       	mov    $0x91f8,%eax
    1d87:	41 56                	push   %r14
    1d89:	41 55                	push   %r13
    1d8b:	41 54                	push   %r12
    1d8d:	55                   	push   %rbp
    1d8e:	57                   	push   %rdi
    1d8f:	56                   	push   %rsi
    1d90:	53                   	push   %rbx
    1d91:	e8 00 00 00 00       	call   1d96 <aet_describe_pc+0x16>
    1d96:	48 29 c4             	sub    %rax,%rsp
    1d99:	48 89 ce             	mov    %rcx,%rsi
    1d9c:	48 89 d3             	mov    %rdx,%rbx
    1d9f:	4c 89 c5             	mov    %r8,%rbp
    1da2:	48 c7 84 24 38 01 00 	movq   $0x0,0x138(%rsp)
    1da9:	00 00 00 00 00 
    1dae:	48 85 d2             	test   %rdx,%rdx
    1db1:	0f 84 8d 01 00 00    	je     1f44 <aet_describe_pc+0x1c4>
    1db7:	49 83 f8 3f          	cmp    $0x3f,%r8
    1dbb:	0f 86 83 01 00 00    	jbe    1f44 <aet_describe_pc+0x1c4>
    1dc1:	c6 02 00             	movb   $0x0,(%rdx)
    1dc4:	48 85 c9             	test   %rcx,%rcx
    1dc7:	0f 84 77 01 00 00    	je     1f44 <aet_describe_pc+0x1c4>
    1dcd:	48 8d bc 24 40 07 00 	lea    0x740(%rsp),%rdi
    1dd4:	00 
    1dd5:	b9 55 00 00 00       	mov    $0x55,%ecx
    1dda:	f3 48 a5             	rep movsq (%rsi),(%rdi)
    1ddd:	48 8d b4 24 40 07 00 	lea    0x740(%rsp),%rsi
    1de4:	00 
    1de5:	48 89 f1             	mov    %rsi,%rcx
    1de8:	48 89 b4 24 90 00 00 	mov    %rsi,0x90(%rsp)
    1def:	00 
    1df0:	e8 00 00 00 00       	call   1df5 <aet_describe_pc+0x75>
    1df5:	0f b6 84 24 40 07 00 	movzbl 0x740(%rsp),%eax
    1dfc:	00 
    1dfd:	84 c0                	test   %al,%al
    1dff:	0f 84 0b 37 00 00    	je     5510 <aet_describe_pc+0x3790>
    1e05:	31 c9                	xor    %ecx,%ecx
    1e07:	48 89 f2             	mov    %rsi,%rdx
    1e0a:	66 0f 1f 44 00 00    	nopw   0x0(%rax,%rax,1)
    1e10:	48 83 c2 01          	add    $0x1,%rdx
    1e14:	01 c1                	add    %eax,%ecx
    1e16:	0f b6 02             	movzbl (%rdx),%eax
    1e19:	84 c0                	test   %al,%al
    1e1b:	75 f3                	jne    1e10 <aet_describe_pc+0x90>
    1e1d:	83 f1 01             	xor    $0x1,%ecx
    1e20:	b8 01 00 00 00       	mov    $0x1,%eax
    1e25:	0f 44 c8             	cmove  %eax,%ecx
    1e28:	89 ca                	mov    %ecx,%edx
    1e2a:	c1 e2 0d             	shl    $0xd,%edx
    1e2d:	31 ca                	xor    %ecx,%edx
    1e2f:	89 d0                	mov    %edx,%eax
    1e31:	c1 e8 11             	shr    $0x11,%eax
    1e34:	31 d0                	xor    %edx,%eax
    1e36:	89 c2                	mov    %eax,%edx
    1e38:	c1 e2 05             	shl    $0x5,%edx
    1e3b:	31 c2                	xor    %eax,%edx
    1e3d:	89 d0                	mov    %edx,%eax
    1e3f:	89 94 24 1c 01 00 00 	mov    %edx,0x11c(%rsp)
    1e46:	c1 e2 0d             	shl    $0xd,%edx
    1e49:	31 c2                	xor    %eax,%edx
    1e4b:	89 d0                	mov    %edx,%eax
    1e4d:	c1 e8 11             	shr    $0x11,%eax
    1e50:	31 d0                	xor    %edx,%eax
    1e52:	89 c2                	mov    %eax,%edx
    1e54:	c1 e2 05             	shl    $0x5,%edx
    1e57:	31 c2                	xor    %eax,%edx
    1e59:	89 94 24 18 01 00 00 	mov    %edx,0x118(%rsp)
    1e60:	80 bc 24 e8 07 00 00 	cmpb   $0x0,0x7e8(%rsp)
    1e67:	00 
    1e68:	0f 84 f2 00 00 00    	je     1f60 <aet_describe_pc+0x1e0>
    1e6e:	66 81 bc 24 e8 07 00 	cmpw   $0x6568,0x7e8(%rsp)
    1e75:	00 68 65 
    1e78:	0f 84 82 17 00 00    	je     3600 <aet_describe_pc+0x1880>
    1e7e:	81 bc 24 e8 07 00 00 	cmpl   $0x656873,0x7e8(%rsp)
    1e85:	73 68 65 00 
    1e89:	0f 85 d1 00 00 00    	jne    1f60 <aet_describe_pc+0x1e0>
    1e8f:	48 8d 35 7e 0c 00 00 	lea    0xc7e(%rip),%rsi        # 2b14 <aet_describe_pc+0xd94>
    1e96:	48 8d 05 57 0c 00 00 	lea    0xc57(%rip),%rax        # 2af4 <aet_describe_pc+0xd74>
    1e9d:	ba 68 00 00 00       	mov    $0x68,%edx
    1ea2:	48 89 84 24 c8 00 00 	mov    %rax,0xc8(%rsp)
    1ea9:	00 
    1eaa:	48 8d 05 61 0c 00 00 	lea    0xc61(%rip),%rax        # 2b12 <aet_describe_pc+0xd92>
    1eb1:	4c 8d 3d f0 08 00 00 	lea    0x8f0(%rip),%r15        # 27a8 <aet_describe_pc+0xa28>
    1eb8:	48 89 b4 24 80 00 00 	mov    %rsi,0x80(%rsp)
    1ebf:	00 
    1ec0:	48 89 b4 24 f8 00 00 	mov    %rsi,0xf8(%rsp)
    1ec7:	00 
    1ec8:	48 8d 35 82 0c 00 00 	lea    0xc82(%rip),%rsi        # 2b51 <aet_describe_pc+0xdd1>
    1ecf:	48 89 84 24 d8 00 00 	mov    %rax,0xd8(%rsp)
    1ed6:	00 
    1ed7:	48 8d 05 69 0c 00 00 	lea    0xc69(%rip),%rax        # 2b47 <aet_describe_pc+0xdc7>
    1ede:	48 89 b4 24 88 00 00 	mov    %rsi,0x88(%rsp)
    1ee5:	00 
    1ee6:	48 8d 35 ab 0c 00 00 	lea    0xcab(%rip),%rsi        # 2b98 <aet_describe_pc+0xe18>
    1eed:	48 89 84 24 d0 00 00 	mov    %rax,0xd0(%rsp)
    1ef4:	00 
    1ef5:	48 8d 05 6d 0c 00 00 	lea    0xc6d(%rip),%rax        # 2b69 <aet_describe_pc+0xde9>
    1efc:	48 89 b4 24 10 01 00 	mov    %rsi,0x110(%rsp)
    1f03:	00 
    1f04:	e9 cc 00 00 00       	jmp    1fd5 <aet_describe_pc+0x255>
    1f09:	0f 1f 80 00 00 00 00 	nopl   0x0(%rax)
    1f10:	66 83 bc 24 f4 55 00 	cmpw   $0x79,0x55f4(%rsp)
    1f17:	00 79 
    1f19:	0f 85 a2 2a 00 00    	jne    49c1 <aet_describe_pc+0x2c41>
    1f1f:	48 8b 44 24 78       	mov    0x78(%rsp),%rax
    1f24:	48 89 74 24 20       	mov    %rsi,0x20(%rsp)
    1f29:	49 89 f8             	mov    %rdi,%r8
    1f2c:	48 89 ea             	mov    %rbp,%rdx
    1f2f:	4c 8d 0d 48 2e 00 00 	lea    0x2e48(%rip),%r9        # 4d7e <aet_describe_pc+0x2ffe>
    1f36:	48 89 d9             	mov    %rbx,%rcx
    1f39:	48 89 44 24 28       	mov    %rax,0x28(%rsp)
    1f3e:	e8 bd e3 ff ff       	call   300 <d_apf>
    1f43:	90                   	nop
    1f44:	48 81 c4 f8 91 00 00 	add    $0x91f8,%rsp
    1f4b:	5b                   	pop    %rbx
    1f4c:	5e                   	pop    %rsi
    1f4d:	5f                   	pop    %rdi
    1f4e:	5d                   	pop    %rbp
    1f4f:	41 5c                	pop    %r12
    1f51:	41 5d                	pop    %r13
    1f53:	41 5e                	pop    %r14
    1f55:	41 5f                	pop    %r15
    1f57:	c3                   	ret
    1f58:	0f 1f 84 00 00 00 00 	nopl   0x0(%rax,%rax,1)
    1f5f:	00 
    1f60:	48 8d 35 a0 0c 00 00 	lea    0xca0(%rip),%rsi        # 2c07 <aet_describe_pc+0xe87>
    1f67:	48 8d 05 86 0c 00 00 	lea    0xc86(%rip),%rax        # 2bf4 <aet_describe_pc+0xe74>
    1f6e:	ba 74 00 00 00       	mov    $0x74,%edx
    1f73:	48 89 b4 24 80 00 00 	mov    %rsi,0x80(%rsp)
    1f7a:	00 
    1f7b:	48 8d 35 a6 0c 00 00 	lea    0xca6(%rip),%rsi        # 2c28 <aet_describe_pc+0xea8>
    1f82:	4c 8d 3d ec 08 00 00 	lea    0x8ec(%rip),%r15        # 2875 <aet_describe_pc+0xaf5>
    1f89:	48 89 b4 24 f8 00 00 	mov    %rsi,0xf8(%rsp)
    1f90:	00 
    1f91:	48 8d 35 ab 0c 00 00 	lea    0xcab(%rip),%rsi        # 2c43 <aet_describe_pc+0xec3>
    1f98:	48 89 84 24 c8 00 00 	mov    %rax,0xc8(%rsp)
    1f9f:	00 
    1fa0:	48 8d 05 8e 0c 00 00 	lea    0xc8e(%rip),%rax        # 2c35 <aet_describe_pc+0xeb5>
    1fa7:	48 89 b4 24 10 01 00 	mov    %rsi,0x110(%rsp)
    1fae:	00 
    1faf:	48 89 b4 24 88 00 00 	mov    %rsi,0x88(%rsp)
    1fb6:	00 
    1fb7:	48 89 84 24 d8 00 00 	mov    %rax,0xd8(%rsp)
    1fbe:	00 
    1fbf:	48 8d 05 94 0c 00 00 	lea    0xc94(%rip),%rax        # 2c5a <aet_describe_pc+0xeda>
    1fc6:	48 89 84 24 d0 00 00 	mov    %rax,0xd0(%rsp)
    1fcd:	00 
    1fce:	48 8d 05 99 0c 00 00 	lea    0xc99(%rip),%rax        # 2c6e <aet_describe_pc+0xeee>
    1fd5:	48 8b b4 24 88 00 00 	mov    0x88(%rsp),%rsi
    1fdc:	00 
    1fdd:	48 89 84 24 20 02 00 	mov    %rax,0x220(%rsp)
    1fe4:	00 
    1fe5:	48 8b 84 24 d0 00 00 	mov    0xd0(%rsp),%rax
    1fec:	00 
    1fed:	4c 89 bc 24 18 02 00 	mov    %r15,0x218(%rsp)
    1ff4:	00 
    1ff5:	48 89 b4 24 00 02 00 	mov    %rsi,0x200(%rsp)
    1ffc:	00 
    1ffd:	48 8b b4 24 f8 00 00 	mov    0xf8(%rsp),%rsi
    2004:	00 
    2005:	48 89 84 24 28 02 00 	mov    %rax,0x228(%rsp)
    200c:	00 
    200d:	48 8b 84 24 d8 00 00 	mov    0xd8(%rsp),%rax
    2014:	00 
    2015:	48 89 b4 24 08 02 00 	mov    %rsi,0x208(%rsp)
    201c:	00 
    201d:	48 8b b4 24 80 00 00 	mov    0x80(%rsp),%rsi
    2024:	00 
    2025:	48 89 84 24 30 02 00 	mov    %rax,0x230(%rsp)
    202c:	00 
    202d:	48 8b 84 24 c8 00 00 	mov    0xc8(%rsp),%rax
    2034:	00 
    2035:	48 89 b4 24 10 02 00 	mov    %rsi,0x210(%rsp)
    203c:	00 
    203d:	48 89 84 24 38 02 00 	mov    %rax,0x238(%rsp)
    2044:	00 
    2045:	0f b6 84 24 10 09 00 	movzbl 0x910(%rsp),%eax
    204c:	00 
    204d:	80 bc 24 20 09 00 00 	cmpb   $0x0,0x920(%rsp)
    2054:	00 
    2055:	0f 85 f5 14 00 00    	jne    3550 <aet_describe_pc+0x17d0>
    205b:	48 8d 35 73 0a 00 00 	lea    0xa73(%rip),%rsi        # 2ad5 <aet_describe_pc+0xd55>
    2062:	84 c0                	test   %al,%al
    2064:	0f 84 f6 14 00 00    	je     3560 <aet_describe_pc+0x17e0>
    206a:	0f be c2             	movsbl %dl,%eax
    206d:	89 c1                	mov    %eax,%ecx
    206f:	89 84 24 b4 00 00 00 	mov    %eax,0xb4(%rsp)
    2076:	48 8b 05 00 00 00 00 	mov    0x0(%rip),%rax        # 207d <aet_describe_pc+0x2fd>
    207d:	48 89 84 24 98 00 00 	mov    %rax,0x98(%rsp)
    2084:	00 
    2085:	ff d0                	call   *%rax
    2087:	48 8d 8c 24 f1 19 00 	lea    0x19f1(%rsp),%rcx
    208e:	00 
    208f:	41 b8 0e 00 00 00    	mov    $0xe,%r8d
    2095:	88 84 24 f0 19 00 00 	mov    %al,0x19f0(%rsp)
    209c:	48 8b 84 24 80 00 00 	mov    0x80(%rsp),%rax
    20a3:	00 
    20a4:	48 83 c0 01          	add    $0x1,%rax
    20a8:	48 89 c2             	mov    %rax,%rdx
    20ab:	48 89 84 24 b8 00 00 	mov    %rax,0xb8(%rsp)
    20b2:	00 
    20b3:	e8 00 00 00 00       	call   20b8 <aet_describe_pc+0x338>
    20b8:	c6 84 24 ff 19 00 00 	movb   $0x0,0x19ff(%rsp)
    20bf:	00 
    20c0:	48 b8 4d 75 73 63 75 	movabs $0x72616c756373754d,%rax
    20c7:	6c 61 72 
    20ca:	c6 84 24 00 06 00 00 	movb   $0x0,0x600(%rsp)
    20d1:	00 
    20d2:	c6 84 24 00 05 00 00 	movb   $0x0,0x500(%rsp)
    20d9:	00 
    20da:	48 39 84 24 50 08 00 	cmp    %rax,0x850(%rsp)
    20e1:	00 
    20e2:	0f 84 88 2c 00 00    	je     4d70 <aet_describe_pc+0x2ff0>
    20e8:	48 8d bc 24 10 09 00 	lea    0x910(%rsp),%rdi
    20ef:	00 
    20f0:	81 bc 24 50 08 00 00 	cmpl   $0x63696854,0x850(%rsp)
    20f7:	54 68 69 63 
    20fb:	0f 84 8f 15 00 00    	je     3690 <aet_describe_pc+0x1910>
    2101:	48 b8 53 6c 65 6e 64 	movabs $0x7265646e656c53,%rax
    2108:	65 72 00 
    210b:	48 39 84 24 50 08 00 	cmp    %rax,0x850(%rsp)
    2112:	00 
    2113:	0f 84 17 34 00 00    	je     5530 <aet_describe_pc+0x37b0>
    2119:	48 b8 61 20 62 61 6c 	movabs $0x636e616c61622061,%rax
    2120:	61 6e 63 
    2123:	48 ba 65 64 20 61 6e 	movabs $0x6120646e61206465,%rdx
    212a:	64 20 61 
    212d:	48 89 84 24 a0 04 00 	mov    %rax,0x4a0(%rsp)
    2134:	00 
    2135:	48 b8 74 68 6c 65 74 	movabs $0x20636974656c6874,%rax
    213c:	69 63 20 
    213f:	48 89 94 24 a8 04 00 	mov    %rdx,0x4a8(%rsp)
    2146:	00 
    2147:	ba 62 6f 64 79       	mov    $0x79646f62,%edx
    214c:	0f 1f 40 00          	nopl   0x0(%rax)
    2150:	48 c7 84 24 e8 04 00 	movq   $0x0,0x4e8(%rsp)
    2157:	00 00 00 00 00 
    215c:	48 89 84 24 b0 04 00 	mov    %rax,0x4b0(%rsp)
    2163:	00 
    2164:	48 89 94 24 b8 04 00 	mov    %rdx,0x4b8(%rsp)
    216b:	00 
    216c:	48 c7 84 24 c0 04 00 	movq   $0x0,0x4c0(%rsp)
    2173:	00 00 00 00 00 
    2178:	48 c7 84 24 c8 04 00 	movq   $0x0,0x4c8(%rsp)
    217f:	00 00 00 00 00 
    2184:	48 c7 84 24 d0 04 00 	movq   $0x0,0x4d0(%rsp)
    218b:	00 00 00 00 00 
    2190:	48 c7 84 24 d8 04 00 	movq   $0x0,0x4d8(%rsp)
    2197:	00 00 00 00 00 
    219c:	48 c7 84 24 e0 04 00 	movq   $0x0,0x4e0(%rsp)
    21a3:	00 00 00 00 00 
    21a8:	48 c7 84 24 ef 04 00 	movq   $0x0,0x4ef(%rsp)
    21af:	00 00 00 00 00 
    21b4:	48 c7 84 24 f7 04 00 	movq   $0x0,0x4f7(%rsp)
    21bb:	00 00 00 00 00 
    21c0:	48 8d 15 ff 0d 00 00 	lea    0xdff(%rip),%rdx        # 2fc6 <aet_describe_pc+0x1246>
    21c7:	48 89 f1             	mov    %rsi,%rcx
    21ca:	e8 00 00 00 00       	call   21cf <aet_describe_pc+0x44f>
    21cf:	85 c0                	test   %eax,%eax
    21d1:	75 17                	jne    21ea <aet_describe_pc+0x46a>
    21d3:	48 8d 15 13 0e 00 00 	lea    0xe13(%rip),%rdx        # 2fed <aet_describe_pc+0x126d>
    21da:	48 89 f9             	mov    %rdi,%rcx
    21dd:	e8 00 00 00 00       	call   21e2 <aet_describe_pc+0x462>
    21e2:	85 c0                	test   %eax,%eax
    21e4:	0f 84 fe 2f 00 00    	je     51e8 <aet_describe_pc+0x3468>
    21ea:	48 8d 15 18 0e 00 00 	lea    0xe18(%rip),%rdx        # 3009 <aet_describe_pc+0x1289>
    21f1:	48 89 f1             	mov    %rsi,%rcx
    21f4:	e8 00 00 00 00       	call   21f9 <aet_describe_pc+0x479>
    21f9:	85 c0                	test   %eax,%eax
    21fb:	0f 85 cf 1c 00 00    	jne    3ed0 <aet_describe_pc+0x2150>
    2201:	48 8d 15 f8 0d 00 00 	lea    0xdf8(%rip),%rdx        # 3000 <aet_describe_pc+0x1280>
    2208:	48 89 f9             	mov    %rdi,%rcx
    220b:	e8 00 00 00 00       	call   2210 <aet_describe_pc+0x490>
    2210:	85 c0                	test   %eax,%eax
    2212:	0f 85 b8 1c 00 00    	jne    3ed0 <aet_describe_pc+0x2150>
    2218:	48 b8 41 76 65 72 61 	movabs $0x65676172657641,%rax
    221f:	67 65 00 
    2222:	48 39 84 24 50 08 00 	cmp    %rax,0x850(%rsp)
    2229:	00 
    222a:	0f 84 a0 1c 00 00    	je     3ed0 <aet_describe_pc+0x2150>
    2230:	48 b8 45 76 65 72 79 	movabs $0x6174207972657645,%rax
    2237:	20 74 61 
    223a:	48 ba 75 74 20 74 65 	movabs $0x6f646e6574207475,%rdx
    2241:	6e 64 6f 
    2244:	48 89 84 24 00 05 00 	mov    %rax,0x500(%rsp)
    224b:	00 
    224c:	48 b8 6e 20 61 6e 64 	movabs $0x687320646e61206e,%rax
    2253:	20 73 68 
    2256:	48 89 94 24 08 05 00 	mov    %rdx,0x508(%rsp)
    225d:	00 
    225e:	48 ba 61 72 70 6c 79 	movabs $0x756320796c707261,%rdx
    2265:	20 63 75 
    2268:	48 89 84 24 10 05 00 	mov    %rax,0x510(%rsp)
    226f:	00 
    2270:	48 b8 74 20 6d 75 73 	movabs $0x656c6373756d2074,%rax
    2277:	63 6c 65 
    227a:	48 89 94 24 18 05 00 	mov    %rdx,0x518(%rsp)
    2281:	00 
    2282:	48 ba 20 69 73 20 76 	movabs $0x6973697620736920,%rdx
    2289:	69 73 69 
    228c:	48 89 84 24 20 05 00 	mov    %rax,0x520(%rsp)
    2293:	00 
    2294:	48 b8 62 6c 65 20 62 	movabs $0x656e656220656c62,%rax
    229b:	65 6e 65 
    229e:	48 89 94 24 28 05 00 	mov    %rdx,0x528(%rsp)
    22a5:	00 
    22a6:	48 ba 61 74 68 20 74 	movabs $0x2065687420687461,%rdx
    22ad:	68 65 20 
    22b0:	48 89 84 24 30 05 00 	mov    %rax,0x530(%rsp)
    22b7:	00 
    22b8:	48 b8 73 75 72 66 61 	movabs $0x2e65636166727573,%rax
    22bf:	63 65 2e 
    22c2:	48 89 94 24 38 05 00 	mov    %rdx,0x538(%rsp)
    22c9:	00 
    22ca:	31 d2                	xor    %edx,%edx
    22cc:	48 89 84 24 40 05 00 	mov    %rax,0x540(%rsp)
    22d3:	00 
    22d4:	48 89 94 24 48 05 00 	mov    %rdx,0x548(%rsp)
    22db:	00 
    22dc:	48 c7 84 24 e8 05 00 	movq   $0x0,0x5e8(%rsp)
    22e3:	00 00 00 00 00 
    22e8:	48 c7 84 24 50 05 00 	movq   $0x0,0x550(%rsp)
    22ef:	00 00 00 00 00 
    22f4:	48 c7 84 24 58 05 00 	movq   $0x0,0x558(%rsp)
    22fb:	00 00 00 00 00 
    2300:	48 c7 84 24 60 05 00 	movq   $0x0,0x560(%rsp)
    2307:	00 00 00 00 00 
    230c:	48 c7 84 24 68 05 00 	movq   $0x0,0x568(%rsp)
    2313:	00 00 00 00 00 
    2318:	48 c7 84 24 70 05 00 	movq   $0x0,0x570(%rsp)
    231f:	00 00 00 00 00 
    2324:	48 c7 84 24 78 05 00 	movq   $0x0,0x578(%rsp)
    232b:	00 00 00 00 00 
    2330:	48 c7 84 24 80 05 00 	movq   $0x0,0x580(%rsp)
    2337:	00 00 00 00 00 
    233c:	48 c7 84 24 88 05 00 	movq   $0x0,0x588(%rsp)
    2343:	00 00 00 00 00 
    2348:	48 c7 84 24 90 05 00 	movq   $0x0,0x590(%rsp)
    234f:	00 00 00 00 00 
    2354:	48 c7 84 24 98 05 00 	movq   $0x0,0x598(%rsp)
    235b:	00 00 00 00 00 
    2360:	48 c7 84 24 a0 05 00 	movq   $0x0,0x5a0(%rsp)
    2367:	00 00 00 00 00 
    236c:	48 c7 84 24 a8 05 00 	movq   $0x0,0x5a8(%rsp)
    2373:	00 00 00 00 00 
    2378:	48 c7 84 24 b0 05 00 	movq   $0x0,0x5b0(%rsp)
    237f:	00 00 00 00 00 
    2384:	48 c7 84 24 b8 05 00 	movq   $0x0,0x5b8(%rsp)
    238b:	00 00 00 00 00 
    2390:	48 c7 84 24 c0 05 00 	movq   $0x0,0x5c0(%rsp)
    2397:	00 00 00 00 00 
    239c:	48 c7 84 24 c8 05 00 	movq   $0x0,0x5c8(%rsp)
    23a3:	00 00 00 00 00 
    23a8:	48 c7 84 24 d0 05 00 	movq   $0x0,0x5d0(%rsp)
    23af:	00 00 00 00 00 
    23b4:	48 c7 84 24 d8 05 00 	movq   $0x0,0x5d8(%rsp)
    23bb:	00 00 00 00 00 
    23c0:	48 c7 84 24 e0 05 00 	movq   $0x0,0x5e0(%rsp)
    23c7:	00 00 00 00 00 
    23cc:	48 c7 84 24 ef 05 00 	movq   $0x0,0x5ef(%rsp)
    23d3:	00 00 00 00 00 
    23d8:	48 c7 84 24 f7 05 00 	movq   $0x0,0x5f7(%rsp)
    23df:	00 00 00 00 00 
    23e4:	48 b8 56 65 72 79 20 	movabs $0x6469572079726556,%rax
    23eb:	57 69 64 
    23ee:	48 39 84 24 30 09 00 	cmp    %rax,0x930(%rsp)
    23f5:	00 
    23f6:	0f 84 a4 1d 00 00    	je     41a0 <aet_describe_pc+0x2420>
    23fc:	81 bc 24 30 09 00 00 	cmpl   $0x7272614e,0x930(%rsp)
    2403:	4e 61 72 72 
    2407:	0f 84 83 2c 00 00    	je     5090 <aet_describe_pc+0x3310>
    240d:	48 b8 61 20 6d 6f 64 	movabs $0x617265646f6d2061,%rax
    2414:	65 72 61 
    2417:	48 ba 74 65 20 73 77 	movabs $0x7065657773206574,%rdx
    241e:	65 65 70 
    2421:	48 89 84 24 f0 55 00 	mov    %rax,0x55f0(%rsp)
    2428:	00 
    2429:	48 b8 20 74 6f 20 74 	movabs $0x20656874206f7420,%rax
    2430:	68 65 20 
    2433:	48 89 94 24 f8 55 00 	mov    %rdx,0x55f8(%rsp)
    243a:	00 
    243b:	ba 68 69 70 73       	mov    $0x73706968,%edx
    2440:	48 89 84 24 00 56 00 	mov    %rax,0x5600(%rsp)
    2447:	00 
    2448:	48 89 94 24 08 56 00 	mov    %rdx,0x5608(%rsp)
    244f:	00 
    2450:	48 c7 84 24 d8 56 00 	movq   $0x0,0x56d8(%rsp)
    2457:	00 00 00 00 00 
    245c:	48 c7 84 24 10 56 00 	movq   $0x0,0x5610(%rsp)
    2463:	00 00 00 00 00 
    2468:	48 c7 84 24 18 56 00 	movq   $0x0,0x5618(%rsp)
    246f:	00 00 00 00 00 
    2474:	48 c7 84 24 20 56 00 	movq   $0x0,0x5620(%rsp)
    247b:	00 00 00 00 00 
    2480:	48 c7 84 24 28 56 00 	movq   $0x0,0x5628(%rsp)
    2487:	00 00 00 00 00 
    248c:	48 c7 84 24 30 56 00 	movq   $0x0,0x5630(%rsp)
    2493:	00 00 00 00 00 
    2498:	48 c7 84 24 38 56 00 	movq   $0x0,0x5638(%rsp)
    249f:	00 00 00 00 00 
    24a4:	48 c7 84 24 40 56 00 	movq   $0x0,0x5640(%rsp)
    24ab:	00 00 00 00 00 
    24b0:	48 c7 84 24 48 56 00 	movq   $0x0,0x5648(%rsp)
    24b7:	00 00 00 00 00 
    24bc:	48 c7 84 24 50 56 00 	movq   $0x0,0x5650(%rsp)
    24c3:	00 00 00 00 00 
    24c8:	48 c7 84 24 58 56 00 	movq   $0x0,0x5658(%rsp)
    24cf:	00 00 00 00 00 
    24d4:	48 c7 84 24 60 56 00 	movq   $0x0,0x5660(%rsp)
    24db:	00 00 00 00 00 
    24e0:	48 c7 84 24 68 56 00 	movq   $0x0,0x5668(%rsp)
    24e7:	00 00 00 00 00 
    24ec:	48 c7 84 24 70 56 00 	movq   $0x0,0x5670(%rsp)
    24f3:	00 00 00 00 00 
    24f8:	48 c7 84 24 78 56 00 	movq   $0x0,0x5678(%rsp)
    24ff:	00 00 00 00 00 
    2504:	48 c7 84 24 80 56 00 	movq   $0x0,0x5680(%rsp)
    250b:	00 00 00 00 00 
    2510:	48 c7 84 24 88 56 00 	movq   $0x0,0x5688(%rsp)
    2517:	00 00 00 00 00 
    251c:	48 c7 84 24 90 56 00 	movq   $0x0,0x5690(%rsp)
    2523:	00 00 00 00 00 
    2528:	48 c7 84 24 98 56 00 	movq   $0x0,0x5698(%rsp)
    252f:	00 00 00 00 00 
    2534:	48 c7 84 24 a0 56 00 	movq   $0x0,0x56a0(%rsp)
    253b:	00 00 00 00 00 
    2540:	48 c7 84 24 a8 56 00 	movq   $0x0,0x56a8(%rsp)
    2547:	00 00 00 00 00 
    254c:	48 c7 84 24 b0 56 00 	movq   $0x0,0x56b0(%rsp)
    2553:	00 00 00 00 00 
    2558:	48 c7 84 24 b8 56 00 	movq   $0x0,0x56b8(%rsp)
    255f:	00 00 00 00 00 
    2564:	48 c7 84 24 c0 56 00 	movq   $0x0,0x56c0(%rsp)
    256b:	00 00 00 00 00 
    2570:	48 c7 84 24 c8 56 00 	movq   $0x0,0x56c8(%rsp)
    2577:	00 00 00 00 00 
    257c:	48 c7 84 24 d0 56 00 	movq   $0x0,0x56d0(%rsp)
    2583:	00 00 00 00 00 
    2588:	48 c7 84 24 df 56 00 	movq   $0x0,0x56df(%rsp)
    258f:	00 00 00 00 00 
    2594:	48 c7 84 24 e7 56 00 	movq   $0x0,0x56e7(%rsp)
    259b:	00 00 00 00 00 
    25a0:	81 bc 24 40 09 00 00 	cmpl   $0x6772614c,0x940(%rsp)
    25a7:	4c 61 72 67 
    25ab:	0f 84 a7 1b 00 00    	je     4158 <aet_describe_pc+0x23d8>
    25b1:	81 bc 24 40 09 00 00 	cmpl   $0x74616c46,0x940(%rsp)
    25b8:	46 6c 61 74 
    25bc:	0f 84 46 2a 00 00    	je     5008 <aet_describe_pc+0x3288>
    25c2:	48 8d 84 24 00 06 00 	lea    0x600(%rsp),%rax
    25c9:	00 
    25ca:	4c 8d 8c 24 f0 55 00 	lea    0x55f0(%rsp),%r9
    25d1:	00 
    25d2:	ba 40 01 00 00       	mov    $0x140,%edx
    25d7:	4c 8d 05 08 0f 00 00 	lea    0xf08(%rip),%r8        # 34e6 <aet_describe_pc+0x1766>
    25de:	48 89 c1             	mov    %rax,%rcx
    25e1:	4c 89 4c 24 78       	mov    %r9,0x78(%rsp)
    25e6:	48 89 84 24 00 01 00 	mov    %rax,0x100(%rsp)
    25ed:	00 
    25ee:	e8 00 00 00 00       	call   25f3 <aet_describe_pc+0x873>
    25f3:	48 8d 84 24 80 07 00 	lea    0x780(%rsp),%rax
    25fa:	00 
    25fb:	48 89 c1             	mov    %rax,%rcx
    25fe:	48 89 84 24 a0 00 00 	mov    %rax,0xa0(%rsp)
    2605:	00 
    2606:	e8 f5 d9 ff ff       	call   0 <get_skin_type>
    260b:	48 89 84 24 08 01 00 	mov    %rax,0x108(%rsp)
    2612:	00 
    2613:	0f b6 84 24 a8 07 00 	movzbl 0x7a8(%rsp),%eax
    261a:	00 
    261b:	84 c0                	test   %al,%al
    261d:	0f 84 ed 19 00 00    	je     4010 <aet_describe_pc+0x2290>
    2623:	48 8b 7c 24 78       	mov    0x78(%rsp),%rdi
    2628:	4c 8b 25 00 00 00 00 	mov    0x0(%rip),%r12        # 262f <aet_describe_pc+0x8af>
    262f:	be 01 00 00 00       	mov    $0x1,%esi
    2634:	4c 8d ac 24 a8 07 00 	lea    0x7a8(%rsp),%r13
    263b:	00 
    263c:	0f 1f 40 00          	nopl   0x0(%rax)
    2640:	0f b6 c8             	movzbl %al,%ecx
    2643:	41 ff d4             	call   *%r12
    2646:	88 07                	mov    %al,(%rdi)
    2648:	41 0f b6 44 35 00    	movzbl 0x0(%r13,%rsi,1),%eax
    264e:	84 c0                	test   %al,%al
    2650:	0f 84 e2 19 00 00    	je     4038 <aet_describe_pc+0x22b8>
    2656:	48 83 c6 01          	add    $0x1,%rsi
    265a:	48 83 c7 01          	add    $0x1,%rdi
    265e:	48 81 fe 80 00 00 00 	cmp    $0x80,%rsi
    2665:	75 d9                	jne    2640 <aet_describe_pc+0x8c0>
    2667:	48 8d b4 24 6f 56 00 	lea    0x566f(%rsp),%rsi
    266e:	00 
    266f:	c6 06 00             	movb   $0x0,(%rsi)
    2672:	48 8b 4c 24 78       	mov    0x78(%rsp),%rcx
    2677:	e8 00 00 00 00       	call   267c <aet_describe_pc+0x8fc>
    267c:	49 89 c4             	mov    %rax,%r12
    267f:	48 85 c0             	test   %rax,%rax
    2682:	0f 84 14 01 00 00    	je     279c <aet_describe_pc+0xa1c>
    2688:	48 8d 84 04 ef 55 00 	lea    0x55ef(%rsp,%rax,1),%rax
    268f:	00 
    2690:	eb 1f                	jmp    26b1 <aet_describe_pc+0x931>
    2692:	0f 1f 00             	nopl   (%rax)
    2695:	66 66 2e 0f 1f 84 00 	data16 cs nopw 0x0(%rax,%rax,1)
    269c:	00 00 00 00 
    26a0:	c6 00 00             	movb   $0x0,(%rax)
    26a3:	48 83 e8 01          	sub    $0x1,%rax
    26a7:	49 83 ec 01          	sub    $0x1,%r12
    26ab:	0f 84 8f 00 00 00    	je     2740 <aet_describe_pc+0x9c0>
    26b1:	0f b6 10             	movzbl (%rax),%edx
    26b4:	80 fa 20             	cmp    $0x20,%dl
    26b7:	74 e7                	je     26a0 <aet_describe_pc+0x920>
    26b9:	80 fa 09             	cmp    $0x9,%dl
    26bc:	74 e2                	je     26a0 <aet_describe_pc+0x920>
    26be:	49 83 fc 03          	cmp    $0x3,%r12
    26c2:	76 7c                	jbe    2740 <aet_describe_pc+0x9c0>
    26c4:	48 8b 44 24 78       	mov    0x78(%rsp),%rax
    26c9:	48 8d 15 35 0f 00 00 	lea    0xf35(%rip),%rdx        # 3605 <aet_describe_pc+0x1885>
    26d0:	4a 8d 4c 20 fc       	lea    -0x4(%rax,%r12,1),%rcx
    26d5:	e8 00 00 00 00       	call   26da <aet_describe_pc+0x95a>
    26da:	85 c0                	test   %eax,%eax
    26dc:	75 0d                	jne    26eb <aet_describe_pc+0x96b>
    26de:	42 c6 84 24 ec 55 00 	movb   $0x0,0x55ec(%rsp,%r12,1)
    26e5:	00 00 
    26e7:	49 83 ec 04          	sub    $0x4,%r12
    26eb:	49 83 fc 06          	cmp    $0x6,%r12
    26ef:	0f 86 9b 25 00 00    	jbe    4c90 <aet_describe_pc+0x2f10>
    26f5:	48 8b 44 24 78       	mov    0x78(%rsp),%rax
    26fa:	49 8d 7c 24 f9       	lea    -0x7(%r12),%rdi
    26ff:	48 8d 15 3a 0f 00 00 	lea    0xf3a(%rip),%rdx        # 3640 <aet_describe_pc+0x18c0>
    2706:	48 8d 34 38          	lea    (%rax,%rdi,1),%rsi
    270a:	48 89 f1             	mov    %rsi,%rcx
    270d:	e8 00 00 00 00       	call   2712 <aet_describe_pc+0x992>
    2712:	85 c0                	test   %eax,%eax
    2714:	0f 85 3c 2d 00 00    	jne    5456 <aet_describe_pc+0x36d6>
    271a:	c6 84 3c f0 55 00 00 	movb   $0x0,0x55f0(%rsp,%rdi,1)
    2721:	00 
    2722:	48 8d 15 42 0f 00 00 	lea    0xf42(%rip),%rdx        # 366b <aet_describe_pc+0x18eb>
    2729:	48 89 f1             	mov    %rsi,%rcx
    272c:	e8 00 00 00 00       	call   2731 <aet_describe_pc+0x9b1>
    2731:	85 c0                	test   %eax,%eax
    2733:	75 0b                	jne    2740 <aet_describe_pc+0x9c0>
    2735:	c6 84 3c f0 55 00 00 	movb   $0x0,0x55f0(%rsp,%rdi,1)
    273c:	00 
    273d:	0f 1f 00             	nopl   (%rax)
    2740:	48 8b 74 24 78       	mov    0x78(%rsp),%rsi
    2745:	48 89 f1             	mov    %rsi,%rcx
    2748:	e8 00 00 00 00       	call   274d <aet_describe_pc+0x9cd>
    274d:	48 85 c0             	test   %rax,%rax
    2750:	74 4a                	je     279c <aet_describe_pc+0xa1c>
    2752:	b9 01 00 00 00       	mov    $0x1,%ecx
    2757:	48 8d 84 04 ef 55 00 	lea    0x55ef(%rsp,%rax,1),%rax
    275e:	00 
    275f:	48 29 f1             	sub    %rsi,%rcx
    2762:	eb 2b                	jmp    278f <aet_describe_pc+0xa0f>
    2764:	66 0f 1f 44 00 00    	nopw   0x0(%rax,%rax,1)
    276a:	66 66 2e 0f 1f 84 00 	data16 cs nopw 0x0(%rax,%rax,1)
    2771:	00 00 00 00 
    2775:	66 66 2e 0f 1f 84 00 	data16 cs nopw 0x0(%rax,%rax,1)
    277c:	00 00 00 00 
    2780:	c6 00 00             	movb   $0x0,(%rax)
    2783:	48 89 ce             	mov    %rcx,%rsi
    2786:	48 83 e8 01          	sub    $0x1,%rax
    278a:	48 01 c6             	add    %rax,%rsi
    278d:	74 0d                	je     279c <aet_describe_pc+0xa1c>
    278f:	0f b6 10             	movzbl (%rax),%edx
    2792:	80 fa 20             	cmp    $0x20,%dl
    2795:	74 e9                	je     2780 <aet_describe_pc+0xa00>
    2797:	80 fa 09             	cmp    $0x9,%dl
    279a:	74 e4                	je     2780 <aet_describe_pc+0xa00>
    279c:	80 bc 24 f0 55 00 00 	cmpb   $0x0,0x55f0(%rsp)
    27a3:	00 
    27a4:	4c 0f 45 6c 24 78    	cmovne 0x78(%rsp),%r13
    27aa:	48 8d 84 24 40 02 00 	lea    0x240(%rsp),%rax
    27b1:	00 
    27b2:	41 b8 5f 00 00 00    	mov    $0x5f,%r8d
    27b8:	48 89 c1             	mov    %rax,%rcx
    27bb:	48 89 84 24 20 01 00 	mov    %rax,0x120(%rsp)
    27c2:	00 
    27c3:	4c 89 ea             	mov    %r13,%rdx
    27c6:	e8 00 00 00 00       	call   27cb <aet_describe_pc+0xa4b>
    27cb:	0f b6 84 24 b8 08 00 	movzbl 0x8b8(%rsp),%eax
    27d2:	00 
    27d3:	c6 84 24 9f 02 00 00 	movb   $0x0,0x29f(%rsp)
    27da:	00 
    27db:	84 c0                	test   %al,%al
    27dd:	0f 84 16 34 00 00    	je     5bf9 <aet_describe_pc+0x3e79>
    27e3:	4c 8d ac 24 60 01 00 	lea    0x160(%rsp),%r13
    27ea:	00 
    27eb:	4c 8b 25 00 00 00 00 	mov    0x0(%rip),%r12        # 27f2 <aet_describe_pc+0xa72>
    27f2:	bf 01 00 00 00       	mov    $0x1,%edi
    27f7:	48 8d b4 24 b8 08 00 	lea    0x8b8(%rsp),%rsi
    27fe:	00 
    27ff:	4d 89 ee             	mov    %r13,%r14
    2802:	0f 1f 00             	nopl   (%rax)
    2805:	66 66 2e 0f 1f 84 00 	data16 cs nopw 0x0(%rax,%rax,1)
    280c:	00 00 00 00 
    2810:	0f b6 c8             	movzbl %al,%ecx
    2813:	41 ff d4             	call   *%r12
    2816:	41 88 06             	mov    %al,(%r14)
    2819:	0f b6 04 3e          	movzbl (%rsi,%rdi,1),%eax
    281d:	84 c0                	test   %al,%al
    281f:	0f 84 53 18 00 00    	je     4078 <aet_describe_pc+0x22f8>
    2825:	48 83 c7 01          	add    $0x1,%rdi
    2829:	49 83 c6 01          	add    $0x1,%r14
    282d:	48 83 ff 20          	cmp    $0x20,%rdi
    2831:	75 dd                	jne    2810 <aet_describe_pc+0xa90>
    2833:	48 8d bc 24 7f 01 00 	lea    0x17f(%rsp),%rdi
    283a:	00 
    283b:	0f b6 84 24 d0 08 00 	movzbl 0x8d0(%rsp),%eax
    2842:	00 
    2843:	c6 07 00             	movb   $0x0,(%rdi)
    2846:	84 c0                	test   %al,%al
    2848:	0f 84 eb 33 00 00    	je     5c39 <aet_describe_pc+0x3eb9>
    284e:	48 8d b4 24 80 01 00 	lea    0x180(%rsp),%rsi
    2855:	00 
    2856:	4c 8b 25 00 00 00 00 	mov    0x0(%rip),%r12        # 285d <aet_describe_pc+0xadd>
    285d:	bf 01 00 00 00       	mov    $0x1,%edi
    2862:	48 89 b4 24 f0 00 00 	mov    %rsi,0xf0(%rsp)
    2869:	00 
    286a:	49 89 f6             	mov    %rsi,%r14
    286d:	48 8d b4 24 d0 08 00 	lea    0x8d0(%rsp),%rsi
    2874:	00 
    2875:	66 66 2e 0f 1f 84 00 	data16 cs nopw 0x0(%rax,%rax,1)
    287c:	00 00 00 00 
    2880:	0f b6 c8             	movzbl %al,%ecx
    2883:	41 ff d4             	call   *%r12
    2886:	41 88 06             	mov    %al,(%r14)
    2889:	0f b6 04 3e          	movzbl (%rsi,%rdi,1),%eax
    288d:	84 c0                	test   %al,%al
    288f:	0f 84 d3 17 00 00    	je     4068 <aet_describe_pc+0x22e8>
    2895:	48 83 c7 01          	add    $0x1,%rdi
    2899:	49 83 c6 01          	add    $0x1,%r14
    289d:	48 83 ff 20          	cmp    $0x20,%rdi
    28a1:	75 dd                	jne    2880 <aet_describe_pc+0xb00>
    28a3:	48 8d bc 24 9f 01 00 	lea    0x19f(%rsp),%rdi
    28aa:	00 
    28ab:	0f b6 84 24 80 08 00 	movzbl 0x880(%rsp),%eax
    28b2:	00 
    28b3:	c6 07 00             	movb   $0x0,(%rdi)
    28b6:	84 c0                	test   %al,%al
    28b8:	0f 84 63 33 00 00    	je     5c21 <aet_describe_pc+0x3ea1>
    28be:	48 8d b4 24 a0 01 00 	lea    0x1a0(%rsp),%rsi
    28c5:	00 
    28c6:	4c 8b 25 00 00 00 00 	mov    0x0(%rip),%r12        # 28cd <aet_describe_pc+0xb4d>
    28cd:	bf 01 00 00 00       	mov    $0x1,%edi
    28d2:	48 89 b4 24 e0 00 00 	mov    %rsi,0xe0(%rsp)
    28d9:	00 
    28da:	49 89 f6             	mov    %rsi,%r14
    28dd:	48 8d b4 24 80 08 00 	lea    0x880(%rsp),%rsi
    28e4:	00 
    28e5:	66 66 2e 0f 1f 84 00 	data16 cs nopw 0x0(%rax,%rax,1)
    28ec:	00 00 00 00 
    28f0:	0f b6 c8             	movzbl %al,%ecx
    28f3:	41 ff d4             	call   *%r12
    28f6:	41 88 06             	mov    %al,(%r14)
    28f9:	0f b6 04 3e          	movzbl (%rsi,%rdi,1),%eax
    28fd:	84 c0                	test   %al,%al
    28ff:	0f 84 53 17 00 00    	je     4058 <aet_describe_pc+0x22d8>
    2905:	48 83 c7 01          	add    $0x1,%rdi
    2909:	49 83 c6 01          	add    $0x1,%r14
    290d:	48 83 ff 30          	cmp    $0x30,%rdi
    2911:	75 dd                	jne    28f0 <aet_describe_pc+0xb70>
    2913:	48 8d bc 24 cf 01 00 	lea    0x1cf(%rsp),%rdi
    291a:	00 
    291b:	0f b6 84 24 68 08 00 	movzbl 0x868(%rsp),%eax
    2922:	00 
    2923:	c6 07 00             	movb   $0x0,(%rdi)
    2926:	84 c0                	test   %al,%al
    2928:	0f 84 db 32 00 00    	je     5c09 <aet_describe_pc+0x3e89>
    292e:	48 8d b4 24 d0 01 00 	lea    0x1d0(%rsp),%rsi
    2935:	00 
    2936:	4c 8b 25 00 00 00 00 	mov    0x0(%rip),%r12        # 293d <aet_describe_pc+0xbbd>
    293d:	bf 01 00 00 00       	mov    $0x1,%edi
    2942:	48 89 b4 24 e8 00 00 	mov    %rsi,0xe8(%rsp)
    2949:	00 
    294a:	49 89 f6             	mov    %rsi,%r14
    294d:	48 8d b4 24 68 08 00 	lea    0x868(%rsp),%rsi
    2954:	00 
    2955:	66 66 2e 0f 1f 84 00 	data16 cs nopw 0x0(%rax,%rax,1)
    295c:	00 00 00 00 
    2960:	0f b6 c8             	movzbl %al,%ecx
    2963:	41 ff d4             	call   *%r12
    2966:	41 88 06             	mov    %al,(%r14)
    2969:	0f b6 04 3e          	movzbl (%rsi,%rdi,1),%eax
    296d:	84 c0                	test   %al,%al
    296f:	0f 84 d3 16 00 00    	je     4048 <aet_describe_pc+0x22c8>
    2975:	48 83 c7 01          	add    $0x1,%rdi
    2979:	49 83 c6 01          	add    $0x1,%r14
    297d:	48 83 ff 30          	cmp    $0x30,%rdi
    2981:	75 dd                	jne    2960 <aet_describe_pc+0xbe0>
    2983:	48 8d bc 24 ff 01 00 	lea    0x1ff(%rsp),%rdi
    298a:	00 
    298b:	c6 07 00             	movb   $0x0,(%rdi)
    298e:	48 8b 8c 24 90 00 00 	mov    0x90(%rsp),%rcx
    2995:	00 
    2996:	48 8d 84 24 00 08 00 	lea    0x800(%rsp),%rax
    299d:	00 
    299e:	48 8d 35 28 01 00 00 	lea    0x128(%rip),%rsi        # 2acd <aet_describe_pc+0xd4d>
    29a5:	80 bc 24 00 08 00 00 	cmpb   $0x0,0x800(%rsp)
    29ac:	00 
    29ad:	48 0f 45 f0          	cmovne %rax,%rsi
    29b1:	e8 ba d9 ff ff       	call   370 <get_title>
    29b6:	49 89 c4             	mov    %rax,%r12
    29b9:	48 8b 84 24 88 00 00 	mov    0x88(%rsp),%rax
    29c0:	00 
    29c1:	0f b6 08             	movzbl (%rax),%ecx
    29c4:	84 c9                	test   %cl,%cl
    29c6:	0f 84 34 16 00 00    	je     4000 <aet_describe_pc+0x2280>
    29cc:	ff 94 24 98 00 00 00 	call   *0x98(%rsp)
    29d3:	48 8d 8c 24 41 01 00 	lea    0x141(%rsp),%rcx
    29da:	00 
    29db:	41 b8 0e 00 00 00    	mov    $0xe,%r8d
    29e1:	88 84 24 40 01 00 00 	mov    %al,0x140(%rsp)
    29e8:	48 8b 84 24 88 00 00 	mov    0x88(%rsp),%rax
    29ef:	00 
    29f0:	48 8d 50 01          	lea    0x1(%rax),%rdx
    29f4:	e8 00 00 00 00       	call   29f9 <aet_describe_pc+0xc79>
    29f9:	c6 84 24 4f 01 00 00 	movb   $0x0,0x14f(%rsp)
    2a00:	00 
    2a01:	8b 8c 24 b4 00 00 00 	mov    0xb4(%rsp),%ecx
    2a08:	48 8d bc 24 38 01 00 	lea    0x138(%rsp),%rdi
    2a0f:	00 
    2a10:	ff 94 24 98 00 00 00 	call   *0x98(%rsp)
    2a17:	48 8b 94 24 b8 00 00 	mov    0xb8(%rsp),%rdx
    2a1e:	00 
    2a1f:	48 8d 8c 24 51 01 00 	lea    0x151(%rsp),%rcx
    2a26:	00 
    2a27:	41 b8 0e 00 00 00    	mov    $0xe,%r8d
    2a2d:	88 84 24 50 01 00 00 	mov    %al,0x150(%rsp)
    2a34:	e8 00 00 00 00       	call   2a39 <aet_describe_pc+0xcb9>
    2a39:	4c 89 64 24 28       	mov    %r12,0x28(%rsp)
    2a3e:	48 89 d9             	mov    %rbx,%rcx
    2a41:	49 89 f8             	mov    %rdi,%r8
    2a44:	80 bc 24 40 07 00 00 	cmpb   $0x0,0x740(%rsp)
    2a4b:	00 
    2a4c:	48 8d 05 b0 0c 00 00 	lea    0xcb0(%rip),%rax        # 3703 <aet_describe_pc+0x1983>
    2a53:	48 89 ea             	mov    %rbp,%rdx
    2a56:	48 0f 45 84 24 90 00 	cmovne 0x90(%rsp),%rax
    2a5d:	00 00 
    2a5f:	4c 8d 0d 4a 0f 00 00 	lea    0xf4a(%rip),%r9        # 39b0 <aet_describe_pc+0x1c30>
    2a66:	c6 84 24 5f 01 00 00 	movb   $0x0,0x15f(%rsp)
    2a6d:	00 
    2a6e:	48 89 44 24 20       	mov    %rax,0x20(%rsp)
    2a73:	e8 88 d8 ff ff       	call   300 <d_apf>
    2a78:	48 8d 05 c6 0c 00 00 	lea    0xcc6(%rip),%rax        # 3745 <aet_describe_pc+0x19c5>
    2a7f:	48 8d 0d e3 0c 00 00 	lea    0xce3(%rip),%rcx        # 3769 <aet_describe_pc+0x19e9>
    2a86:	83 bc 24 fc 08 00 00 	cmpl   $0xf,0x8fc(%rsp)
    2a8d:	0f 
    2a8e:	48 0f 4d c8          	cmovge %rax,%rcx
    2a92:	48 b8 54 69 6e 79 20 	movabs $0x27332820796e6954,%rax
    2a99:	28 33 27 
    2a9c:	48 39 84 24 18 08 00 	cmp    %rax,0x818(%rsp)
    2aa3:	00 
    2aa4:	0f 84 86 16 00 00    	je     4130 <aet_describe_pc+0x23b0>
    2aaa:	48 b8 53 68 6f 72 74 	movabs $0x34282074726f6853,%rax
    2ab1:	20 28 34 
    2ab4:	48 33 84 24 18 08 00 	xor    0x818(%rsp),%rax
    2abb:	00 
    2abc:	48 ba 27 20 2d 20 35 	movabs $0x292735202d2027,%rdx
    2ac3:	27 29 00 
    2ac6:	48 33 94 24 20 08 00 	xor    0x820(%rsp),%rdx
    2acd:	00 
    2ace:	4c 8d 05 08 0d 00 00 	lea    0xd08(%rip),%r8        # 37dd <aet_describe_pc+0x1a5d>
    2ad5:	48 09 d0             	or     %rdx,%rax
    2ad8:	0f 84 8e 00 00 00    	je     2b6c <aet_describe_pc+0xdec>
    2ade:	48 b8 41 76 65 72 61 	movabs $0x2065676172657641,%rax
    2ae5:	67 65 20 
    2ae8:	48 ba 28 35 27 20 2d 	movabs $0x2735202d20273528,%rdx
    2aef:	20 35 27 
    2af2:	48 33 84 24 18 08 00 	xor    0x818(%rsp),%rax
    2af9:	00 
    2afa:	48 33 94 24 20 08 00 	xor    0x820(%rsp),%rdx
    2b01:	00 
    2b02:	48 09 d0             	or     %rdx,%rax
    2b05:	0f 84 0d 29 00 00    	je     5418 <aet_describe_pc+0x3698>
    2b0b:	48 b8 54 61 6c 6c 20 	movabs $0x273528206c6c6154,%rax
    2b12:	28 35 27 
    2b15:	48 ba 38 22 20 2d 20 	movabs $0x292736202d202238,%rdx
    2b1c:	36 27 29 
    2b1f:	48 33 84 24 18 08 00 	xor    0x818(%rsp),%rax
    2b26:	00 
    2b27:	48 33 94 24 20 08 00 	xor    0x820(%rsp),%rdx
    2b2e:	00 
    2b2f:	48 09 d0             	or     %rdx,%rax
    2b32:	0f 84 d8 2d 00 00    	je     5910 <aet_describe_pc+0x3b90>
    2b38:	48 b8 56 65 72 79 20 	movabs $0x6c61542079726556,%rax
    2b3f:	54 61 6c 
    2b42:	48 ba 6c 20 28 36 27 	movabs $0x202d20273628206c,%rdx
    2b49:	20 2d 20 
    2b4c:	48 33 84 24 18 08 00 	xor    0x818(%rsp),%rax
    2b53:	00 
    2b54:	48 33 94 24 20 08 00 	xor    0x820(%rsp),%rdx
    2b5b:	00 
    2b5c:	48 09 d0             	or     %rdx,%rax
    2b5f:	0f 84 1e 2f 00 00    	je     5a83 <aet_describe_pc+0x3d03>
    2b65:	4c 8d 05 0d 0d 00 00 	lea    0xd0d(%rip),%r8        # 3879 <aet_describe_pc+0x1af9>
    2b6c:	66 81 bc 24 e8 07 00 	cmpw   $0x6568,0x7e8(%rsp)
    2b73:	00 68 65 
    2b76:	0f 84 b4 16 00 00    	je     4230 <aet_describe_pc+0x24b0>
    2b7c:	48 8d 05 24 0d 00 00 	lea    0xd24(%rip),%rax        # 38a7 <aet_describe_pc+0x1b27>
    2b83:	48 8d 15 18 0d 00 00 	lea    0xd18(%rip),%rdx        # 38a2 <aet_describe_pc+0x1b22>
    2b8a:	81 bc 24 e8 07 00 00 	cmpl   $0x656873,0x7e8(%rsp)
    2b91:	73 68 65 00 
    2b95:	48 0f 44 c2          	cmove  %rdx,%rax
    2b99:	48 89 44 24 38       	mov    %rax,0x38(%rsp)
    2b9e:	48 8b 84 24 a0 00 00 	mov    0xa0(%rsp),%rax
    2ba5:	00 
    2ba6:	48 8d 94 24 a0 04 00 	lea    0x4a0(%rsp),%rdx
    2bad:	00 
    2bae:	4c 8d 0d c0 0f 00 00 	lea    0xfc0(%rip),%r9        # 3b75 <aet_describe_pc+0x1df5>
    2bb5:	48 89 54 24 60       	mov    %rdx,0x60(%rsp)
    2bba:	48 8d 94 24 50 01 00 	lea    0x150(%rsp),%rdx
    2bc1:	00 
    2bc2:	48 89 44 24 30       	mov    %rax,0x30(%rsp)
    2bc7:	48 8d 84 24 40 01 00 	lea    0x140(%rsp),%rax
    2bce:	00 
    2bcf:	48 89 54 24 58       	mov    %rdx,0x58(%rsp)
    2bd4:	48 89 4c 24 50       	mov    %rcx,0x50(%rsp)
    2bd9:	48 89 d9             	mov    %rbx,%rcx
    2bdc:	4c 89 44 24 48       	mov    %r8,0x48(%rsp)
    2be1:	49 89 f8             	mov    %rdi,%r8
    2be4:	48 89 44 24 20       	mov    %rax,0x20(%rsp)
    2be9:	48 89 74 24 40       	mov    %rsi,0x40(%rsp)
    2bee:	4c 89 7c 24 28       	mov    %r15,0x28(%rsp)
    2bf3:	48 89 94 24 a8 00 00 	mov    %rdx,0xa8(%rsp)
    2bfa:	00 
    2bfb:	48 89 ea             	mov    %rbp,%rdx
    2bfe:	48 89 84 24 c0 00 00 	mov    %rax,0xc0(%rsp)
    2c05:	00 
    2c06:	e8 f5 d6 ff ff       	call   300 <d_apf>
    2c0b:	48 b8 53 6c 65 6e 64 	movabs $0x7265646e656c53,%rax
    2c12:	65 72 00 
    2c15:	48 39 84 24 50 08 00 	cmp    %rax,0x850(%rsp)
    2c1c:	00 
    2c1d:	0f 84 bb 13 00 00    	je     3fde <aet_describe_pc+0x225e>
    2c23:	81 bc 24 50 08 00 00 	cmpl   $0x6e61654c,0x850(%rsp)
    2c2a:	4c 65 61 6e 
    2c2e:	0f 84 9c 13 00 00    	je     3fd0 <aet_describe_pc+0x2250>
    2c34:	83 bc 24 e8 08 00 00 	cmpl   $0xe,0x8e8(%rsp)
    2c3b:	0e 
    2c3c:	0f 8f 36 2f 00 00    	jg     5b78 <aet_describe_pc+0x3df8>
    2c42:	48 b8 4d 75 73 63 75 	movabs $0x72616c756373754d,%rax
    2c49:	6c 61 72 
    2c4c:	48 39 84 24 50 08 00 	cmp    %rax,0x850(%rsp)
    2c53:	00 
    2c54:	0f 84 3d 2d 00 00    	je     5997 <aet_describe_pc+0x3c17>
    2c5a:	66 0f 1f 44 00 00    	nopw   0x0(%rax,%rax,1)
    2c60:	4c 8d 0d 72 10 00 00 	lea    0x1072(%rip),%r9        # 3cd9 <aet_describe_pc+0x1f59>
    2c67:	49 89 f8             	mov    %rdi,%r8
    2c6a:	48 89 ea             	mov    %rbp,%rdx
    2c6d:	48 89 d9             	mov    %rbx,%rcx
    2c70:	e8 8b d6 ff ff       	call   300 <d_apf>
    2c75:	8b 8c 24 b4 00 00 00 	mov    0xb4(%rsp),%ecx
    2c7c:	ff 94 24 98 00 00 00 	call   *0x98(%rsp)
    2c83:	48 8b 94 24 b8 00 00 	mov    0xb8(%rsp),%rdx
    2c8a:	00 
    2c8b:	41 b8 0e 00 00 00    	mov    $0xe,%r8d
    2c91:	88 84 24 f0 09 00 00 	mov    %al,0x9f0(%rsp)
    2c98:	48 8d 84 24 f1 09 00 	lea    0x9f1(%rsp),%rax
    2c9f:	00 
    2ca0:	48 89 c1             	mov    %rax,%rcx
    2ca3:	48 89 84 24 28 01 00 	mov    %rax,0x128(%rsp)
    2caa:	00 
    2cab:	e8 00 00 00 00       	call   2cb0 <aet_describe_pc+0xf30>
    2cb0:	c6 84 24 ff 09 00 00 	movb   $0x0,0x9ff(%rsp)
    2cb7:	00 
    2cb8:	8b 84 24 ec 08 00 00 	mov    0x8ec(%rsp),%eax
    2cbf:	c6 84 24 f0 55 00 00 	movb   $0x0,0x55f0(%rsp)
    2cc6:	00 
    2cc7:	83 bc 24 e8 08 00 00 	cmpl   $0x11,0x8e8(%rsp)
    2cce:	11 
    2ccf:	0f 8f 4b 1e 00 00    	jg     4b20 <aet_describe_pc+0x2da0>
    2cd5:	83 f8 11             	cmp    $0x11,%eax
    2cd8:	0f 8f 2a 24 00 00    	jg     5108 <aet_describe_pc+0x3388>
    2cde:	8b 84 24 0c 09 00 00 	mov    0x90c(%rsp),%eax
    2ce5:	83 bc 24 f0 08 00 00 	cmpl   $0x11,0x8f0(%rsp)
    2cec:	11 
    2ced:	0f 8e 8d 1f 00 00    	jle    4c80 <aet_describe_pc+0x2f00>
    2cf3:	48 b9 73 73 20 65 6e 	movabs $0x6772656e65207373,%rcx
    2cfa:	65 72 67 
    2cfd:	48 ba 61 20 72 65 73 	movabs $0x656c747365722061,%rdx
    2d04:	74 6c 65 
    2d07:	48 c7 84 24 38 1a 00 	movq   $0x0,0x1a38(%rsp)
    2d0e:	00 00 00 00 00 
    2d13:	48 89 8c 24 f8 19 00 	mov    %rcx,0x19f8(%rsp)
    2d1a:	00 
    2d1b:	48 b9 67 20 61 74 20 	movabs $0x67696c2074612067,%rcx
    2d22:	6c 69 67 
    2d25:	48 89 8c 24 08 1a 00 	mov    %rcx,0x1a08(%rsp)
    2d2c:	00 
    2d2d:	48 b9 61 73 74 20 72 	movabs $0x6c66657220747361,%rcx
    2d34:	65 66 6c 
    2d37:	48 89 94 24 f0 19 00 	mov    %rdx,0x19f0(%rsp)
    2d3e:	00 
    2d3f:	48 ba 79 20 68 69 6e 	movabs $0x6e69746e69682079,%rdx
    2d46:	74 69 6e 
    2d49:	48 89 8c 24 18 1a 00 	mov    %rcx,0x1a18(%rsp)
    2d50:	00 
    2d51:	48 c7 84 24 20 1a 00 	movq   $0x73657865,0x1a20(%rsp)
    2d58:	00 65 78 65 73 
    2d5d:	48 c7 84 24 28 1a 00 	movq   $0x0,0x1a28(%rsp)
    2d64:	00 00 00 00 00 
    2d69:	48 c7 84 24 30 1a 00 	movq   $0x0,0x1a30(%rsp)
    2d70:	00 00 00 00 00 
    2d75:	48 c7 84 24 3f 1a 00 	movq   $0x0,0x1a3f(%rsp)
    2d7c:	00 00 00 00 00 
    2d81:	48 c7 84 24 47 1a 00 	movq   $0x0,0x1a47(%rsp)
    2d88:	00 00 00 00 00 
    2d8d:	48 89 94 24 00 1a 00 	mov    %rdx,0x1a00(%rsp)
    2d94:	00 
    2d95:	48 ba 68 74 6e 69 6e 	movabs $0x662d676e696e7468,%rdx
    2d9c:	67 2d 66 
    2d9f:	48 89 94 24 10 1a 00 	mov    %rdx,0x1a10(%rsp)
    2da6:	00 
    2da7:	ba 61 00 00 00       	mov    $0x61,%edx
    2dac:	83 f8 32             	cmp    $0x32,%eax
    2daf:	0f 8e b0 00 00 00    	jle    2e65 <aet_describe_pc+0x10e5>
    2db5:	84 d2                	test   %dl,%dl
    2db7:	0f 85 83 0f 00 00    	jne    3d40 <aet_describe_pc+0x1fc0>
    2dbd:	48 b8 61 20 73 75 62 	movabs $0x656c746275732061,%rax
    2dc4:	74 6c 65 
    2dc7:	48 ba 2c 20 75 6e 73 	movabs $0x747465736e75202c,%rdx
    2dce:	65 74 74 
    2dd1:	48 c7 84 24 38 1a 00 	movq   $0x0,0x1a38(%rsp)
    2dd8:	00 00 00 00 00 
    2ddd:	48 89 84 24 f0 19 00 	mov    %rax,0x19f0(%rsp)
    2de4:	00 
    2de5:	48 b8 6c 69 6e 67 20 	movabs $0x69617420676e696c,%rax
    2dec:	74 61 69 
    2def:	48 89 84 24 00 1a 00 	mov    %rax,0x1a00(%rsp)
    2df6:	00 
    2df7:	48 c7 84 24 10 1a 00 	movq   $0x0,0x1a10(%rsp)
    2dfe:	00 00 00 00 00 
    2e03:	48 c7 84 24 18 1a 00 	movq   $0x0,0x1a18(%rsp)
    2e0a:	00 00 00 00 00 
    2e0f:	48 c7 84 24 20 1a 00 	movq   $0x0,0x1a20(%rsp)
    2e16:	00 00 00 00 00 
    2e1b:	48 c7 84 24 28 1a 00 	movq   $0x0,0x1a28(%rsp)
    2e22:	00 00 00 00 00 
    2e27:	48 c7 84 24 30 1a 00 	movq   $0x0,0x1a30(%rsp)
    2e2e:	00 00 00 00 00 
    2e33:	48 c7 84 24 3f 1a 00 	movq   $0x0,0x1a3f(%rsp)
    2e3a:	00 00 00 00 00 
    2e3f:	48 c7 84 24 47 1a 00 	movq   $0x0,0x1a47(%rsp)
    2e46:	00 00 00 00 00 
    2e4b:	48 89 94 24 f8 19 00 	mov    %rdx,0x19f8(%rsp)
    2e52:	00 
    2e53:	ba 6e 74 00 00       	mov    $0x746e,%edx
    2e58:	48 89 94 24 08 1a 00 	mov    %rdx,0x1a08(%rsp)
    2e5f:	00 
    2e60:	ba 61 00 00 00       	mov    $0x61,%edx
    2e65:	84 d2                	test   %dl,%dl
    2e67:	0f 85 88 1d 00 00    	jne    4bf5 <aet_describe_pc+0x2e75>
    2e6d:	48 8d b4 24 f0 09 00 	lea    0x9f0(%rsp),%rsi
    2e74:	00 
    2e75:	81 bc 24 60 01 00 00 	cmpl   $0x656e6f6e,0x160(%rsp)
    2e7c:	6e 6f 6e 65 
    2e80:	0f 84 c0 0f 00 00    	je     3e46 <aet_describe_pc+0x20c6>
    2e86:	4c 89 6c 24 30       	mov    %r13,0x30(%rsp)
    2e8b:	48 89 ea             	mov    %rbp,%rdx
    2e8e:	48 89 d9             	mov    %rbx,%rcx
    2e91:	49 89 f8             	mov    %rdi,%r8
    2e94:	48 8b 84 24 c0 00 00 	mov    0xc0(%rsp),%rax
    2e9b:	00 
    2e9c:	4c 89 7c 24 28       	mov    %r15,0x28(%rsp)
    2ea1:	4c 8d 0d 84 10 00 00 	lea    0x1084(%rip),%r9        # 3f2c <aet_describe_pc+0x21ac>
    2ea8:	48 89 44 24 20       	mov    %rax,0x20(%rsp)
    2ead:	e8 4e d4 ff ff       	call   300 <d_apf>
    2eb2:	48 8d 15 95 10 00 00 	lea    0x1095(%rip),%rdx        # 3f4e <aet_describe_pc+0x21ce>
    2eb9:	4c 89 e9             	mov    %r13,%rcx
    2ebc:	e8 00 00 00 00       	call   2ec1 <aet_describe_pc+0x1141>
    2ec1:	48 85 c0             	test   %rax,%rax
    2ec4:	74 0e                	je     2ed4 <aet_describe_pc+0x1154>
    2ec6:	83 bc 24 e8 08 00 00 	cmpl   $0xa,0x8e8(%rsp)
    2ecd:	0a 
    2ece:	0f 8f ae 25 00 00    	jg     5482 <aet_describe_pc+0x3702>
    2ed4:	48 8d 15 d3 10 00 00 	lea    0x10d3(%rip),%rdx        # 3fae <aet_describe_pc+0x222e>
    2edb:	4c 89 e9             	mov    %r13,%rcx
    2ede:	e8 00 00 00 00       	call   2ee3 <aet_describe_pc+0x1163>
    2ee3:	48 85 c0             	test   %rax,%rax
    2ee6:	74 0e                	je     2ef6 <aet_describe_pc+0x1176>
    2ee8:	83 bc 24 f4 08 00 00 	cmpl   $0xa,0x8f4(%rsp)
    2eef:	0a 
    2ef0:	0f 8f 34 2a 00 00    	jg     592a <aet_describe_pc+0x3baa>
    2ef6:	48 8d 15 23 11 00 00 	lea    0x1123(%rip),%rdx        # 4020 <aet_describe_pc+0x22a0>
    2efd:	4c 89 e9             	mov    %r13,%rcx
    2f00:	e8 00 00 00 00       	call   2f05 <aet_describe_pc+0x1185>
    2f05:	48 85 c0             	test   %rax,%rax
    2f08:	0f 84 60 29 00 00    	je     586e <aet_describe_pc+0x3aee>
    2f0e:	4c 8d 0d 30 11 00 00 	lea    0x1130(%rip),%r9        # 4045 <aet_describe_pc+0x22c5>
    2f15:	83 bc 24 00 09 00 00 	cmpl   $0xa,0x900(%rsp)
    2f1c:	0a 
    2f1d:	7f 07                	jg     2f26 <aet_describe_pc+0x11a6>
    2f1f:	4c 8d 0d 68 11 00 00 	lea    0x1168(%rip),%r9        # 408e <aet_describe_pc+0x230e>
    2f26:	49 89 f8             	mov    %rdi,%r8
    2f29:	48 89 ea             	mov    %rbp,%rdx
    2f2c:	48 89 d9             	mov    %rbx,%rcx
    2f2f:	e8 cc d3 ff ff       	call   300 <d_apf>
    2f34:	48 8d 84 24 00 02 00 	lea    0x200(%rsp),%rax
    2f3b:	00 
    2f3c:	48 89 84 24 d0 00 00 	mov    %rax,0xd0(%rsp)
    2f43:	00 
    2f44:	81 bc 24 80 01 00 00 	cmpl   $0x656e6f6e,0x180(%rsp)
    2f4b:	6e 6f 6e 65 
    2f4f:	0f 84 fb 12 00 00    	je     4250 <aet_describe_pc+0x24d0>
    2f55:	4c 8d 0d c0 11 00 00 	lea    0x11c0(%rip),%r9        # 411c <aet_describe_pc+0x239c>
    2f5c:	49 89 f8             	mov    %rdi,%r8
    2f5f:	48 89 ea             	mov    %rbp,%rdx
    2f62:	48 89 d9             	mov    %rbx,%rcx
    2f65:	48 8b 84 24 f0 00 00 	mov    0xf0(%rsp),%rax
    2f6c:	00 
    2f6d:	48 89 44 24 38       	mov    %rax,0x38(%rsp)
    2f72:	48 8b 84 24 d8 00 00 	mov    0xd8(%rsp),%rax
    2f79:	00 
    2f7a:	48 89 44 24 30       	mov    %rax,0x30(%rsp)
    2f7f:	48 8b 84 24 88 00 00 	mov    0x88(%rsp),%rax
    2f86:	00 
    2f87:	48 89 44 24 28       	mov    %rax,0x28(%rsp)
    2f8c:	48 8b 84 24 80 00 00 	mov    0x80(%rsp),%rax
    2f93:	00 
    2f94:	48 89 44 24 20       	mov    %rax,0x20(%rsp)
    2f99:	e8 62 d3 ff ff       	call   300 <d_apf>
    2f9e:	4c 8d 0d e1 11 00 00 	lea    0x11e1(%rip),%r9        # 4186 <aet_describe_pc+0x2406>
    2fa5:	49 89 f8             	mov    %rdi,%r8
    2fa8:	48 89 ea             	mov    %rbp,%rdx
    2fab:	48 89 d9             	mov    %rbx,%rcx
    2fae:	e8 4d d3 ff ff       	call   300 <d_apf>
    2fb3:	49 89 f8             	mov    %rdi,%r8
    2fb6:	48 89 ea             	mov    %rbp,%rdx
    2fb9:	48 89 d9             	mov    %rbx,%rcx
    2fbc:	48 8b 84 24 d0 00 00 	mov    0xd0(%rsp),%rax
    2fc3:	00 
    2fc4:	4c 8b 8c 24 90 00 00 	mov    0x90(%rsp),%r9
    2fcb:	00 
    2fcc:	48 89 44 24 20       	mov    %rax,0x20(%rsp)
    2fd1:	e8 9a dd ff ff       	call   d70 <face_desc_append>
    2fd6:	80 bc 24 40 02 00 00 	cmpb   $0x0,0x240(%rsp)
    2fdd:	00 
    2fde:	74 7f                	je     305f <aet_describe_pc+0x12df>
    2fe0:	48 8b 8c 24 08 01 00 	mov    0x108(%rsp),%rcx
    2fe7:	00 
    2fe8:	48 8d 15 21 00 00 00 	lea    0x21(%rip),%rdx        # 3010 <aet_describe_pc+0x1290>
    2fef:	e8 00 00 00 00       	call   2ff4 <aet_describe_pc+0x1274>
    2ff4:	85 c0                	test   %eax,%eax
    2ff6:	0f 84 c4 1c 00 00    	je     4cc0 <aet_describe_pc+0x2f40>
    2ffc:	48 8b 8c 24 08 01 00 	mov    0x108(%rsp),%rcx
    3003:	00 
    3004:	48 8d 15 11 00 00 00 	lea    0x11(%rip),%rdx        # 301c <aet_describe_pc+0x129c>
    300b:	e8 00 00 00 00       	call   3010 <aet_describe_pc+0x1290>
    3010:	85 c0                	test   %eax,%eax
    3012:	74 1c                	je     3030 <aet_describe_pc+0x12b0>
    3014:	48 8b 8c 24 08 01 00 	mov    0x108(%rsp),%rcx
    301b:	00 
    301c:	48 8d 15 0a 00 00 00 	lea    0xa(%rip),%rdx        # 302d <aet_describe_pc+0x12ad>
    3023:	e8 00 00 00 00       	call   3028 <aet_describe_pc+0x12a8>
    3028:	85 c0                	test   %eax,%eax
    302a:	0f 85 90 1c 00 00    	jne    4cc0 <aet_describe_pc+0x2f40>
    3030:	4c 8d 0d f8 11 00 00 	lea    0x11f8(%rip),%r9        # 422f <aet_describe_pc+0x24af>
    3037:	49 89 f8             	mov    %rdi,%r8
    303a:	48 89 ea             	mov    %rbp,%rdx
    303d:	48 89 d9             	mov    %rbx,%rcx
    3040:	48 8b 84 24 20 01 00 	mov    0x120(%rsp),%rax
    3047:	00 
    3048:	48 89 44 24 28       	mov    %rax,0x28(%rsp)
    304d:	48 8b 84 24 80 00 00 	mov    0x80(%rsp),%rax
    3054:	00 
    3055:	48 89 44 24 20       	mov    %rax,0x20(%rsp)
    305a:	e8 a1 d2 ff ff       	call   300 <d_apf>
    305f:	4c 8d 0d 0d 02 00 00 	lea    0x20d(%rip),%r9        # 3273 <aet_describe_pc+0x14f3>
    3066:	49 89 f8             	mov    %rdi,%r8
    3069:	48 89 ea             	mov    %rbp,%rdx
    306c:	48 89 d9             	mov    %rbx,%rcx
    306f:	e8 8c d2 ff ff       	call   300 <d_apf>
    3074:	48 b8 59 6f 75 74 68 	movabs $0x6c75666874756f59,%rax
    307b:	66 75 6c 
    307e:	48 39 84 24 50 09 00 	cmp    %rax,0x950(%rsp)
    3085:	00 
    3086:	0f 84 64 10 00 00    	je     40f0 <aet_describe_pc+0x2370>
    308c:	48 b8 4d 69 64 64 6c 	movabs $0x412d656c6464694d,%rax
    3093:	65 2d 41 
    3096:	48 39 84 24 50 09 00 	cmp    %rax,0x950(%rsp)
    309d:	00 
    309e:	0f 84 ec 1d 00 00    	je     4e90 <aet_describe_pc+0x3110>
    30a4:	48 b8 57 65 61 74 68 	movabs $0x6572656874616557,%rax
    30ab:	65 72 65 
    30ae:	48 39 84 24 50 09 00 	cmp    %rax,0x950(%rsp)
    30b5:	00 
    30b6:	0f 84 14 22 00 00    	je     52d0 <aet_describe_pc+0x3550>
    30bc:	4c 8b 8c 24 80 00 00 	mov    0x80(%rsp),%r9
    30c3:	00 
    30c4:	4c 8d a4 24 a0 03 00 	lea    0x3a0(%rsp),%r12
    30cb:	00 
    30cc:	48 b8 41 67 65 6c 65 	movabs $0x7373656c656741,%rax
    30d3:	73 73 00 
    30d6:	48 39 84 24 50 09 00 	cmp    %rax,0x950(%rsp)
    30dd:	00 
    30de:	0f 84 cc 27 00 00    	je     58b0 <aet_describe_pc+0x3b30>
    30e4:	4c 8d 05 30 13 00 00 	lea    0x1330(%rip),%r8        # 441b <aet_describe_pc+0x269b>
    30eb:	ba 00 01 00 00       	mov    $0x100,%edx
    30f0:	4c 89 e1             	mov    %r12,%rcx
    30f3:	e8 00 00 00 00       	call   30f8 <aet_describe_pc+0x1378>
    30f8:	81 bc 24 e8 07 00 00 	cmpl   $0x656873,0x7e8(%rsp)
    30ff:	73 68 65 00 
    3103:	0f 84 77 0f 00 00    	je     4080 <aet_describe_pc+0x2300>
    3109:	66 81 bc 24 e8 07 00 	cmpw   $0x6568,0x7e8(%rsp)
    3110:	00 68 65 
    3113:	0f 84 cf 1f 00 00    	je     50e8 <aet_describe_pc+0x3368>
    3119:	48 8d 15 ec 0d 00 00 	lea    0xdec(%rip),%rdx        # 3f0c <aet_describe_pc+0x218c>
    3120:	8b 84 24 18 01 00 00 	mov    0x118(%rsp),%eax
    3127:	66 0f ef c0          	pxor   %xmm0,%xmm0
    312b:	b9 04 00 00 00       	mov    $0x4,%ecx
    3130:	f2 0f 10 0d 08 30 00 	movsd  0x3008(%rip),%xmm1        # 6140 <aet_describe_pc+0x43c0>
    3137:	00 
    3138:	f2 48 0f 2a c0       	cvtsi2sd %rax,%xmm0
    313d:	f2 0f 59 c1          	mulsd  %xmm1,%xmm0
    3141:	f2 0f 59 05 28 30 00 	mulsd  0x3028(%rip),%xmm0        # 6171 <aet_describe_pc+0x43f1>
    3148:	00 
    3149:	f2 0f 2c c0          	cvttsd2si %xmm0,%eax
    314d:	39 c8                	cmp    %ecx,%eax
    314f:	0f 4f c1             	cmovg  %ecx,%eax
    3152:	48 8d 0d e0 2f 00 00 	lea    0x2fe0(%rip),%rcx        # 6139 <aet_describe_pc+0x43b9>
    3159:	48 98                	cltq
    315b:	48 8b 0c c1          	mov    (%rcx,%rax,8),%rcx
    315f:	48 8d 05 9a 0d 00 00 	lea    0xd9a(%rip),%rax        # 3f00 <aet_describe_pc+0x2180>
    3166:	83 bc 24 04 09 00 00 	cmpl   $0xe,0x904(%rsp)
    316d:	0e 
    316e:	7f 60                	jg     31d0 <aet_describe_pc+0x1450>
    3170:	8b 84 24 1c 01 00 00 	mov    0x11c(%rsp),%eax
    3177:	66 0f ef c0          	pxor   %xmm0,%xmm0
    317b:	f2 48 0f 2a c0       	cvtsi2sd %rax,%xmm0
    3180:	f2 0f 59 c1          	mulsd  %xmm1,%xmm0
    3184:	48 8d 05 75 0d 00 00 	lea    0xd75(%rip),%rax        # 3f00 <aet_describe_pc+0x2180>
    318b:	f2 0f 10 0d 10 30 00 	movsd  0x3010(%rip),%xmm1        # 61a3 <aet_describe_pc+0x4423>
    3192:	00 
    3193:	66 0f 2f c8          	comisd %xmm0,%xmm1
    3197:	77 37                	ja     31d0 <aet_describe_pc+0x1450>
    3199:	f2 0f 10 0d 18 30 00 	movsd  0x3018(%rip),%xmm1        # 61b9 <aet_describe_pc+0x4439>
    31a0:	00 
    31a1:	48 8d 05 7c 0d 00 00 	lea    0xd7c(%rip),%rax        # 3f24 <aet_describe_pc+0x21a4>
    31a8:	66 0f 2f c8          	comisd %xmm0,%xmm1
    31ac:	77 22                	ja     31d0 <aet_describe_pc+0x1450>
    31ae:	f2 0f 10 0d 20 30 00 	movsd  0x3020(%rip),%xmm1        # 61d6 <aet_describe_pc+0x4456>
    31b5:	00 
    31b6:	48 8d 05 89 0d 00 00 	lea    0xd89(%rip),%rax        # 3f46 <aet_describe_pc+0x21c6>
    31bd:	4c 8d 05 91 0d 00 00 	lea    0xd91(%rip),%r8        # 3f55 <aet_describe_pc+0x21d5>
    31c4:	66 0f 2f c8          	comisd %xmm0,%xmm1
    31c8:	49 0f 46 c0          	cmovbe %r8,%rax
    31cc:	0f 1f 40 00          	nopl   0x0(%rax)
    31d0:	48 89 44 24 30       	mov    %rax,0x30(%rsp)
    31d5:	48 8b 84 24 80 00 00 	mov    0x80(%rsp),%rax
    31dc:	00 
    31dd:	4c 8d 0d 60 13 00 00 	lea    0x1360(%rip),%r9        # 4544 <aet_describe_pc+0x27c4>
    31e4:	49 89 f8             	mov    %rdi,%r8
    31e7:	48 89 4c 24 40       	mov    %rcx,0x40(%rsp)
    31ec:	48 89 d9             	mov    %rbx,%rcx
    31ef:	48 89 54 24 38       	mov    %rdx,0x38(%rsp)
    31f4:	48 89 ea             	mov    %rbp,%rdx
    31f7:	48 89 44 24 20       	mov    %rax,0x20(%rsp)
    31fc:	4c 89 64 24 28       	mov    %r12,0x28(%rsp)
    3201:	e8 fa d0 ff ff       	call   300 <d_apf>
    3206:	0f b6 84 24 a0 08 00 	movzbl 0x8a0(%rsp),%eax
    320d:	00 
    320e:	84 c0                	test   %al,%al
    3210:	0f 84 8b 2a 00 00    	je     5ca1 <aet_describe_pc+0x3f21>
    3216:	4c 8b 7c 24 78       	mov    0x78(%rsp),%r15
    321b:	4c 8b 25 00 00 00 00 	mov    0x0(%rip),%r12        # 3222 <aet_describe_pc+0x14a2>
    3222:	41 be 01 00 00 00    	mov    $0x1,%r14d
    3228:	4c 8d ac 24 a0 08 00 	lea    0x8a0(%rsp),%r13
    322f:	00 
    3230:	0f b6 c8             	movzbl %al,%ecx
    3233:	41 ff d4             	call   *%r12
    3236:	41 88 07             	mov    %al,(%r15)
    3239:	43 0f b6 44 35 00    	movzbl 0x0(%r13,%r14,1),%eax
    323f:	84 c0                	test   %al,%al
    3241:	0f 84 e1 0d 00 00    	je     4028 <aet_describe_pc+0x22a8>
    3247:	49 83 c6 01          	add    $0x1,%r14
    324b:	49 83 c7 01          	add    $0x1,%r15
    324f:	49 83 fe 20          	cmp    $0x20,%r14
    3253:	75 db                	jne    3230 <aet_describe_pc+0x14b0>
    3255:	4c 8d b4 24 0f 56 00 	lea    0x560f(%rsp),%r14
    325c:	00 
    325d:	48 b8 43 61 74 66 6f 	movabs $0x6b6c6f66746143,%rax
    3264:	6c 6b 00 
    3267:	41 c6 06 00          	movb   $0x0,(%r14)
    326b:	48 39 84 24 80 07 00 	cmp    %rax,0x780(%rsp)
    3272:	00 
    3273:	0f 84 87 04 00 00    	je     3700 <aet_describe_pc+0x1980>
    3279:	48 05 03 0e 04 00    	add    $0x40e03,%rax
    327f:	48 39 84 24 80 07 00 	cmp    %rax,0x780(%rsp)
    3286:	00 
    3287:	0f 84 73 04 00 00    	je     3700 <aet_describe_pc+0x1980>
    328d:	48 b8 57 6f 6c 66 6b 	movabs $0x6e696b666c6f57,%rax
    3294:	69 6e 00 
    3297:	48 39 84 24 80 07 00 	cmp    %rax,0x780(%rsp)
    329e:	00 
    329f:	0f 84 5b 04 00 00    	je     3700 <aet_describe_pc+0x1980>
    32a5:	81 bc 24 80 07 00 00 	cmpl   $0x6f6b654e,0x780(%rsp)
    32ac:	4e 65 6b 6f 
    32b0:	0f 84 32 04 00 00    	je     36e8 <aet_describe_pc+0x1968>
    32b6:	48 b8 4b 69 74 73 75 	movabs $0x656e757374694b,%rax
    32bd:	6e 65 00 
    32c0:	48 39 84 24 80 07 00 	cmp    %rax,0x780(%rsp)
    32c7:	00 
    32c8:	0f 84 32 04 00 00    	je     3700 <aet_describe_pc+0x1980>
    32ce:	48 b8 57 6f 6c 66 6d 	movabs $0x70726f6d666c6f57,%rax
    32d5:	6f 72 70 
    32d8:	48 39 84 24 80 07 00 	cmp    %rax,0x780(%rsp)
    32df:	00 
    32e0:	0f 84 17 2a 00 00    	je     5cfd <aet_describe_pc+0x3f7d>
    32e6:	48 b8 44 72 61 63 6f 	movabs $0x63696e6f63617244,%rax
    32ed:	6e 69 63 
    32f0:	48 39 84 24 80 07 00 	cmp    %rax,0x780(%rsp)
    32f7:	00 
    32f8:	0f 84 cb 29 00 00    	je     5cc9 <aet_describe_pc+0x3f49>
    32fe:	81 bc 24 80 07 00 00 	cmpl   $0x6f6d6544,0x780(%rsp)
    3305:	44 65 6d 6f 
    3309:	0f 84 93 2a 00 00    	je     5da2 <aet_describe_pc+0x4022>
    330f:	48 b8 54 69 65 66 6c 	movabs $0x676e696c66656954,%rax
    3316:	69 6e 67 
    3319:	48 39 84 24 80 07 00 	cmp    %rax,0x780(%rsp)
    3320:	00 
    3321:	0f 84 72 2b 00 00    	je     5e99 <aet_describe_pc+0x4119>
    3327:	48 b8 4c 69 7a 61 72 	movabs $0x6f666472617a694c,%rax
    332e:	64 66 6f 
    3331:	48 39 84 24 80 07 00 	cmp    %rax,0x780(%rsp)
    3338:	00 
    3339:	0f 84 6d 2b 00 00    	je     5eac <aet_describe_pc+0x412c>
    333f:	4c 8b bc 24 a0 00 00 	mov    0xa0(%rsp),%r15
    3346:	00 
    3347:	48 8d 15 aa 00 00 00 	lea    0xaa(%rip),%rdx        # 33f8 <aet_describe_pc+0x1678>
    334e:	4c 89 f9             	mov    %r15,%rcx
    3351:	e8 00 00 00 00       	call   3356 <aet_describe_pc+0x15d6>
    3356:	85 c0                	test   %eax,%eax
    3358:	0f 84 79 29 00 00    	je     5cd7 <aet_describe_pc+0x3f57>
    335e:	48 8d 15 29 04 00 00 	lea    0x429(%rip),%rdx        # 378e <aet_describe_pc+0x1a0e>
    3365:	4c 89 f9             	mov    %r15,%rcx
    3368:	e8 00 00 00 00       	call   336d <aet_describe_pc+0x15ed>
    336d:	85 c0                	test   %eax,%eax
    336f:	0f 84 62 29 00 00    	je     5cd7 <aet_describe_pc+0x3f57>
    3375:	48 8d 15 50 02 00 00 	lea    0x250(%rip),%rdx        # 35cc <aet_describe_pc+0x184c>
    337c:	4c 89 f9             	mov    %r15,%rcx
    337f:	e8 00 00 00 00       	call   3384 <aet_describe_pc+0x1604>
    3384:	85 c0                	test   %eax,%eax
    3386:	0f 84 4b 29 00 00    	je     5cd7 <aet_describe_pc+0x3f57>
    338c:	48 8d 15 55 02 00 00 	lea    0x255(%rip),%rdx        # 35e8 <aet_describe_pc+0x1868>
    3393:	4c 89 f9             	mov    %r15,%rcx
    3396:	e8 00 00 00 00       	call   339b <aet_describe_pc+0x161b>
    339b:	85 c0                	test   %eax,%eax
    339d:	0f 84 34 29 00 00    	je     5cd7 <aet_describe_pc+0x3f57>
    33a3:	4c 8b bc 24 a0 00 00 	mov    0xa0(%rsp),%r15
    33aa:	00 
    33ab:	48 8d 15 d3 00 00 00 	lea    0xd3(%rip),%rdx        # 3485 <aet_describe_pc+0x1705>
    33b2:	4c 89 f9             	mov    %r15,%rcx
    33b5:	e8 00 00 00 00       	call   33ba <aet_describe_pc+0x163a>
    33ba:	85 c0                	test   %eax,%eax
    33bc:	0f 84 ae 2c 00 00    	je     6070 <aet_describe_pc+0x42f0>
    33c2:	48 8d 15 dc 00 00 00 	lea    0xdc(%rip),%rdx        # 34a5 <aet_describe_pc+0x1725>
    33c9:	4c 89 f9             	mov    %r15,%rcx
    33cc:	e8 00 00 00 00       	call   33d1 <aet_describe_pc+0x1651>
    33d1:	85 c0                	test   %eax,%eax
    33d3:	0f 84 97 2c 00 00    	je     6070 <aet_describe_pc+0x42f0>
    33d9:	48 8d 15 e6 00 00 00 	lea    0xe6(%rip),%rdx        # 34c6 <aet_describe_pc+0x1746>
    33e0:	4c 89 f9             	mov    %r15,%rcx
    33e3:	e8 00 00 00 00       	call   33e8 <aet_describe_pc+0x1668>
    33e8:	85 c0                	test   %eax,%eax
    33ea:	0f 84 80 2c 00 00    	je     6070 <aet_describe_pc+0x42f0>
    33f0:	48 8d 15 f3 00 00 00 	lea    0xf3(%rip),%rdx        # 34ea <aet_describe_pc+0x176a>
    33f7:	4c 89 f9             	mov    %r15,%rcx
    33fa:	e8 00 00 00 00       	call   33ff <aet_describe_pc+0x167f>
    33ff:	85 c0                	test   %eax,%eax
    3401:	0f 84 69 2c 00 00    	je     6070 <aet_describe_pc+0x42f0>
    3407:	48 8d 15 fa 00 00 00 	lea    0xfa(%rip),%rdx        # 3508 <aet_describe_pc+0x1788>
    340e:	4c 89 f9             	mov    %r15,%rcx
    3411:	e8 00 00 00 00       	call   3416 <aet_describe_pc+0x1696>
    3416:	85 c0                	test   %eax,%eax
    3418:	0f 84 52 2c 00 00    	je     6070 <aet_describe_pc+0x42f0>
    341e:	48 8d 15 7b 00 00 00 	lea    0x7b(%rip),%rdx        # 34a0 <aet_describe_pc+0x1720>
    3425:	4c 89 f9             	mov    %r15,%rcx
    3428:	e8 00 00 00 00       	call   342d <aet_describe_pc+0x16ad>
    342d:	85 c0                	test   %eax,%eax
    342f:	0f 84 3b 2c 00 00    	je     6070 <aet_describe_pc+0x42f0>
    3435:	4c 8b bc 24 a0 00 00 	mov    0xa0(%rsp),%r15
    343c:	00 
    343d:	48 8d 15 07 01 00 00 	lea    0x107(%rip),%rdx        # 354b <aet_describe_pc+0x17cb>
    3444:	4c 89 f9             	mov    %r15,%rcx
    3447:	e8 00 00 00 00       	call   344c <aet_describe_pc+0x16cc>
    344c:	85 c0                	test   %eax,%eax
    344e:	0f 84 f6 2b 00 00    	je     604a <aet_describe_pc+0x42ca>
    3454:	48 8d 15 77 06 00 00 	lea    0x677(%rip),%rdx        # 3ad2 <aet_describe_pc+0x1d52>
    345b:	4c 89 f9             	mov    %r15,%rcx
    345e:	e8 00 00 00 00       	call   3463 <aet_describe_pc+0x16e3>
    3463:	85 c0                	test   %eax,%eax
    3465:	0f 84 df 2b 00 00    	je     604a <aet_describe_pc+0x42ca>
    346b:	48 8d 15 7d 06 00 00 	lea    0x67d(%rip),%rdx        # 3aef <aet_describe_pc+0x1d6f>
    3472:	4c 89 f9             	mov    %r15,%rcx
    3475:	e8 00 00 00 00       	call   347a <aet_describe_pc+0x16fa>
    347a:	85 c0                	test   %eax,%eax
    347c:	0f 84 c8 2b 00 00    	je     604a <aet_describe_pc+0x42ca>
    3482:	48 8d 15 84 06 00 00 	lea    0x684(%rip),%rdx        # 3b0d <aet_describe_pc+0x1d8d>
    3489:	4c 89 f9             	mov    %r15,%rcx
    348c:	e8 00 00 00 00       	call   3491 <aet_describe_pc+0x1711>
    3491:	85 c0                	test   %eax,%eax
    3493:	0f 84 b1 2b 00 00    	je     604a <aet_describe_pc+0x42ca>
    3499:	48 8b 8c 24 a0 00 00 	mov    0xa0(%rsp),%rcx
    34a0:	00 
    34a1:	48 8d 15 98 14 00 00 	lea    0x1498(%rip),%rdx        # 4940 <aet_describe_pc+0x2bc0>
    34a8:	e8 00 00 00 00       	call   34ad <aet_describe_pc+0x172d>
    34ad:	85 c0                	test   %eax,%eax
    34af:	0f 84 39 2c 00 00    	je     60ee <aet_describe_pc+0x436e>
    34b5:	48 8b 8c 24 a0 00 00 	mov    0xa0(%rsp),%rcx
    34bc:	00 
    34bd:	48 8d 15 1c 01 00 00 	lea    0x11c(%rip),%rdx        # 35e0 <aet_describe_pc+0x1860>
    34c4:	e8 00 00 00 00       	call   34c9 <aet_describe_pc+0x1749>
    34c9:	85 c0                	test   %eax,%eax
    34cb:	0f 84 f7 2b 00 00    	je     60c8 <aet_describe_pc+0x4348>
    34d1:	48 8b 8c 24 a0 00 00 	mov    0xa0(%rsp),%rcx
    34d8:	00 
    34d9:	48 8d 15 e4 14 00 00 	lea    0x14e4(%rip),%rdx        # 49c4 <aet_describe_pc+0x2c44>
    34e0:	e8 00 00 00 00       	call   34e5 <aet_describe_pc+0x1765>
    34e5:	85 c0                	test   %eax,%eax
    34e7:	0f 84 db 2b 00 00    	je     60c8 <aet_describe_pc+0x4348>
    34ed:	48 8b 8c 24 a0 00 00 	mov    0xa0(%rsp),%rcx
    34f4:	00 
    34f5:	48 8d 15 16 15 00 00 	lea    0x1516(%rip),%rdx        # 4a12 <aet_describe_pc+0x2c92>
    34fc:	4c 8d a4 24 a0 02 00 	lea    0x2a0(%rsp),%r12
    3503:	00 
    3504:	e8 00 00 00 00       	call   3509 <aet_describe_pc+0x1789>
    3509:	4c 8b 4c 24 78       	mov    0x78(%rsp),%r9
    350e:	85 c0                	test   %eax,%eax
    3510:	0f 84 99 2b 00 00    	je     60af <aet_describe_pc+0x432f>
    3516:	83 bc 24 f4 08 00 00 	cmpl   $0xe,0x8f4(%rsp)
    351d:	0e 
    351e:	0f 8f 72 2b 00 00    	jg     6096 <aet_describe_pc+0x4316>
    3524:	83 bc 24 04 09 00 00 	cmpl   $0xe,0x904(%rsp)
    352b:	0e 
    352c:	0f 8e 4e 2c 00 00    	jle    6180 <aet_describe_pc+0x4400>
    3532:	4c 8d 05 c8 15 00 00 	lea    0x15c8(%rip),%r8        # 4b01 <aet_describe_pc+0x2d81>
    3539:	ba 00 01 00 00       	mov    $0x100,%edx
    353e:	4c 89 e1             	mov    %r12,%rcx
    3541:	e8 00 00 00 00       	call   3546 <aet_describe_pc+0x17c6>
    3546:	e9 d6 01 00 00       	jmp    3721 <aet_describe_pc+0x19a1>
    354b:	0f 1f 44 00 00       	nopl   0x0(%rax,%rax,1)
    3550:	48 8d b4 24 20 09 00 	lea    0x920(%rsp),%rsi
    3557:	00 
    3558:	84 c0                	test   %al,%al
    355a:	0f 85 0a eb ff ff    	jne    206a <aet_describe_pc+0x2ea>
    3560:	0f be c2             	movsbl %dl,%eax
    3563:	48 8d 3d 73 0a 00 00 	lea    0xa73(%rip),%rdi        # 3fdd <aet_describe_pc+0x225d>
    356a:	89 c1                	mov    %eax,%ecx
    356c:	89 84 24 b4 00 00 00 	mov    %eax,0xb4(%rsp)
    3573:	48 8b 05 00 00 00 00 	mov    0x0(%rip),%rax        # 357a <aet_describe_pc+0x17fa>
    357a:	48 89 84 24 98 00 00 	mov    %rax,0x98(%rsp)
    3581:	00 
    3582:	ff d0                	call   *%rax
    3584:	48 8d 8c 24 f1 19 00 	lea    0x19f1(%rsp),%rcx
    358b:	00 
    358c:	41 b8 0e 00 00 00    	mov    $0xe,%r8d
    3592:	88 84 24 f0 19 00 00 	mov    %al,0x19f0(%rsp)
    3599:	48 8b 84 24 80 00 00 	mov    0x80(%rsp),%rax
    35a0:	00 
    35a1:	48 83 c0 01          	add    $0x1,%rax
    35a5:	48 89 c2             	mov    %rax,%rdx
    35a8:	48 89 84 24 b8 00 00 	mov    %rax,0xb8(%rsp)
    35af:	00 
    35b0:	e8 00 00 00 00       	call   35b5 <aet_describe_pc+0x1835>
    35b5:	c6 84 24 ff 19 00 00 	movb   $0x0,0x19ff(%rsp)
    35bc:	00 
    35bd:	48 b8 4d 75 73 63 75 	movabs $0x72616c756373754d,%rax
    35c4:	6c 61 72 
    35c7:	c6 84 24 00 06 00 00 	movb   $0x0,0x600(%rsp)
    35ce:	00 
    35cf:	c6 84 24 00 05 00 00 	movb   $0x0,0x500(%rsp)
    35d6:	00 
    35d7:	48 39 84 24 50 08 00 	cmp    %rax,0x850(%rsp)
    35de:	00 
    35df:	0f 85 0b eb ff ff    	jne    20f0 <aet_describe_pc+0x370>
    35e5:	80 bc 24 58 08 00 00 	cmpb   $0x0,0x858(%rsp)
    35ec:	00 
    35ed:	0f 85 fd ea ff ff    	jne    20f0 <aet_describe_pc+0x370>
    35f3:	e9 9b 17 00 00       	jmp    4d93 <aet_describe_pc+0x3013>
    35f8:	0f 1f 84 00 00 00 00 	nopl   0x0(%rax,%rax,1)
    35ff:	00 
    3600:	80 bc 24 ea 07 00 00 	cmpb   $0x0,0x7ea(%rsp)
    3607:	00 
    3608:	0f 85 70 e8 ff ff    	jne    1e7e <aet_describe_pc+0xfe>
    360e:	48 8d 35 73 0c 00 00 	lea    0xc73(%rip),%rsi        # 4288 <aet_describe_pc+0x2508>
    3615:	48 8d 05 57 0c 00 00 	lea    0xc57(%rip),%rax        # 4273 <aet_describe_pc+0x24f3>
    361c:	ba 68 00 00 00       	mov    $0x68,%edx
    3621:	48 89 b4 24 80 00 00 	mov    %rsi,0x80(%rsp)
    3628:	00 
    3629:	48 8d 35 77 0c 00 00 	lea    0xc77(%rip),%rsi        # 42a7 <aet_describe_pc+0x2527>
    3630:	4c 8d 3d f0 08 00 00 	lea    0x8f0(%rip),%r15        # 3f27 <aet_describe_pc+0x21a7>
    3637:	48 89 84 24 c8 00 00 	mov    %rax,0xc8(%rsp)
    363e:	00 
    363f:	48 8d 05 61 0c 00 00 	lea    0xc61(%rip),%rax        # 42a7 <aet_describe_pc+0x2527>
    3646:	48 89 b4 24 f8 00 00 	mov    %rsi,0xf8(%rsp)
    364d:	00 
    364e:	48 8d 35 7b 0c 00 00 	lea    0xc7b(%rip),%rsi        # 42d0 <aet_describe_pc+0x2550>
    3655:	48 89 84 24 d8 00 00 	mov    %rax,0xd8(%rsp)
    365c:	00 
    365d:	48 8d 05 69 0c 00 00 	lea    0xc69(%rip),%rax        # 42cd <aet_describe_pc+0x254d>
    3664:	48 89 b4 24 88 00 00 	mov    %rsi,0x88(%rsp)
    366b:	00 
    366c:	48 8d 35 ab 0c 00 00 	lea    0xcab(%rip),%rsi        # 431e <aet_describe_pc+0x259e>
    3673:	48 89 84 24 d0 00 00 	mov    %rax,0xd0(%rsp)
    367a:	00 
    367b:	48 8d 05 6d 0c 00 00 	lea    0xc6d(%rip),%rax        # 42ef <aet_describe_pc+0x256f>
    3682:	48 89 b4 24 10 01 00 	mov    %rsi,0x110(%rsp)
    3689:	00 
    368a:	e9 46 e9 ff ff       	jmp    1fd5 <aet_describe_pc+0x255>
    368f:	90                   	nop
    3690:	66 83 bc 24 54 08 00 	cmpw   $0x6b,0x854(%rsp)
    3697:	00 6b 
    3699:	0f 85 62 ea ff ff    	jne    2101 <aet_describe_pc+0x381>
    369f:	81 3e 43 75 72 76    	cmpl   $0x76727543,(%rsi)
    36a5:	0f 84 98 22 00 00    	je     5943 <aet_describe_pc+0x3bc3>
    36ab:	48 b8 61 20 73 74 75 	movabs $0x7964727574732061,%rax
    36b2:	72 64 79 
    36b5:	48 ba 2c 20 73 75 62 	movabs $0x617473627573202c,%rdx
    36bc:	73 74 61 
    36bf:	48 89 84 24 a0 04 00 	mov    %rax,0x4a0(%rsp)
    36c6:	00 
    36c7:	48 b8 6e 74 69 61 6c 	movabs $0x6870206c6169746e,%rax
    36ce:	20 70 68 
    36d1:	48 89 94 24 a8 04 00 	mov    %rdx,0x4a8(%rsp)
    36d8:	00 
    36d9:	48 ba 79 73 69 71 75 	movabs $0x657571697379,%rdx
    36e0:	65 00 00 
    36e3:	e9 68 ea ff ff       	jmp    2150 <aet_describe_pc+0x3d0>
    36e8:	80 bc 24 84 07 00 00 	cmpb   $0x0,0x784(%rsp)
    36ef:	00 
    36f0:	0f 85 c0 fb ff ff    	jne    32b6 <aet_describe_pc+0x1536>
    36f6:	66 2e 0f 1f 84 00 00 	cs nopw 0x0(%rax,%rax,1)
    36fd:	00 00 00 
    3700:	4c 8d a4 24 a0 02 00 	lea    0x2a0(%rsp),%r12
    3707:	00 
    3708:	4c 8b 4c 24 78       	mov    0x78(%rsp),%r9
    370d:	ba 00 01 00 00       	mov    $0x100,%edx
    3712:	4c 8d 05 d0 13 00 00 	lea    0x13d0(%rip),%r8        # 4ae9 <aet_describe_pc+0x2d69>
    3719:	4c 89 e1             	mov    %r12,%rcx
    371c:	e8 00 00 00 00       	call   3721 <aet_describe_pc+0x19a1>
    3721:	4c 89 64 24 28       	mov    %r12,0x28(%rsp)
    3726:	49 89 f8             	mov    %rdi,%r8
    3729:	48 89 ea             	mov    %rbp,%rdx
    372c:	48 89 d9             	mov    %rbx,%rcx
    372f:	48 8b 84 24 a8 00 00 	mov    0xa8(%rsp),%rax
    3736:	00 
    3737:	4c 8d 0d 0b 16 00 00 	lea    0x160b(%rip),%r9        # 4d49 <aet_describe_pc+0x2fc9>
    373e:	48 89 44 24 20       	mov    %rax,0x20(%rsp)
    3743:	e8 b8 cb ff ff       	call   300 <d_apf>
    3748:	c7 84 24 34 01 00 00 	movl   $0x0,0x134(%rsp)
    374f:	00 00 00 00 
    3753:	81 bc 24 80 07 00 00 	cmpl   $0x666c45,0x780(%rsp)
    375a:	45 6c 66 00 
    375e:	0f 84 32 07 00 00    	je     3e96 <aet_describe_pc+0x2116>
    3764:	48 b8 57 6f 6f 64 20 	movabs $0x666c4520646f6f57,%rax
    376b:	45 6c 66 
    376e:	48 39 84 24 80 07 00 	cmp    %rax,0x780(%rsp)
    3775:	00 
    3776:	0f 84 0c 07 00 00    	je     3e88 <aet_describe_pc+0x2108>
    377c:	48 b8 48 69 67 68 20 	movabs $0x666c452068676948,%rax
    3783:	45 6c 66 
    3786:	48 39 84 24 80 07 00 	cmp    %rax,0x780(%rsp)
    378d:	00 
    378e:	0f 84 2c 1d 00 00    	je     54c0 <aet_describe_pc+0x3740>
    3794:	48 b8 44 61 72 6b 20 	movabs $0x666c45206b726144,%rax
    379b:	45 6c 66 
    379e:	48 39 84 24 80 07 00 	cmp    %rax,0x780(%rsp)
    37a5:	00 
    37a6:	0f 84 ac 23 00 00    	je     5b58 <aet_describe_pc+0x3dd8>
    37ac:	81 bc 24 80 07 00 00 	cmpl   $0x776f7244,0x780(%rsp)
    37b3:	44 72 6f 77 
    37b7:	0f 84 7f 1e 00 00    	je     563c <aet_describe_pc+0x38bc>
    37bd:	0f 1f 00             	nopl   (%rax)
    37c0:	48 b8 43 61 74 66 6f 	movabs $0x6b6c6f66746143,%rax
    37c7:	6c 6b 00 
    37ca:	48 39 84 24 80 07 00 	cmp    %rax,0x780(%rsp)
    37d1:	00 
    37d2:	0f 84 90 0a 00 00    	je     4268 <aet_describe_pc+0x24e8>
    37d8:	48 b8 44 72 61 63 6f 	movabs $0x63696e6f63617244,%rax
    37df:	6e 69 63 
    37e2:	48 39 84 24 80 07 00 	cmp    %rax,0x780(%rsp)
    37e9:	00 
    37ea:	0f 84 f8 16 00 00    	je     4ee8 <aet_describe_pc+0x3168>
    37f0:	81 bc 24 80 07 00 00 	cmpl   $0x6f6d6544,0x780(%rsp)
    37f7:	44 65 6d 6f 
    37fb:	0f 84 9f 1b 00 00    	je     53a0 <aet_describe_pc+0x3620>
    3801:	81 bc 24 80 07 00 00 	cmpl   $0x65676e41,0x780(%rsp)
    3808:	41 6e 67 65 
    380c:	0f 84 be 20 00 00    	je     58d0 <aet_describe_pc+0x3b50>
    3812:	48 b8 46 6f 78 66 6f 	movabs $0x6b6c6f66786f46,%rax
    3819:	6c 6b 00 
    381c:	48 39 84 24 80 07 00 	cmp    %rax,0x780(%rsp)
    3823:	00 
    3824:	0f 84 d0 21 00 00    	je     59fa <aet_describe_pc+0x3c7a>
    382a:	48 b8 57 6f 6c 66 6b 	movabs $0x6e696b666c6f57,%rax
    3831:	69 6e 00 
    3834:	48 39 84 24 80 07 00 	cmp    %rax,0x780(%rsp)
    383b:	00 
    383c:	0f 84 0d 1e 00 00    	je     564f <aet_describe_pc+0x38cf>
    3842:	48 b8 53 75 63 63 75 	movabs $0x7375627563637553,%rax
    3849:	62 75 73 
    384c:	48 39 84 24 80 07 00 	cmp    %rax,0x780(%rsp)
    3853:	00 
    3854:	0f 84 46 22 00 00    	je     5aa0 <aet_describe_pc+0x3d20>
    385a:	48 b8 49 6e 63 75 62 	movabs $0x73756275636e49,%rax
    3861:	75 73 00 
    3864:	48 39 84 24 80 07 00 	cmp    %rax,0x780(%rsp)
    386b:	00 
    386c:	0f 84 3c 22 00 00    	je     5aae <aet_describe_pc+0x3d2e>
    3872:	81 bc 24 80 07 00 00 	cmpl   $0x61726553,0x780(%rsp)
    3879:	53 65 72 61 
    387d:	0f 84 ab 24 00 00    	je     5d2e <aet_describe_pc+0x3fae>
    3883:	48 b8 41 61 73 69 6d 	movabs $0x72616d69736141,%rax
    388a:	61 72 00 
    388d:	48 39 84 24 80 07 00 	cmp    %rax,0x780(%rsp)
    3894:	00 
    3895:	0f 84 44 20 00 00    	je     58df <aet_describe_pc+0x3b5f>
    389b:	48 b8 4d 69 6e 6f 74 	movabs $0x727561746f6e694d,%rax
    38a2:	61 75 72 
    38a5:	48 39 84 24 80 07 00 	cmp    %rax,0x780(%rsp)
    38ac:	00 
    38ad:	0f 84 28 25 00 00    	je     5ddb <aet_describe_pc+0x405b>
    38b3:	48 b8 43 65 6e 74 61 	movabs $0x727561746e6543,%rax
    38ba:	75 72 00 
    38bd:	48 39 84 24 80 07 00 	cmp    %rax,0x780(%rsp)
    38c4:	00 
    38c5:	0f 84 76 25 00 00    	je     5e41 <aet_describe_pc+0x40c1>
    38cb:	81 bc 24 80 07 00 00 	cmpl   $0x79746153,0x780(%rsp)
    38d2:	53 61 74 79 
    38d6:	0f 84 b1 26 00 00    	je     5f8d <aet_describe_pc+0x420d>
    38dc:	48 b8 4d 65 72 66 6f 	movabs $0x6b6c6f6672654d,%rax
    38e3:	6c 6b 00 
    38e6:	48 39 84 24 80 07 00 	cmp    %rax,0x780(%rsp)
    38ed:	00 
    38ee:	0f 84 43 26 00 00    	je     5f37 <aet_describe_pc+0x41b7>
    38f4:	48 8b 8c 24 a0 00 00 	mov    0xa0(%rsp),%rcx
    38fb:	00 
    38fc:	48 8d 15 07 01 00 00 	lea    0x107(%rip),%rdx        # 3a0a <aet_describe_pc+0x1c8a>
    3903:	e8 00 00 00 00       	call   3908 <aet_describe_pc+0x1b88>
    3908:	85 c0                	test   %eax,%eax
    390a:	0f 84 b2 25 00 00    	je     5ec2 <aet_describe_pc+0x4142>
    3910:	48 8b 8c 24 a0 00 00 	mov    0xa0(%rsp),%rcx
    3917:	00 
    3918:	48 8d 15 1c 01 00 00 	lea    0x11c(%rip),%rdx        # 3a3b <aet_describe_pc+0x1cbb>
    391f:	e8 00 00 00 00       	call   3924 <aet_describe_pc+0x1ba4>
    3924:	85 c0                	test   %eax,%eax
    3926:	0f 84 c6 26 00 00    	je     5ff2 <aet_describe_pc+0x4272>
    392c:	48 8b 8c 24 a0 00 00 	mov    0xa0(%rsp),%rcx
    3933:	00 
    3934:	48 8d 15 22 01 00 00 	lea    0x122(%rip),%rdx        # 3a5d <aet_describe_pc+0x1cdd>
    393b:	e8 00 00 00 00       	call   3940 <aet_describe_pc+0x1bc0>
    3940:	85 c0                	test   %eax,%eax
    3942:	0f 84 8c 28 00 00    	je     61d4 <aet_describe_pc+0x4454>
    3948:	48 8b 8c 24 a0 00 00 	mov    0xa0(%rsp),%rcx
    394f:	00 
    3950:	48 8d 15 98 14 00 00 	lea    0x1498(%rip),%rdx        # 4def <aet_describe_pc+0x306f>
    3957:	e8 00 00 00 00       	call   395c <aet_describe_pc+0x1bdc>
    395c:	85 c0                	test   %eax,%eax
    395e:	0f 84 35 28 00 00    	je     6199 <aet_describe_pc+0x4419>
    3964:	48 8b 8c 24 a0 00 00 	mov    0xa0(%rsp),%rcx
    396b:	00 
    396c:	48 8d 15 bc 00 00 00 	lea    0xbc(%rip),%rdx        # 3a2f <aet_describe_pc+0x1caf>
    3973:	e8 00 00 00 00       	call   3978 <aet_describe_pc+0x1bf8>
    3978:	85 c0                	test   %eax,%eax
    397a:	0f 84 9e 29 00 00    	je     631e <aet_describe_pc+0x459e>
    3980:	48 8b 8c 24 a0 00 00 	mov    0xa0(%rsp),%rcx
    3987:	00 
    3988:	48 8d 15 b1 00 00 00 	lea    0xb1(%rip),%rdx        # 3a40 <aet_describe_pc+0x1cc0>
    398f:	e8 00 00 00 00       	call   3994 <aet_describe_pc+0x1c14>
    3994:	85 c0                	test   %eax,%eax
    3996:	0f 84 59 29 00 00    	je     62f5 <aet_describe_pc+0x4575>
    399c:	48 8b 8c 24 a0 00 00 	mov    0xa0(%rsp),%rcx
    39a3:	00 
    39a4:	48 8d 15 c2 00 00 00 	lea    0xc2(%rip),%rdx        # 3a6d <aet_describe_pc+0x1ced>
    39ab:	e8 00 00 00 00       	call   39b0 <aet_describe_pc+0x1c30>
    39b0:	85 c0                	test   %eax,%eax
    39b2:	0f 84 e7 28 00 00    	je     629f <aet_describe_pc+0x451f>
    39b8:	48 8b 8c 24 a0 00 00 	mov    0xa0(%rsp),%rcx
    39bf:	00 
    39c0:	48 8d 15 15 01 00 00 	lea    0x115(%rip),%rdx        # 3adc <aet_describe_pc+0x1d5c>
    39c7:	e8 00 00 00 00       	call   39cc <aet_describe_pc+0x1c4c>
    39cc:	85 c0                	test   %eax,%eax
    39ce:	0f 84 75 28 00 00    	je     6249 <aet_describe_pc+0x44c9>
    39d4:	48 8b 8c 24 a0 00 00 	mov    0xa0(%rsp),%rcx
    39db:	00 
    39dc:	48 8d 15 d3 00 00 00 	lea    0xd3(%rip),%rdx        # 3ab6 <aet_describe_pc+0x1d36>
    39e3:	e8 00 00 00 00       	call   39e8 <aet_describe_pc+0x1c68>
    39e8:	85 c0                	test   %eax,%eax
    39ea:	0f 84 b5 32 00 00    	je     6ca5 <aet_describe_pc+0x4f25>
    39f0:	48 8b 8c 24 a0 00 00 	mov    0xa0(%rsp),%rcx
    39f7:	00 
    39f8:	48 8d 15 dc 00 00 00 	lea    0xdc(%rip),%rdx        # 3adb <aet_describe_pc+0x1d5b>
    39ff:	e8 00 00 00 00       	call   3a04 <aet_describe_pc+0x1c84>
    3a04:	85 c0                	test   %eax,%eax
    3a06:	0f 84 49 32 00 00    	je     6c55 <aet_describe_pc+0x4ed5>
    3a0c:	48 8b 8c 24 a0 00 00 	mov    0xa0(%rsp),%rcx
    3a13:	00 
    3a14:	48 8d 15 42 05 00 00 	lea    0x542(%rip),%rdx        # 3f5d <aet_describe_pc+0x21dd>
    3a1b:	e8 00 00 00 00       	call   3a20 <aet_describe_pc+0x1ca0>
    3a20:	85 c0                	test   %eax,%eax
    3a22:	0f 84 0c 32 00 00    	je     6c34 <aet_describe_pc+0x4eb4>
    3a28:	48 8b 8c 24 a0 00 00 	mov    0xa0(%rsp),%rcx
    3a2f:	00 
    3a30:	48 8d 15 aa 00 00 00 	lea    0xaa(%rip),%rdx        # 3ae1 <aet_describe_pc+0x1d61>
    3a37:	e8 00 00 00 00       	call   3a3c <aet_describe_pc+0x1cbc>
    3a3c:	85 c0                	test   %eax,%eax
    3a3e:	0f 84 f0 31 00 00    	je     6c34 <aet_describe_pc+0x4eb4>
    3a44:	48 8b 8c 24 a0 00 00 	mov    0xa0(%rsp),%rcx
    3a4b:	00 
    3a4c:	48 8d 15 c0 06 00 00 	lea    0x6c0(%rip),%rdx        # 4113 <aet_describe_pc+0x2393>
    3a53:	e8 00 00 00 00       	call   3a58 <aet_describe_pc+0x1cd8>
    3a58:	85 c0                	test   %eax,%eax
    3a5a:	0f 84 7c 31 00 00    	je     6bdc <aet_describe_pc+0x4e5c>
    3a60:	48 8b 8c 24 a0 00 00 	mov    0xa0(%rsp),%rcx
    3a67:	00 
    3a68:	48 8d 15 c5 06 00 00 	lea    0x6c5(%rip),%rdx        # 4134 <aet_describe_pc+0x23b4>
    3a6f:	e8 00 00 00 00       	call   3a74 <aet_describe_pc+0x1cf4>
    3a74:	85 c0                	test   %eax,%eax
    3a76:	0f 84 08 31 00 00    	je     6b84 <aet_describe_pc+0x4e04>
    3a7c:	48 8b 8c 24 a0 00 00 	mov    0xa0(%rsp),%rcx
    3a83:	00 
    3a84:	48 8d 15 5c 00 00 00 	lea    0x5c(%rip),%rdx        # 3ae7 <aet_describe_pc+0x1d67>
    3a8b:	e8 00 00 00 00       	call   3a90 <aet_describe_pc+0x1d10>
    3a90:	85 c0                	test   %eax,%eax
    3a92:	0f 84 a4 30 00 00    	je     6b3c <aet_describe_pc+0x4dbc>
    3a98:	48 8b 8c 24 a0 00 00 	mov    0xa0(%rsp),%rcx
    3a9f:	00 
    3aa0:	48 8d 15 66 00 00 00 	lea    0x66(%rip),%rdx        # 3b0d <aet_describe_pc+0x1d8d>
    3aa7:	e8 00 00 00 00       	call   3aac <aet_describe_pc+0x1d2c>
    3aac:	85 c0                	test   %eax,%eax
    3aae:	0f 84 32 30 00 00    	je     6ae6 <aet_describe_pc+0x4d66>
    3ab4:	48 8b 8c 24 a0 00 00 	mov    0xa0(%rsp),%rcx
    3abb:	00 
    3abc:	48 8d 15 72 00 00 00 	lea    0x72(%rip),%rdx        # 3b35 <aet_describe_pc+0x1db5>
    3ac3:	e8 00 00 00 00       	call   3ac8 <aet_describe_pc+0x1d48>
    3ac8:	85 c0                	test   %eax,%eax
    3aca:	0f 84 c6 2f 00 00    	je     6a96 <aet_describe_pc+0x4d16>
    3ad0:	48 8b 8c 24 a0 00 00 	mov    0xa0(%rsp),%rcx
    3ad7:	00 
    3ad8:	48 8d 15 1f 04 00 00 	lea    0x41f(%rip),%rdx        # 3efe <aet_describe_pc+0x217e>
    3adf:	e8 00 00 00 00       	call   3ae4 <aet_describe_pc+0x1d64>
    3ae4:	85 c0                	test   %eax,%eax
    3ae6:	0f 84 52 2f 00 00    	je     6a3e <aet_describe_pc+0x4cbe>
    3aec:	48 8b 8c 24 a0 00 00 	mov    0xa0(%rsp),%rcx
    3af3:	00 
    3af4:	48 8d 15 7b 00 00 00 	lea    0x7b(%rip),%rdx        # 3b76 <aet_describe_pc+0x1df6>
    3afb:	e8 00 00 00 00       	call   3b00 <aet_describe_pc+0x1d80>
    3b00:	85 c0                	test   %eax,%eax
    3b02:	0f 84 e0 2e 00 00    	je     69e8 <aet_describe_pc+0x4c68>
    3b08:	48 8b 8c 24 a0 00 00 	mov    0xa0(%rsp),%rcx
    3b0f:	00 
    3b10:	48 8d 15 99 00 00 00 	lea    0x99(%rip),%rdx        # 3bb0 <aet_describe_pc+0x1e30>
    3b17:	e8 00 00 00 00       	call   3b1c <aet_describe_pc+0x1d9c>
    3b1c:	85 c0                	test   %eax,%eax
    3b1e:	0f 84 4f 2e 00 00    	je     6973 <aet_describe_pc+0x4bf3>
    3b24:	48 8b 8c 24 a0 00 00 	mov    0xa0(%rsp),%rcx
    3b2b:	00 
    3b2c:	48 8d 15 29 04 00 00 	lea    0x429(%rip),%rdx        # 3f5c <aet_describe_pc+0x21dc>
    3b33:	e8 00 00 00 00       	call   3b38 <aet_describe_pc+0x1db8>
    3b38:	85 c0                	test   %eax,%eax
    3b3a:	0f 84 be 2d 00 00    	je     68fe <aet_describe_pc+0x4b7e>
    3b40:	48 8b 8c 24 a0 00 00 	mov    0xa0(%rsp),%rcx
    3b47:	00 
    3b48:	48 8d 15 bc 02 00 00 	lea    0x2bc(%rip),%rdx        # 3e0b <aet_describe_pc+0x208b>
    3b4f:	e8 00 00 00 00       	call   3b54 <aet_describe_pc+0x1dd4>
    3b54:	85 c0                	test   %eax,%eax
    3b56:	0f 84 2d 2d 00 00    	je     6889 <aet_describe_pc+0x4b09>
    3b5c:	48 8b 8c 24 a0 00 00 	mov    0xa0(%rsp),%rcx
    3b63:	00 
    3b64:	48 8d 15 16 15 00 00 	lea    0x1516(%rip),%rdx        # 5081 <aet_describe_pc+0x3301>
    3b6b:	e8 00 00 00 00       	call   3b70 <aet_describe_pc+0x1df0>
    3b70:	85 c0                	test   %eax,%eax
    3b72:	0f 84 9c 2c 00 00    	je     6814 <aet_describe_pc+0x4a94>
    3b78:	48 8b 8c 24 a0 00 00 	mov    0xa0(%rsp),%rcx
    3b7f:	00 
    3b80:	48 8d 15 b4 02 00 00 	lea    0x2b4(%rip),%rdx        # 3e3b <aet_describe_pc+0x20bb>
    3b87:	e8 00 00 00 00       	call   3b8c <aet_describe_pc+0x1e0c>
    3b8c:	85 c0                	test   %eax,%eax
    3b8e:	0f 84 0b 2c 00 00    	je     679f <aet_describe_pc+0x4a1f>
    3b94:	48 8b 8c 24 a0 00 00 	mov    0xa0(%rsp),%rcx
    3b9b:	00 
    3b9c:	48 8d 15 cd 03 00 00 	lea    0x3cd(%rip),%rdx        # 3f70 <aet_describe_pc+0x21f0>
    3ba3:	e8 00 00 00 00       	call   3ba8 <aet_describe_pc+0x1e28>
    3ba8:	85 c0                	test   %eax,%eax
    3baa:	0f 84 75 2b 00 00    	je     6725 <aet_describe_pc+0x49a5>
    3bb0:	48 8b 8c 24 a0 00 00 	mov    0xa0(%rsp),%rcx
    3bb7:	00 
    3bb8:	48 8d 15 83 00 00 00 	lea    0x83(%rip),%rdx        # 3c42 <aet_describe_pc+0x1ec2>
    3bbf:	e8 00 00 00 00       	call   3bc4 <aet_describe_pc+0x1e44>
    3bc4:	85 c0                	test   %eax,%eax
    3bc6:	0f 84 da 2a 00 00    	je     66a6 <aet_describe_pc+0x4926>
    3bcc:	48 8b 8c 24 a0 00 00 	mov    0xa0(%rsp),%rcx
    3bd3:	00 
    3bd4:	48 8d 15 8f 00 00 00 	lea    0x8f(%rip),%rdx        # 3c6a <aet_describe_pc+0x1eea>
    3bdb:	e8 00 00 00 00       	call   3be0 <aet_describe_pc+0x1e60>
    3be0:	85 c0                	test   %eax,%eax
    3be2:	0f 84 44 2a 00 00    	je     662c <aet_describe_pc+0x48ac>
    3be8:	48 8b 8c 24 a0 00 00 	mov    0xa0(%rsp),%rcx
    3bef:	00 
    3bf0:	48 8d 15 50 02 00 00 	lea    0x250(%rip),%rdx        # 3e47 <aet_describe_pc+0x20c7>
    3bf7:	e8 00 00 00 00       	call   3bfc <aet_describe_pc+0x1e7c>
    3bfc:	85 c0                	test   %eax,%eax
    3bfe:	0f 84 b3 29 00 00    	je     65b7 <aet_describe_pc+0x4837>
    3c04:	48 8b 8c 24 a0 00 00 	mov    0xa0(%rsp),%rcx
    3c0b:	00 
    3c0c:	48 8d 15 55 02 00 00 	lea    0x255(%rip),%rdx        # 3e68 <aet_describe_pc+0x20e8>
    3c13:	e8 00 00 00 00       	call   3c18 <aet_describe_pc+0x1e98>
    3c18:	85 c0                	test   %eax,%eax
    3c1a:	0f 84 25 29 00 00    	je     6545 <aet_describe_pc+0x47c5>
    3c20:	48 8b 8c 24 a0 00 00 	mov    0xa0(%rsp),%rcx
    3c27:	00 
    3c28:	48 8d 15 e4 14 00 00 	lea    0x14e4(%rip),%rdx        # 5113 <aet_describe_pc+0x3393>
    3c2f:	e8 00 00 00 00       	call   3c34 <aet_describe_pc+0x1eb4>
    3c34:	85 c0                	test   %eax,%eax
    3c36:	0f 84 94 28 00 00    	je     64d0 <aet_describe_pc+0x4750>
    3c3c:	48 8b 8c 24 a0 00 00 	mov    0xa0(%rsp),%rcx
    3c43:	00 
    3c44:	48 8d 15 22 26 00 00 	lea    0x2622(%rip),%rdx        # 626d <aet_describe_pc+0x44ed>
    3c4b:	e8 00 00 00 00       	call   3c50 <aet_describe_pc+0x1ed0>
    3c50:	85 c0                	test   %eax,%eax
    3c52:	0f 84 03 28 00 00    	je     645b <aet_describe_pc+0x46db>
    3c58:	48 8b 8c 24 a0 00 00 	mov    0xa0(%rsp),%rcx
    3c5f:	00 
    3c60:	48 8d 15 e6 00 00 00 	lea    0xe6(%rip),%rdx        # 3d4d <aet_describe_pc+0x1fcd>
    3c67:	e8 00 00 00 00       	call   3c6c <aet_describe_pc+0x1eec>
    3c6c:	85 c0                	test   %eax,%eax
    3c6e:	0f 84 72 27 00 00    	je     63e6 <aet_describe_pc+0x4666>
    3c74:	48 8b 8c 24 a0 00 00 	mov    0xa0(%rsp),%rcx
    3c7b:	00 
    3c7c:	48 8d 15 f3 00 00 00 	lea    0xf3(%rip),%rdx        # 3d76 <aet_describe_pc+0x1ff6>
    3c83:	e8 00 00 00 00       	call   3c88 <aet_describe_pc+0x1f08>
    3c88:	85 c0                	test   %eax,%eax
    3c8a:	0f 84 e4 26 00 00    	je     6374 <aet_describe_pc+0x45f4>
    3c90:	48 8b 8c 24 a0 00 00 	mov    0xa0(%rsp),%rcx
    3c97:	00 
    3c98:	48 8d 15 fa 00 00 00 	lea    0xfa(%rip),%rdx        # 3d99 <aet_describe_pc+0x2019>
    3c9f:	e8 00 00 00 00       	call   3ca4 <aet_describe_pc+0x1f24>
    3ca4:	85 c0                	test   %eax,%eax
    3ca6:	0f 84 68 24 00 00    	je     6114 <aet_describe_pc+0x4394>
    3cac:	48 8b 8c 24 a0 00 00 	mov    0xa0(%rsp),%rcx
    3cb3:	00 
    3cb4:	48 8d 15 1f 07 00 00 	lea    0x71f(%rip),%rdx        # 43da <aet_describe_pc+0x265a>
    3cbb:	e8 00 00 00 00       	call   3cc0 <aet_describe_pc+0x1f40>
    3cc0:	85 c0                	test   %eax,%eax
    3cc2:	0f 85 f6 05 00 00    	jne    42be <aet_describe_pc+0x253e>
    3cc8:	4c 8b bc 24 80 00 00 	mov    0x80(%rsp),%r15
    3ccf:	00 
    3cd0:	4c 8d 94 24 f0 19 00 	lea    0x19f0(%rsp),%r10
    3cd7:	00 
    3cd8:	48 8d 94 24 34 01 00 	lea    0x134(%rsp),%rdx
    3cdf:	00 
    3ce0:	4c 89 d1             	mov    %r10,%rcx
    3ce3:	4c 8d 05 c8 27 00 00 	lea    0x27c8(%rip),%r8        # 64b2 <aet_describe_pc+0x4732>
    3cea:	4c 89 94 24 d8 00 00 	mov    %r10,0xd8(%rsp)
    3cf1:	00 
    3cf2:	4d 89 f9             	mov    %r15,%r9
    3cf5:	e8 b6 c5 ff ff       	call   2b0 <feat_push>
    3cfa:	48 8b 8c 24 d8 00 00 	mov    0xd8(%rsp),%rcx
    3d01:	00 
    3d02:	48 8d 94 24 34 01 00 	lea    0x134(%rsp),%rdx
    3d09:	00 
    3d0a:	4c 8d 05 f0 27 00 00 	lea    0x27f0(%rip),%r8        # 6501 <aet_describe_pc+0x4781>
    3d11:	e8 9a c5 ff ff       	call   2b0 <feat_push>
    3d16:	48 8b 8c 24 d8 00 00 	mov    0xd8(%rsp),%rcx
    3d1d:	00 
    3d1e:	4d 89 f9             	mov    %r15,%r9
    3d21:	4c 8d 05 18 28 00 00 	lea    0x2818(%rip),%r8        # 6540 <aet_describe_pc+0x47c0>
    3d28:	48 8d 94 24 34 01 00 	lea    0x134(%rsp),%rdx
    3d2f:	00 
    3d30:	e8 7b c5 ff ff       	call   2b0 <feat_push>
    3d35:	e9 84 05 00 00       	jmp    42be <aet_describe_pc+0x253e>
    3d3a:	66 0f 1f 44 00 00    	nopw   0x0(%rax,%rax,1)
    3d40:	48 b8 61 20 73 75 62 	movabs $0x656c746275732061,%rax
    3d47:	74 6c 65 
    3d4a:	48 ba 2c 20 75 6e 73 	movabs $0x747465736e75202c,%rdx
    3d51:	65 74 74 
    3d54:	48 c7 84 24 38 56 00 	movq   $0x0,0x5638(%rsp)
    3d5b:	00 00 00 00 00 
    3d60:	48 89 84 24 f0 55 00 	mov    %rax,0x55f0(%rsp)
    3d67:	00 
    3d68:	48 b8 6c 69 6e 67 20 	movabs $0x69617420676e696c,%rax
    3d6f:	74 61 69 
    3d72:	48 c7 84 24 10 56 00 	movq   $0x0,0x5610(%rsp)
    3d79:	00 00 00 00 00 
    3d7e:	48 c7 84 24 18 56 00 	movq   $0x0,0x5618(%rsp)
    3d85:	00 00 00 00 00 
    3d8a:	48 c7 84 24 20 56 00 	movq   $0x0,0x5620(%rsp)
    3d91:	00 00 00 00 00 
    3d96:	48 c7 84 24 28 56 00 	movq   $0x0,0x5628(%rsp)
    3d9d:	00 00 00 00 00 
    3da2:	48 c7 84 24 30 56 00 	movq   $0x0,0x5630(%rsp)
    3da9:	00 00 00 00 00 
    3dae:	48 c7 84 24 3f 56 00 	movq   $0x0,0x563f(%rsp)
    3db5:	00 00 00 00 00 
    3dba:	48 c7 84 24 47 56 00 	movq   $0x0,0x5647(%rsp)
    3dc1:	00 00 00 00 00 
    3dc6:	48 89 94 24 f8 55 00 	mov    %rdx,0x55f8(%rsp)
    3dcd:	00 
    3dce:	ba 6e 74 00 00       	mov    $0x746e,%edx
    3dd3:	48 89 84 24 00 56 00 	mov    %rax,0x5600(%rsp)
    3dda:	00 
    3ddb:	48 8b 44 24 78       	mov    0x78(%rsp),%rax
    3de0:	48 89 94 24 08 56 00 	mov    %rdx,0x5608(%rsp)
    3de7:	00 
    3de8:	48 8d 15 51 0d 00 00 	lea    0xd51(%rip),%rdx        # 4b40 <aet_describe_pc+0x2dc0>
    3def:	48 89 44 24 40       	mov    %rax,0x40(%rsp)
    3df4:	48 8b 84 24 d0 00 00 	mov    0xd0(%rsp),%rax
    3dfb:	00 
    3dfc:	49 89 f8             	mov    %rdi,%r8
    3dff:	4c 8d 94 24 f0 19 00 	lea    0x19f0(%rsp),%r10
    3e06:	00 
    3e07:	48 8d b4 24 f0 09 00 	lea    0x9f0(%rsp),%rsi
    3e0e:	00 
    3e0f:	48 89 54 24 38       	mov    %rdx,0x38(%rsp)
    3e14:	48 89 d9             	mov    %rbx,%rcx
    3e17:	48 89 ea             	mov    %rbp,%rdx
    3e1a:	4c 89 54 24 30       	mov    %r10,0x30(%rsp)
    3e1f:	4c 8d 0d 75 10 00 00 	lea    0x1075(%rip),%r9        # 4e9b <aet_describe_pc+0x311b>
    3e26:	48 89 44 24 28       	mov    %rax,0x28(%rsp)
    3e2b:	48 89 74 24 20       	mov    %rsi,0x20(%rsp)
    3e30:	e8 cb c4 ff ff       	call   300 <d_apf>
    3e35:	81 bc 24 60 01 00 00 	cmpl   $0x656e6f6e,0x160(%rsp)
    3e3c:	6e 6f 6e 65 
    3e40:	0f 85 40 f0 ff ff    	jne    2e86 <aet_describe_pc+0x1106>
    3e46:	80 bc 24 64 01 00 00 	cmpb   $0x0,0x164(%rsp)
    3e4d:	00 
    3e4e:	0f 85 32 f0 ff ff    	jne    2e86 <aet_describe_pc+0x1106>
    3e54:	48 8d 84 24 00 02 00 	lea    0x200(%rsp),%rax
    3e5b:	00 
    3e5c:	49 89 f8             	mov    %rdi,%r8
    3e5f:	48 89 ea             	mov    %rbp,%rdx
    3e62:	48 89 d9             	mov    %rbx,%rcx
    3e65:	48 89 44 24 20       	mov    %rax,0x20(%rsp)
    3e6a:	4c 8b 8c 24 90 00 00 	mov    0x90(%rsp),%r9
    3e71:	00 
    3e72:	48 89 84 24 d0 00 00 	mov    %rax,0xd0(%rsp)
    3e79:	00 
    3e7a:	e8 61 d5 ff ff       	call   13e0 <naked_body_append>
    3e7f:	e9 c0 f0 ff ff       	jmp    2f44 <aet_describe_pc+0x11c4>
    3e84:	0f 1f 40 00          	nopl   0x0(%rax)
    3e88:	80 bc 24 88 07 00 00 	cmpb   $0x0,0x788(%rsp)
    3e8f:	00 
    3e90:	0f 85 e6 f8 ff ff    	jne    377c <aet_describe_pc+0x19fc>
    3e96:	48 8b 84 24 80 00 00 	mov    0x80(%rsp),%rax
    3e9d:	00 
    3e9e:	48 8d 94 24 34 01 00 	lea    0x134(%rsp),%rdx
    3ea5:	00 
    3ea6:	4c 8d 05 18 16 00 00 	lea    0x1618(%rip),%r8        # 54c5 <aet_describe_pc+0x3745>
    3ead:	48 8d 8c 24 f0 19 00 	lea    0x19f0(%rsp),%rcx
    3eb4:	00 
    3eb5:	48 89 44 24 20       	mov    %rax,0x20(%rsp)
    3eba:	49 89 c1             	mov    %rax,%r9
    3ebd:	e8 ee c3 ff ff       	call   2b0 <feat_push>
    3ec2:	e9 f9 f8 ff ff       	jmp    37c0 <aet_describe_pc+0x1a40>
    3ec7:	66 0f 1f 84 00 00 00 	nopw   0x0(%rax,%rax,1)
    3ece:	00 00 
    3ed0:	48 8d 15 05 0e 00 00 	lea    0xe05(%rip),%rdx        # 4cdc <aet_describe_pc+0x2f5c>
    3ed7:	48 89 f1             	mov    %rsi,%rcx
    3eda:	e8 00 00 00 00       	call   3edf <aet_describe_pc+0x215f>
    3edf:	85 c0                	test   %eax,%eax
    3ee1:	75 11                	jne    3ef4 <aet_describe_pc+0x2174>
    3ee3:	81 bc 24 e8 07 00 00 	cmpl   $0x656873,0x7e8(%rsp)
    3eea:	73 68 65 00 
    3eee:	0f 84 3c 15 00 00    	je     5430 <aet_describe_pc+0x36b0>
    3ef4:	48 8d 15 55 0e 00 00 	lea    0xe55(%rip),%rdx        # 4d50 <aet_describe_pc+0x2fd0>
    3efb:	48 89 f9             	mov    %rdi,%rcx
    3efe:	e8 00 00 00 00       	call   3f03 <aet_describe_pc+0x2183>
    3f03:	85 c0                	test   %eax,%eax
    3f05:	0f 85 d9 e4 ff ff    	jne    23e4 <aet_describe_pc+0x664>
    3f0b:	48 b8 41 76 65 72 61 	movabs $0x65676172657641,%rax
    3f12:	67 65 00 
    3f15:	48 39 84 24 50 08 00 	cmp    %rax,0x850(%rsp)
    3f1c:	00 
    3f1d:	0f 84 c1 e4 ff ff    	je     23e4 <aet_describe_pc+0x664>
    3f23:	48 b8 4d 75 73 63 6c 	movabs $0x2073656c6373754d,%rax
    3f2a:	65 73 20 
    3f2d:	48 ba 63 6f 69 6c 20 	movabs $0x646e61206c696f63,%rdx
    3f34:	61 6e 64 
    3f37:	48 89 84 24 00 05 00 	mov    %rax,0x500(%rsp)
    3f3e:	00 
    3f3f:	48 b8 20 72 65 6c 65 	movabs $0x657361656c657220,%rax
    3f46:	61 73 65 
    3f49:	48 89 94 24 08 05 00 	mov    %rdx,0x508(%rsp)
    3f50:	00 
    3f51:	48 ba 20 77 69 74 68 	movabs $0x7571206874697720,%rdx
    3f58:	20 71 75 
    3f5b:	48 89 84 24 10 05 00 	mov    %rax,0x510(%rsp)
    3f62:	00 
    3f63:	48 b8 69 65 74 20 70 	movabs $0x65776f7020746569,%rax
    3f6a:	6f 77 65 
    3f6d:	48 89 94 24 18 05 00 	mov    %rdx,0x518(%rsp)
    3f74:	00 
    3f75:	48 ba 72 20 62 65 6e 	movabs $0x7461656e65622072,%rdx
    3f7c:	65 61 74 
    3f7f:	48 89 84 24 20 05 00 	mov    %rax,0x520(%rsp)
    3f86:	00 
    3f87:	48 b8 68 20 74 68 65 	movabs $0x7573206568742068,%rax
    3f8e:	20 73 75 
    3f91:	48 89 94 24 28 05 00 	mov    %rdx,0x528(%rsp)
    3f98:	00 
    3f99:	48 ba 72 66 61 63 65 	movabs $0x2e6563616672,%rdx
    3fa0:	2e 00 00 
    3fa3:	48 89 84 24 30 05 00 	mov    %rax,0x530(%rsp)
    3faa:	00 
    3fab:	48 89 94 24 38 05 00 	mov    %rdx,0x538(%rsp)
    3fb2:	00 
    3fb3:	48 c7 84 24 40 05 00 	movq   $0x0,0x540(%rsp)
    3fba:	00 00 00 00 00 
    3fbf:	48 c7 84 24 48 05 00 	movq   $0x0,0x548(%rsp)
    3fc6:	00 00 00 00 00 
    3fcb:	e9 0c e3 ff ff       	jmp    22dc <aet_describe_pc+0x55c>
    3fd0:	80 bc 24 54 08 00 00 	cmpb   $0x0,0x854(%rsp)
    3fd7:	00 
    3fd8:	0f 85 56 ec ff ff    	jne    2c34 <aet_describe_pc+0xeb4>
    3fde:	4c 8d 0d 00 10 00 00 	lea    0x1000(%rip),%r9        # 4fe5 <aet_describe_pc+0x3265>
    3fe5:	49 89 f8             	mov    %rdi,%r8
    3fe8:	48 89 ea             	mov    %rbp,%rdx
    3feb:	48 89 d9             	mov    %rbx,%rcx
    3fee:	e8 0d c3 ff ff       	call   300 <d_apf>
    3ff3:	e9 68 ec ff ff       	jmp    2c60 <aet_describe_pc+0xee0>
    3ff8:	0f 1f 84 00 00 00 00 	nopl   0x0(%rax,%rax,1)
    3fff:	00 
    4000:	c6 84 24 40 01 00 00 	movb   $0x0,0x140(%rsp)
    4007:	00 
    4008:	e9 f4 e9 ff ff       	jmp    2a01 <aet_describe_pc+0xc81>
    400d:	0f 1f 00             	nopl   (%rax)
    4010:	48 8b 74 24 78       	mov    0x78(%rsp),%rsi
    4015:	4c 8d 2d 05 02 00 00 	lea    0x205(%rip),%r13        # 4221 <aet_describe_pc+0x24a1>
    401c:	e9 4e e6 ff ff       	jmp    266f <aet_describe_pc+0x8ef>
    4021:	0f 1f 80 00 00 00 00 	nopl   0x0(%rax)
    4028:	4c 03 74 24 78       	add    0x78(%rsp),%r14
    402d:	e9 2b f2 ff ff       	jmp    325d <aet_describe_pc+0x14dd>
    4032:	66 0f 1f 44 00 00    	nopw   0x0(%rax,%rax,1)
    4038:	48 03 74 24 78       	add    0x78(%rsp),%rsi
    403d:	e9 2d e6 ff ff       	jmp    266f <aet_describe_pc+0x8ef>
    4042:	66 0f 1f 44 00 00    	nopw   0x0(%rax,%rax,1)
    4048:	48 03 bc 24 e8 00 00 	add    0xe8(%rsp),%rdi
    404f:	00 
    4050:	e9 36 e9 ff ff       	jmp    298b <aet_describe_pc+0xc0b>
    4055:	0f 1f 00             	nopl   (%rax)
    4058:	48 03 bc 24 e0 00 00 	add    0xe0(%rsp),%rdi
    405f:	00 
    4060:	e9 b6 e8 ff ff       	jmp    291b <aet_describe_pc+0xb9b>
    4065:	0f 1f 00             	nopl   (%rax)
    4068:	48 03 bc 24 f0 00 00 	add    0xf0(%rsp),%rdi
    406f:	00 
    4070:	e9 36 e8 ff ff       	jmp    28ab <aet_describe_pc+0xb2b>
    4075:	0f 1f 00             	nopl   (%rax)
    4078:	4c 01 ef             	add    %r13,%rdi
    407b:	e9 bb e7 ff ff       	jmp    283b <aet_describe_pc+0xabb>
    4080:	8b 84 24 18 01 00 00 	mov    0x118(%rsp),%eax
    4087:	66 0f ef c0          	pxor   %xmm0,%xmm0
    408b:	ba 04 00 00 00       	mov    $0x4,%edx
    4090:	f2 0f 10 0d 08 30 00 	movsd  0x3008(%rip),%xmm1        # 70a0 <lip_opt.1+0x40c0>
    4097:	00 
    4098:	f2 48 0f 2a c0       	cvtsi2sd %rax,%xmm0
    409d:	f2 0f 59 c1          	mulsd  %xmm1,%xmm0
    40a1:	f2 0f 59 05 28 30 00 	mulsd  0x3028(%rip),%xmm0        # 70d1 <lip_opt.1+0x40f1>
    40a8:	00 
    40a9:	f2 0f 2c c0          	cvttsd2si %xmm0,%eax
    40ad:	39 d0                	cmp    %edx,%eax
    40af:	0f 4f c2             	cmovg  %edx,%eax
    40b2:	48 8d 15 e0 2f 00 00 	lea    0x2fe0(%rip),%rdx        # 7099 <lip_opt.1+0x40b9>
    40b9:	48 98                	cltq
    40bb:	48 8b 0c c2          	mov    (%rdx,%rax,8),%rcx
    40bf:	48 8d 15 57 0d 00 00 	lea    0xd57(%rip),%rdx        # 4e1d <aet_describe_pc+0x309d>
    40c6:	83 bc 24 04 09 00 00 	cmpl   $0xe,0x904(%rsp)
    40cd:	0e 
    40ce:	0f 8e 9c f0 ff ff    	jle    3170 <aet_describe_pc+0x13f0>
    40d4:	48 8d 15 57 0d 00 00 	lea    0xd57(%rip),%rdx        # 4e32 <aet_describe_pc+0x30b2>
    40db:	48 8d 05 60 0d 00 00 	lea    0xd60(%rip),%rax        # 4e42 <aet_describe_pc+0x30c2>
    40e2:	e9 e9 f0 ff ff       	jmp    31d0 <aet_describe_pc+0x1450>
    40e7:	66 0f 1f 84 00 00 00 	nopw   0x0(%rax,%rax,1)
    40ee:	00 00 
    40f0:	80 bc 24 58 09 00 00 	cmpb   $0x0,0x958(%rsp)
    40f7:	00 
    40f8:	0f 85 8e ef ff ff    	jne    308c <aet_describe_pc+0x130c>
    40fe:	4c 8d a4 24 a0 03 00 	lea    0x3a0(%rsp),%r12
    4105:	00 
    4106:	4c 8b 8c 24 80 00 00 	mov    0x80(%rsp),%r9
    410d:	00 
    410e:	ba 00 01 00 00       	mov    $0x100,%edx
    4113:	4c 8d 05 28 12 00 00 	lea    0x1228(%rip),%r8        # 5342 <aet_describe_pc+0x35c2>
    411a:	4c 89 e1             	mov    %r12,%rcx
    411d:	e8 00 00 00 00       	call   4122 <aet_describe_pc+0x23a2>
    4122:	e9 d1 ef ff ff       	jmp    30f8 <aet_describe_pc+0x1378>
    4127:	66 0f 1f 84 00 00 00 	nopw   0x0(%rax,%rax,1)
    412e:	00 00 
    4130:	48 b8 27 20 2d 20 34 	movabs $0x292734202d2027,%rax
    4137:	27 29 00 
    413a:	4c 8d 05 03 0d 00 00 	lea    0xd03(%rip),%r8        # 4e44 <aet_describe_pc+0x30c4>
    4141:	48 39 84 24 1f 08 00 	cmp    %rax,0x81f(%rsp)
    4148:	00 
    4149:	0f 85 5b e9 ff ff    	jne    2aaa <aet_describe_pc+0xd2a>
    414f:	e9 18 ea ff ff       	jmp    2b6c <aet_describe_pc+0xdec>
    4154:	0f 1f 40 00          	nopl   0x0(%rax)
    4158:	66 83 bc 24 44 09 00 	cmpw   $0x65,0x944(%rsp)
    415f:	00 65 
    4161:	0f 85 4a e4 ff ff    	jne    25b1 <aet_describe_pc+0x831>
    4167:	48 8d 84 24 00 06 00 	lea    0x600(%rsp),%rax
    416e:	00 
    416f:	4c 8d 8c 24 f0 55 00 	lea    0x55f0(%rsp),%r9
    4176:	00 
    4177:	ba 40 01 00 00       	mov    $0x140,%edx
    417c:	4c 8d 05 70 0e 00 00 	lea    0xe70(%rip),%r8        # 4ff3 <aet_describe_pc+0x3273>
    4183:	48 89 c1             	mov    %rax,%rcx
    4186:	4c 89 4c 24 78       	mov    %r9,0x78(%rsp)
    418b:	48 89 84 24 00 01 00 	mov    %rax,0x100(%rsp)
    4192:	00 
    4193:	e8 00 00 00 00       	call   4198 <aet_describe_pc+0x2418>
    4198:	e9 56 e4 ff ff       	jmp    25f3 <aet_describe_pc+0x873>
    419d:	0f 1f 00             	nopl   (%rax)
    41a0:	66 83 bc 24 38 09 00 	cmpw   $0x65,0x938(%rsp)
    41a7:	00 65 
    41a9:	0f 85 4d e2 ff ff    	jne    23fc <aet_describe_pc+0x67c>
    41af:	81 bc 24 e8 07 00 00 	cmpl   $0x656873,0x7e8(%rsp)
    41b6:	73 68 65 00 
    41ba:	74 35                	je     41f1 <aet_describe_pc+0x2471>
    41bc:	48 b8 65 78 63 65 70 	movabs $0x6f69747065637865,%rax
    41c3:	74 69 6f 
    41c6:	48 ba 6e 61 6c 6c 79 	movabs $0x697720796c6c616e,%rdx
    41cd:	20 77 69 
    41d0:	48 89 84 24 f0 55 00 	mov    %rax,0x55f0(%rsp)
    41d7:	00 
    41d8:	48 b8 64 65 20 68 69 	movabs $0x73706968206564,%rax
    41df:	70 73 00 
    41e2:	48 89 94 24 f8 55 00 	mov    %rdx,0x55f8(%rsp)
    41e9:	00 
    41ea:	31 d2                	xor    %edx,%edx
    41ec:	e9 4f e2 ff ff       	jmp    2440 <aet_describe_pc+0x6c0>
    41f1:	48 b8 70 72 6f 6d 69 	movabs $0x6e656e696d6f7270,%rax
    41f8:	6e 65 6e 
    41fb:	48 ba 74 2c 20 63 68 	movabs $0x646c696863202c74,%rdx
    4202:	69 6c 64 
    4205:	48 89 84 24 f0 55 00 	mov    %rax,0x55f0(%rsp)
    420c:	00 
    420d:	48 b8 2d 62 65 61 72 	movabs $0x676e69726165622d,%rax
    4214:	69 6e 67 
    4217:	48 89 94 24 f8 55 00 	mov    %rdx,0x55f8(%rsp)
    421e:	00 
    421f:	48 ba 20 68 69 70 73 	movabs $0x7370696820,%rdx
    4226:	00 00 00 
    4229:	e9 12 e2 ff ff       	jmp    2440 <aet_describe_pc+0x6c0>
    422e:	66 90                	xchg   %ax,%ax
    4230:	48 8d 05 1f 0d 00 00 	lea    0xd1f(%rip),%rax        # 4f56 <aet_describe_pc+0x31d6>
    4237:	80 bc 24 ea 07 00 00 	cmpb   $0x0,0x7ea(%rsp)
    423e:	00 
    423f:	0f 84 54 e9 ff ff    	je     2b99 <aet_describe_pc+0xe19>
    4245:	e9 32 e9 ff ff       	jmp    2b7c <aet_describe_pc+0xdfc>
    424a:	66 0f 1f 44 00 00    	nopw   0x0(%rax,%rax,1)
    4250:	80 bc 24 84 01 00 00 	cmpb   $0x0,0x184(%rsp)
    4257:	00 
    4258:	0f 84 40 ed ff ff    	je     2f9e <aet_describe_pc+0x121e>
    425e:	e9 f2 ec ff ff       	jmp    2f55 <aet_describe_pc+0x11d5>
    4263:	0f 1f 44 00 00       	nopl   0x0(%rax,%rax,1)
    4268:	4c 8b bc 24 80 00 00 	mov    0x80(%rsp),%r15
    426f:	00 
    4270:	4c 8d 94 24 f0 19 00 	lea    0x19f0(%rsp),%r10
    4277:	00 
    4278:	4c 8d 05 40 16 00 00 	lea    0x1640(%rip),%r8        # 58bf <aet_describe_pc+0x3b3f>
    427f:	48 8d 94 24 34 01 00 	lea    0x134(%rsp),%rdx
    4286:	00 
    4287:	4c 89 d1             	mov    %r10,%rcx
    428a:	4c 89 94 24 d8 00 00 	mov    %r10,0xd8(%rsp)
    4291:	00 
    4292:	4c 89 7c 24 20       	mov    %r15,0x20(%rsp)
    4297:	4d 89 f9             	mov    %r15,%r9
    429a:	e8 11 c0 ff ff       	call   2b0 <feat_push>
    429f:	48 8b 8c 24 d8 00 00 	mov    0xd8(%rsp),%rcx
    42a6:	00 
    42a7:	4d 89 f9             	mov    %r15,%r9
    42aa:	4c 8d 05 d0 16 00 00 	lea    0x16d0(%rip),%r8        # 5981 <aet_describe_pc+0x3c01>
    42b1:	48 8d 94 24 34 01 00 	lea    0x134(%rsp),%rdx
    42b8:	00 
    42b9:	e8 f2 bf ff ff       	call   2b0 <feat_push>
    42be:	48 63 84 24 34 01 00 	movslq 0x134(%rsp),%rax
    42c5:	00 
    42c6:	89 84 24 d8 00 00 00 	mov    %eax,0xd8(%rsp)
    42cd:	85 c0                	test   %eax,%eax
    42cf:	0f 8e 2c 0a 00 00    	jle    4d01 <aet_describe_pc+0x2f81>
    42d5:	4c 8d 2c 80          	lea    (%rax,%rax,4),%r13
    42d9:	4c 8d 94 24 f0 19 00 	lea    0x19f0(%rsp),%r10
    42e0:	00 
    42e1:	45 31 f6             	xor    %r14d,%r14d
    42e4:	48 89 9c 24 48 92 00 	mov    %rbx,0x9248(%rsp)
    42eb:	00 
    42ec:	49 c1 e5 07          	shl    $0x7,%r13
    42f0:	4d 89 d7             	mov    %r10,%r15
    42f3:	4c 89 d3             	mov    %r10,%rbx
    42f6:	4c 89 94 24 f0 00 00 	mov    %r10,0xf0(%rsp)
    42fd:	00 
    42fe:	4b 8d 44 15 00       	lea    0x0(%r13,%r10,1),%rax
    4303:	4c 8d 25 3f 28 00 00 	lea    0x283f(%rip),%r12        # 6b49 <aet_describe_pc+0x4dc9>
    430a:	48 89 84 24 08 01 00 	mov    %rax,0x108(%rsp)
    4311:	00 
    4312:	49 89 c5             	mov    %rax,%r13
    4315:	66 66 2e 0f 1f 84 00 	data16 cs nopw 0x0(%rax,%rax,1)
    431c:	00 00 00 00 
    4320:	48 89 d9             	mov    %rbx,%rcx
    4323:	4c 89 e2             	mov    %r12,%rdx
    4326:	e8 00 00 00 00       	call   432b <aet_describe_pc+0x25ab>
    432b:	48 83 f8 01          	cmp    $0x1,%rax
    432f:	41 83 de ff          	sbb    $0xffffffff,%r14d
    4333:	48 81 c3 80 02 00 00 	add    $0x280,%rbx
    433a:	49 39 dd             	cmp    %rbx,%r13
    433d:	75 e1                	jne    4320 <aet_describe_pc+0x25a0>
    433f:	48 8b 9c 24 48 92 00 	mov    0x9248(%rsp),%rbx
    4346:	00 
    4347:	4c 8b 94 24 f0 00 00 	mov    0xf0(%rsp),%r10
    434e:	00 
    434f:	81 bc 24 a0 01 00 00 	cmpl   $0x646c6162,0x1a0(%rsp)
    4356:	62 61 6c 64 
    435a:	0f 84 a8 08 00 00    	je     4c08 <aet_describe_pc+0x2e88>
    4360:	4c 8d 0d 6f 28 00 00 	lea    0x286f(%rip),%r9        # 6bd6 <aet_describe_pc+0x4e56>
    4367:	49 89 f8             	mov    %rdi,%r8
    436a:	48 89 ea             	mov    %rbp,%rdx
    436d:	48 89 d9             	mov    %rbx,%rcx
    4370:	48 8b 84 24 80 00 00 	mov    0x80(%rsp),%rax
    4377:	00 
    4378:	4c 89 94 24 f0 00 00 	mov    %r10,0xf0(%rsp)
    437f:	00 
    4380:	48 89 44 24 30       	mov    %rax,0x30(%rsp)
    4385:	48 8b 84 24 e8 00 00 	mov    0xe8(%rsp),%rax
    438c:	00 
    438d:	48 89 44 24 28       	mov    %rax,0x28(%rsp)
    4392:	48 8b 84 24 e0 00 00 	mov    0xe0(%rsp),%rax
    4399:	00 
    439a:	48 89 44 24 20       	mov    %rax,0x20(%rsp)
    439f:	e8 5c bf ff ff       	call   300 <d_apf>
    43a4:	44 89 b4 24 e0 00 00 	mov    %r14d,0xe0(%rsp)
    43ab:	00 
    43ac:	4d 89 fe             	mov    %r15,%r14
    43af:	4c 8b ac 24 08 01 00 	mov    0x108(%rsp),%r13
    43b6:	00 
    43b7:	4c 8b bc 24 f0 00 00 	mov    0xf0(%rsp),%r15
    43be:	00 
    43bf:	eb 17                	jmp    43d8 <aet_describe_pc+0x2658>
    43c1:	0f 1f 80 00 00 00 00 	nopl   0x0(%rax)
    43c8:	49 81 c6 80 02 00 00 	add    $0x280,%r14
    43cf:	4d 39 f5             	cmp    %r14,%r13
    43d2:	0f 84 e8 00 00 00    	je     44c0 <aet_describe_pc+0x2740>
    43d8:	48 8d 15 8a 28 00 00 	lea    0x288a(%rip),%rdx        # 6c69 <aet_describe_pc+0x4ee9>
    43df:	4c 89 f1             	mov    %r14,%rcx
    43e2:	e8 00 00 00 00       	call   43e7 <aet_describe_pc+0x2667>
    43e7:	48 85 c0             	test   %rax,%rax
    43ea:	74 dc                	je     43c8 <aet_describe_pc+0x2648>
    43ec:	4c 89 e2             	mov    %r12,%rdx
    43ef:	4c 89 f1             	mov    %r14,%rcx
    43f2:	e8 00 00 00 00       	call   43f7 <aet_describe_pc+0x2677>
    43f7:	48 85 c0             	test   %rax,%rax
    43fa:	75 cc                	jne    43c8 <aet_describe_pc+0x2648>
    43fc:	48 8d 15 8f 28 00 00 	lea    0x288f(%rip),%rdx        # 6c92 <aet_describe_pc+0x4f12>
    4403:	4c 89 f1             	mov    %r14,%rcx
    4406:	e8 00 00 00 00       	call   440b <aet_describe_pc+0x268b>
    440b:	48 85 c0             	test   %rax,%rax
    440e:	75 b8                	jne    43c8 <aet_describe_pc+0x2648>
    4410:	48 8d 15 99 28 00 00 	lea    0x2899(%rip),%rdx        # 6cb0 <aet_describe_pc+0x4f30>
    4417:	4c 89 f1             	mov    %r14,%rcx
    441a:	e8 00 00 00 00       	call   441f <aet_describe_pc+0x269f>
    441f:	48 85 c0             	test   %rax,%rax
    4422:	75 a4                	jne    43c8 <aet_describe_pc+0x2648>
    4424:	41 b8 7f 02 00 00    	mov    $0x27f,%r8d
    442a:	4c 89 f2             	mov    %r14,%rdx
    442d:	48 89 f1             	mov    %rsi,%rcx
    4430:	4c 89 bc 24 e0 00 00 	mov    %r15,0xe0(%rsp)
    4437:	00 
    4438:	e8 00 00 00 00       	call   443d <aet_describe_pc+0x26bd>
    443d:	0f b6 84 24 f0 09 00 	movzbl 0x9f0(%rsp),%eax
    4444:	00 
    4445:	c6 84 24 6f 0c 00 00 	movb   $0x0,0xc6f(%rsp)
    444c:	00 
    444d:	4c 8b 94 24 e0 00 00 	mov    0xe0(%rsp),%r10
    4454:	00 
    4455:	84 c0                	test   %al,%al
    4457:	74 19                	je     4472 <aet_describe_pc+0x26f2>
    4459:	0f b6 c8             	movzbl %al,%ecx
    445c:	ff 94 24 98 00 00 00 	call   *0x98(%rsp)
    4463:	4c 8b 94 24 e0 00 00 	mov    0xe0(%rsp),%r10
    446a:	00 
    446b:	88 84 24 f0 09 00 00 	mov    %al,0x9f0(%rsp)
    4472:	48 8d 15 a3 28 00 00 	lea    0x28a3(%rip),%rdx        # 6d1c <lip_opt.1+0x3d3c>
    4479:	48 89 f1             	mov    %rsi,%rcx
    447c:	4c 89 94 24 e0 00 00 	mov    %r10,0xe0(%rsp)
    4483:	00 
    4484:	e8 00 00 00 00       	call   4489 <aet_describe_pc+0x2709>
    4489:	48 85 c0             	test   %rax,%rax
    448c:	0f 84 c6 18 00 00    	je     5d58 <aet_describe_pc+0x3fd8>
    4492:	48 89 74 24 20       	mov    %rsi,0x20(%rsp)
    4497:	4c 8d 0d aa 28 00 00 	lea    0x28aa(%rip),%r9        # 6d48 <lip_opt.1+0x3d68>
    449e:	49 89 f8             	mov    %rdi,%r8
    44a1:	48 89 ea             	mov    %rbp,%rdx
    44a4:	48 89 d9             	mov    %rbx,%rcx
    44a7:	e8 54 be ff ff       	call   300 <d_apf>
    44ac:	4c 8b 94 24 e0 00 00 	mov    0xe0(%rsp),%r10
    44b3:	00 
    44b4:	eb 40                	jmp    44f6 <aet_describe_pc+0x2776>
    44b6:	66 2e 0f 1f 84 00 00 	cs nopw 0x0(%rax,%rax,1)
    44bd:	00 00 00 
    44c0:	44 8b 8c 24 e0 00 00 	mov    0xe0(%rsp),%r9d
    44c7:	00 
    44c8:	45 85 c9             	test   %r9d,%r9d
    44cb:	0f 84 7d 08 00 00    	je     4d4e <aet_describe_pc+0x2fce>
    44d1:	4c 8d 0d ba 28 00 00 	lea    0x28ba(%rip),%r9        # 6d92 <lip_opt.1+0x3db2>
    44d8:	49 89 f8             	mov    %rdi,%r8
    44db:	48 89 ea             	mov    %rbp,%rdx
    44de:	48 89 d9             	mov    %rbx,%rcx
    44e1:	4c 89 bc 24 e0 00 00 	mov    %r15,0xe0(%rsp)
    44e8:	00 
    44e9:	e8 12 be ff ff       	call   300 <d_apf>
    44ee:	4c 8b 94 24 e0 00 00 	mov    0xe0(%rsp),%r10
    44f5:	00 
    44f6:	4c 8d 0d d7 28 00 00 	lea    0x28d7(%rip),%r9        # 6dd4 <lip_opt.1+0x3df4>
    44fd:	49 89 f8             	mov    %rdi,%r8
    4500:	48 89 ea             	mov    %rbp,%rdx
    4503:	48 89 d9             	mov    %rbx,%rcx
    4506:	48 8b 84 24 a8 00 00 	mov    0xa8(%rsp),%rax
    450d:	00 
    450e:	4c 89 94 24 e0 00 00 	mov    %r10,0xe0(%rsp)
    4515:	00 
    4516:	48 89 44 24 20       	mov    %rax,0x20(%rsp)
    451b:	e8 e0 bd ff ff       	call   300 <d_apf>
    4520:	4c 8b 94 24 e0 00 00 	mov    0xe0(%rsp),%r10
    4527:	00 
    4528:	48 89 9c 24 48 92 00 	mov    %rbx,0x9248(%rsp)
    452f:	00 
    4530:	4d 89 d6             	mov    %r10,%r14
    4533:	8b 9c 24 d8 00 00 00 	mov    0xd8(%rsp),%ebx
    453a:	45 31 ff             	xor    %r15d,%r15d
    453d:	48 89 b4 24 a8 00 00 	mov    %rsi,0xa8(%rsp)
    4544:	00 
    4545:	45 31 ed             	xor    %r13d,%r13d
    4548:	eb 24                	jmp    456e <aet_describe_pc+0x27ee>
    454a:	66 0f 1f 44 00 00    	nopw   0x0(%rax,%rax,1)
    4550:	41 83 c5 01          	add    $0x1,%r13d
    4554:	49 81 c6 80 02 00 00 	add    $0x280,%r14
    455b:	44 39 eb             	cmp    %r13d,%ebx
    455e:	0f 8e 8c 00 00 00    	jle    45f0 <aet_describe_pc+0x2870>
    4564:	41 83 ff 18          	cmp    $0x18,%r15d
    4568:	0f 84 82 00 00 00    	je     45f0 <aet_describe_pc+0x2870>
    456e:	4c 89 e2             	mov    %r12,%rdx
    4571:	4c 89 f1             	mov    %r14,%rcx
    4574:	e8 00 00 00 00       	call   4579 <aet_describe_pc+0x27f9>
    4579:	48 85 c0             	test   %rax,%rax
    457c:	75 d2                	jne    4550 <aet_describe_pc+0x27d0>
    457e:	48 8d 15 8a 28 00 00 	lea    0x288a(%rip),%rdx        # 6e0f <lip_opt.1+0x3e2f>
    4585:	4c 89 f1             	mov    %r14,%rcx
    4588:	e8 00 00 00 00       	call   458d <aet_describe_pc+0x280d>
    458d:	48 85 c0             	test   %rax,%rax
    4590:	75 be                	jne    4550 <aet_describe_pc+0x27d0>
    4592:	49 63 c7             	movslq %r15d,%rax
    4595:	41 b8 7f 02 00 00    	mov    $0x27f,%r8d
    459b:	4c 89 f2             	mov    %r14,%rdx
    459e:	48 8d 34 80          	lea    (%rax,%rax,4),%rsi
    45a2:	48 8b 44 24 78       	mov    0x78(%rsp),%rax
    45a7:	48 c1 e6 07          	shl    $0x7,%rsi
    45ab:	48 8d 0c 30          	lea    (%rax,%rsi,1),%rcx
    45af:	e8 00 00 00 00       	call   45b4 <aet_describe_pc+0x2834>
    45b4:	0f b6 8c 34 f0 55 00 	movzbl 0x55f0(%rsp,%rsi,1),%ecx
    45bb:	00 
    45bc:	c6 84 34 6f 58 00 00 	movb   $0x0,0x586f(%rsp,%rsi,1)
    45c3:	00 
    45c4:	84 c9                	test   %cl,%cl
    45c6:	74 0d                	je     45d5 <aet_describe_pc+0x2855>
    45c8:	ff 15 00 00 00 00    	call   *0x0(%rip)        # 45ce <aet_describe_pc+0x284e>
    45ce:	88 84 34 f0 55 00 00 	mov    %al,0x55f0(%rsp,%rsi,1)
    45d5:	41 83 c5 01          	add    $0x1,%r13d
    45d9:	41 83 c7 01          	add    $0x1,%r15d
    45dd:	49 81 c6 80 02 00 00 	add    $0x280,%r14
    45e4:	44 39 eb             	cmp    %r13d,%ebx
    45e7:	0f 8f 77 ff ff ff    	jg     4564 <aet_describe_pc+0x27e4>
    45ed:	0f 1f 00             	nopl   (%rax)
    45f0:	48 8b 9c 24 48 92 00 	mov    0x9248(%rsp),%rbx
    45f7:	00 
    45f8:	48 8b b4 24 a8 00 00 	mov    0xa8(%rsp),%rsi
    45ff:	00 
    4600:	45 85 ff             	test   %r15d,%r15d
    4603:	0f 84 0b 01 00 00    	je     4714 <aet_describe_pc+0x2994>
    4609:	41 83 ff 01          	cmp    $0x1,%r15d
    460d:	0f 84 d8 13 00 00    	je     59eb <aet_describe_pc+0x3c6b>
    4613:	41 83 ff 02          	cmp    $0x2,%r15d
    4617:	0f 84 35 14 00 00    	je     5a52 <aet_describe_pc+0x3cd2>
    461d:	c6 84 24 f0 09 00 00 	movb   $0x0,0x9f0(%rsp)
    4624:	00 
    4625:	4c 8b 6c 24 78       	mov    0x78(%rsp),%r13
    462a:	45 8d 67 fe          	lea    -0x2(%r15),%r12d
    462e:	45 31 ff             	xor    %r15d,%r15d
    4631:	0f 1f 40 00          	nopl   0x0(%rax)
    4635:	66 66 2e 0f 1f 84 00 	data16 cs nopw 0x0(%rax,%rax,1)
    463c:	00 00 00 00 
    4640:	48 89 f1             	mov    %rsi,%rcx
    4643:	41 83 c7 01          	add    $0x1,%r15d
    4647:	e8 00 00 00 00       	call   464c <aet_describe_pc+0x28cc>
    464c:	41 b8 ff 0f 00 00    	mov    $0xfff,%r8d
    4652:	4c 89 ea             	mov    %r13,%rdx
    4655:	48 89 f1             	mov    %rsi,%rcx
    4658:	49 29 c0             	sub    %rax,%r8
    465b:	49 81 c5 80 02 00 00 	add    $0x280,%r13
    4662:	e8 00 00 00 00       	call   4667 <aet_describe_pc+0x28e7>
    4667:	48 89 f1             	mov    %rsi,%rcx
    466a:	e8 00 00 00 00       	call   466f <aet_describe_pc+0x28ef>
    466f:	41 b8 ff 0f 00 00    	mov    $0xfff,%r8d
    4675:	48 8d 15 1f 29 00 00 	lea    0x291f(%rip),%rdx        # 6f9b <lip_opt.1+0x3fbb>
    467c:	48 89 f1             	mov    %rsi,%rcx
    467f:	49 29 c0             	sub    %rax,%r8
    4682:	e8 00 00 00 00       	call   4687 <aet_describe_pc+0x2907>
    4687:	45 39 fc             	cmp    %r15d,%r12d
    468a:	7f b4                	jg     4640 <aet_describe_pc+0x28c0>
    468c:	48 89 f1             	mov    %rsi,%rcx
    468f:	4d 63 e4             	movslq %r12d,%r12
    4692:	e8 00 00 00 00       	call   4697 <aet_describe_pc+0x2917>
    4697:	4f 8d 24 a4          	lea    (%r12,%r12,4),%r12
    469b:	4c 8b 7c 24 78       	mov    0x78(%rsp),%r15
    46a0:	48 89 f1             	mov    %rsi,%rcx
    46a3:	49 c1 e4 07          	shl    $0x7,%r12
    46a7:	41 b8 ff 0f 00 00    	mov    $0xfff,%r8d
    46ad:	4b 8d 14 27          	lea    (%r15,%r12,1),%rdx
    46b1:	49 29 c0             	sub    %rax,%r8
    46b4:	e8 00 00 00 00       	call   46b9 <aet_describe_pc+0x2939>
    46b9:	48 89 f1             	mov    %rsi,%rcx
    46bc:	e8 00 00 00 00       	call   46c1 <aet_describe_pc+0x2941>
    46c1:	41 b8 ff 0f 00 00    	mov    $0xfff,%r8d
    46c7:	48 8d 15 22 29 00 00 	lea    0x2922(%rip),%rdx        # 6ff0 <lip_opt.1+0x4010>
    46ce:	48 89 f1             	mov    %rsi,%rcx
    46d1:	49 29 c0             	sub    %rax,%r8
    46d4:	e8 00 00 00 00       	call   46d9 <aet_describe_pc+0x2959>
    46d9:	48 89 f1             	mov    %rsi,%rcx
    46dc:	e8 00 00 00 00       	call   46e1 <aet_describe_pc+0x2961>
    46e1:	41 b8 ff 0f 00 00    	mov    $0xfff,%r8d
    46e7:	4b 8d 94 27 80 02 00 	lea    0x280(%r15,%r12,1),%rdx
    46ee:	00 
    46ef:	48 89 f1             	mov    %rsi,%rcx
    46f2:	49 29 c0             	sub    %rax,%r8
    46f5:	e8 00 00 00 00       	call   46fa <aet_describe_pc+0x297a>
    46fa:	48 89 74 24 20       	mov    %rsi,0x20(%rsp)
    46ff:	4c 8d 0d f4 28 00 00 	lea    0x28f4(%rip),%r9        # 6ffa <lip_opt.1+0x401a>
    4706:	49 89 f8             	mov    %rdi,%r8
    4709:	48 89 ea             	mov    %rbp,%rdx
    470c:	48 89 d9             	mov    %rbx,%rcx
    470f:	e8 ec bb ff ff       	call   300 <d_apf>
    4714:	4c 8d 0d e1 11 00 00 	lea    0x11e1(%rip),%r9        # 58fc <aet_describe_pc+0x3b7c>
    471b:	49 89 f8             	mov    %rdi,%r8
    471e:	48 89 ea             	mov    %rbp,%rdx
    4721:	48 89 d9             	mov    %rbx,%rcx
    4724:	e8 d7 bb ff ff       	call   300 <d_apf>
    4729:	44 8b ac 24 0c 09 00 	mov    0x90c(%rsp),%r13d
    4730:	00 
    4731:	45 85 ed             	test   %r13d,%r13d
    4734:	74 7a                	je     47b0 <aet_describe_pc+0x2a30>
    4736:	48 8b 8c 24 a0 00 00 	mov    0xa0(%rsp),%rcx
    473d:	00 
    473e:	e8 bd b8 ff ff       	call   0 <get_skin_type>
    4743:	8b 8c 24 b4 00 00 00 	mov    0xb4(%rsp),%ecx
    474a:	49 89 c4             	mov    %rax,%r12
    474d:	ff 94 24 98 00 00 00 	call   *0x98(%rsp)
    4754:	48 8b 94 24 b8 00 00 	mov    0xb8(%rsp),%rdx
    475b:	00 
    475c:	48 8b 8c 24 28 01 00 	mov    0x128(%rsp),%rcx
    4763:	00 
    4764:	41 b8 0e 00 00 00    	mov    $0xe,%r8d
    476a:	88 84 24 f0 09 00 00 	mov    %al,0x9f0(%rsp)
    4771:	e8 00 00 00 00       	call   4776 <aet_describe_pc+0x29f6>
    4776:	41 8d 45 f6          	lea    -0xa(%r13),%eax
    477a:	c6 84 24 ff 09 00 00 	movb   $0x0,0x9ff(%rsp)
    4781:	00 
    4782:	83 f8 13             	cmp    $0x13,%eax
    4785:	0f 86 05 0b 00 00    	jbe    5290 <aet_describe_pc+0x3510>
    478b:	41 8d 45 e2          	lea    -0x1e(%r13),%eax
    478f:	83 f8 1d             	cmp    $0x1d,%eax
    4792:	0f 86 8a 0f 00 00    	jbe    5722 <aet_describe_pc+0x39a2>
    4798:	41 83 fd 3b          	cmp    $0x3b,%r13d
    479c:	0f 8f c3 0d 00 00    	jg     5565 <aet_describe_pc+0x37e5>
    47a2:	0f 1f 00             	nopl   (%rax)
    47a5:	66 66 2e 0f 1f 84 00 	data16 cs nopw 0x0(%rax,%rax,1)
    47ac:	00 00 00 00 
    47b0:	80 bc 24 00 05 00 00 	cmpb   $0x0,0x500(%rsp)
    47b7:	00 
    47b8:	0f 85 32 03 00 00    	jne    4af0 <aet_describe_pc+0x2d70>
    47be:	4c 8d 0d f3 2c 00 00 	lea    0x2cf3(%rip),%r9        # 74b8 <lip_opt.1+0x44d8>
    47c5:	49 89 f8             	mov    %rdi,%r8
    47c8:	48 89 ea             	mov    %rbp,%rdx
    47cb:	48 89 d9             	mov    %rbx,%rcx
    47ce:	48 8b 84 24 00 01 00 	mov    0x100(%rsp),%rax
    47d5:	00 
    47d6:	48 89 44 24 30       	mov    %rax,0x30(%rsp)
    47db:	48 8b 84 24 c8 00 00 	mov    0xc8(%rsp),%rax
    47e2:	00 
    47e3:	48 89 44 24 28       	mov    %rax,0x28(%rsp)
    47e8:	48 8b 84 24 c0 00 00 	mov    0xc0(%rsp),%rax
    47ef:	00 
    47f0:	48 89 44 24 20       	mov    %rax,0x20(%rsp)
    47f5:	e8 06 bb ff ff       	call   300 <d_apf>
    47fa:	48 89 d9             	mov    %rbx,%rcx
    47fd:	49 89 f8             	mov    %rdi,%r8
    4800:	48 89 ea             	mov    %rbp,%rdx
    4803:	48 8b 84 24 d0 00 00 	mov    0xd0(%rsp),%rax
    480a:	00 
    480b:	4c 8b 8c 24 90 00 00 	mov    0x90(%rsp),%r9
    4812:	00 
    4813:	48 89 44 24 20       	mov    %rax,0x20(%rsp)
    4818:	e8 43 be ff ff       	call   660 <legs_append>
    481d:	8b 8c 24 88 09 00 00 	mov    0x988(%rsp),%ecx
    4824:	44 8b a4 24 8c 09 00 	mov    0x98c(%rsp),%r12d
    482b:	00 
    482c:	85 c9                	test   %ecx,%ecx
    482e:	0f 84 5c 02 00 00    	je     4a90 <aet_describe_pc+0x2d10>
    4834:	48 8b 8c 24 a0 00 00 	mov    0xa0(%rsp),%rcx
    483b:	00 
    483c:	e8 bf b7 ff ff       	call   0 <get_skin_type>
    4841:	48 89 44 24 28       	mov    %rax,0x28(%rsp)
    4846:	48 8b 84 24 80 00 00 	mov    0x80(%rsp),%rax
    484d:	00 
    484e:	48 89 44 24 20       	mov    %rax,0x20(%rsp)
    4853:	45 85 e4             	test   %r12d,%r12d
    4856:	0f 85 14 0a 00 00    	jne    5270 <aet_describe_pc+0x34f0>
    485c:	4c 8d 0d 78 2d 00 00 	lea    0x2d78(%rip),%r9        # 75db <lip_opt.1+0x45fb>
    4863:	49 89 f8             	mov    %rdi,%r8
    4866:	48 89 ea             	mov    %rbp,%rdx
    4869:	48 89 d9             	mov    %rbx,%rcx
    486c:	e8 8f ba ff ff       	call   300 <d_apf>
    4871:	4c 8d 0d e1 11 00 00 	lea    0x11e1(%rip),%r9        # 5a59 <aet_describe_pc+0x3cd9>
    4878:	49 89 f8             	mov    %rdi,%r8
    487b:	48 89 ea             	mov    %rbp,%rdx
    487e:	48 89 d9             	mov    %rbx,%rcx
    4881:	e8 7a ba ff ff       	call   300 <d_apf>
    4886:	48 8b 94 24 10 01 00 	mov    0x110(%rsp),%rdx
    488d:	00 
    488e:	48 8b 8c 24 88 00 00 	mov    0x88(%rsp),%rcx
    4895:	00 
    4896:	e8 00 00 00 00       	call   489b <aet_describe_pc+0x2b1b>
    489b:	89 84 24 90 00 00 00 	mov    %eax,0x90(%rsp)
    48a2:	0f b6 84 24 68 09 00 	movzbl 0x968(%rsp),%eax
    48a9:	00 
    48aa:	84 c0                	test   %al,%al
    48ac:	0f 84 9f 13 00 00    	je     5c51 <aet_describe_pc+0x3ed1>
    48b2:	4c 8b 25 00 00 00 00 	mov    0x0(%rip),%r12        # 48b9 <aet_describe_pc+0x2b39>
    48b9:	49 89 f6             	mov    %rsi,%r14
    48bc:	41 bf 01 00 00 00    	mov    $0x1,%r15d
    48c2:	4c 8d ac 24 68 09 00 	lea    0x968(%rsp),%r13
    48c9:	00 
    48ca:	66 0f 1f 44 00 00    	nopw   0x0(%rax,%rax,1)
    48d0:	0f b6 c8             	movzbl %al,%ecx
    48d3:	41 ff d4             	call   *%r12
    48d6:	41 88 06             	mov    %al,(%r14)
    48d9:	43 0f b6 44 3d 00    	movzbl 0x0(%r13,%r15,1),%eax
    48df:	84 c0                	test   %al,%al
    48e1:	0f 84 01 02 00 00    	je     4ae8 <aet_describe_pc+0x2d68>
    48e7:	49 83 c7 01          	add    $0x1,%r15
    48eb:	49 83 c6 01          	add    $0x1,%r14
    48ef:	49 83 ff 18          	cmp    $0x18,%r15
    48f3:	75 db                	jne    48d0 <aet_describe_pc+0x2b50>
    48f5:	4c 8d bc 24 07 0a 00 	lea    0xa07(%rsp),%r15
    48fc:	00 
    48fd:	0f b6 84 24 78 09 00 	movzbl 0x978(%rsp),%eax
    4904:	00 
    4905:	41 c6 07 00          	movb   $0x0,(%r15)
    4909:	84 c0                	test   %al,%al
    490b:	0f 84 9a 13 00 00    	je     5cab <aet_describe_pc+0x3f2b>
    4911:	4c 8b 74 24 78       	mov    0x78(%rsp),%r14
    4916:	4c 8b 25 00 00 00 00 	mov    0x0(%rip),%r12        # 491d <aet_describe_pc+0x2b9d>
    491d:	41 bf 01 00 00 00    	mov    $0x1,%r15d
    4923:	4c 8d ac 24 78 09 00 	lea    0x978(%rsp),%r13
    492a:	00 
    492b:	0f 1f 44 00 00       	nopl   0x0(%rax,%rax,1)
    4930:	0f b6 c8             	movzbl %al,%ecx
    4933:	41 ff d4             	call   *%r12
    4936:	41 88 06             	mov    %al,(%r14)
    4939:	43 0f b6 44 3d 00    	movzbl 0x0(%r13,%r15,1),%eax
    493f:	84 c0                	test   %al,%al
    4941:	0f 84 91 01 00 00    	je     4ad8 <aet_describe_pc+0x2d58>
    4947:	49 83 c7 01          	add    $0x1,%r15
    494b:	49 83 c6 01          	add    $0x1,%r14
    494f:	49 83 ff 18          	cmp    $0x18,%r15
    4953:	75 db                	jne    4930 <aet_describe_pc+0x2bb0>
    4955:	4c 8d bc 24 07 56 00 	lea    0x5607(%rsp),%r15
    495c:	00 
    495d:	8b 94 24 90 00 00 00 	mov    0x90(%rsp),%edx
    4964:	41 c6 07 00          	movb   $0x0,(%r15)
    4968:	49 89 f8             	mov    %rdi,%r8
    496b:	48 89 d9             	mov    %rbx,%rcx
    496e:	48 8d 05 e0 0d 00 00 	lea    0xde0(%rip),%rax        # 5755 <aet_describe_pc+0x39d5>
    4975:	4c 8d 0d 18 2e 00 00 	lea    0x2e18(%rip),%r9        # 7794 <lip_opt.1+0x47b4>
    497c:	85 d2                	test   %edx,%edx
    497e:	48 8d 15 05 02 00 00 	lea    0x205(%rip),%rdx        # 4b8a <aet_describe_pc+0x2e0a>
    4985:	48 0f 44 c2          	cmove  %rdx,%rax
    4989:	48 8b 94 24 80 00 00 	mov    0x80(%rsp),%rdx
    4990:	00 
    4991:	48 89 44 24 28       	mov    %rax,0x28(%rsp)
    4996:	48 8b 84 24 88 00 00 	mov    0x88(%rsp),%rax
    499d:	00 
    499e:	48 89 54 24 30       	mov    %rdx,0x30(%rsp)
    49a3:	48 89 ea             	mov    %rbp,%rdx
    49a6:	48 89 44 24 20       	mov    %rax,0x20(%rsp)
    49ab:	e8 50 b9 ff ff       	call   300 <d_apf>
    49b0:	81 bc 24 f0 55 00 00 	cmpl   $0x70736172,0x55f0(%rsp)
    49b7:	72 61 73 70 
    49bb:	0f 84 4f d5 ff ff    	je     1f10 <aet_describe_pc+0x190>
    49c1:	81 bc 24 f0 55 00 00 	cmpl   $0x66757267,0x55f0(%rsp)
    49c8:	67 72 75 66 
    49cc:	0f 84 fe 04 00 00    	je     4ed0 <aet_describe_pc+0x3150>
    49d2:	48 b8 6d 65 6c 6f 64 	movabs $0x756f69646f6c656d,%rax
    49d9:	69 6f 75 
    49dc:	48 39 84 24 f0 55 00 	cmp    %rax,0x55f0(%rsp)
    49e3:	00 
    49e4:	0f 84 ee 0a 00 00    	je     54d8 <aet_describe_pc+0x3758>
    49ea:	48 b8 62 72 65 61 74 	movabs $0x79687461657262,%rax
    49f1:	68 79 00 
    49f4:	48 39 84 24 f0 55 00 	cmp    %rax,0x55f0(%rsp)
    49fb:	00 
    49fc:	0f 84 ca 0f 00 00    	je     59cc <aet_describe_pc+0x3c4c>
    4a02:	48 b8 62 61 72 69 74 	movabs $0x656e6f7469726162,%rax
    4a09:	6f 6e 65 
    4a0c:	48 39 84 24 f0 09 00 	cmp    %rax,0x9f0(%rsp)
    4a13:	00 
    4a14:	0f 84 da 0b 00 00    	je     55f4 <aet_describe_pc+0x3874>
    4a1a:	81 bc 24 f0 09 00 00 	cmpl   $0x73736162,0x9f0(%rsp)
    4a21:	62 61 73 73 
    4a25:	0f 84 7c 0c 00 00    	je     56a7 <aet_describe_pc+0x3927>
    4a2b:	48 b8 73 6f 70 72 61 	movabs $0x6f6e6172706f73,%rax
    4a32:	6e 6f 00 
    4a35:	48 39 84 24 f0 09 00 	cmp    %rax,0x9f0(%rsp)
    4a3c:	00 
    4a3d:	0f 84 85 0c 00 00    	je     56c8 <aet_describe_pc+0x3948>
    4a43:	81 bc 24 f0 09 00 00 	cmpl   $0x6f746c61,0x9f0(%rsp)
    4a4a:	61 6c 74 6f 
    4a4e:	0f 84 66 0c 00 00    	je     56ba <aet_describe_pc+0x393a>
    4a54:	81 bc 24 f0 09 00 00 	cmpl   $0x6f6e6574,0x9f0(%rsp)
    4a5b:	74 65 6e 6f 
    4a5f:	0f 84 df 12 00 00    	je     5d44 <aet_describe_pc+0x3fc4>
    4a65:	48 8b 44 24 78       	mov    0x78(%rsp),%rax
    4a6a:	48 89 74 24 28       	mov    %rsi,0x28(%rsp)
    4a6f:	49 89 f8             	mov    %rdi,%r8
    4a72:	48 89 ea             	mov    %rbp,%rdx
    4a75:	4c 8d 0d aa 2f 00 00 	lea    0x2faa(%rip),%r9        # 7a26 <lip_opt.1+0x4a46>
    4a7c:	48 89 d9             	mov    %rbx,%rcx
    4a7f:	48 89 44 24 20       	mov    %rax,0x20(%rsp)
    4a84:	e8 77 b8 ff ff       	call   300 <d_apf>
    4a89:	e9 b6 d4 ff ff       	jmp    1f44 <aet_describe_pc+0x1c4>
    4a8e:	66 90                	xchg   %ax,%ax
    4a90:	45 85 e4             	test   %r12d,%r12d
    4a93:	0f 84 d8 fd ff ff    	je     4871 <aet_describe_pc+0x2af1>
    4a99:	48 8b 8c 24 a0 00 00 	mov    0xa0(%rsp),%rcx
    4aa0:	00 
    4aa1:	e8 5a b5 ff ff       	call   0 <get_skin_type>
    4aa6:	49 89 f8             	mov    %rdi,%r8
    4aa9:	48 89 ea             	mov    %rbp,%rdx
    4aac:	48 89 d9             	mov    %rbx,%rcx
    4aaf:	48 89 44 24 28       	mov    %rax,0x28(%rsp)
    4ab4:	48 8b 84 24 80 00 00 	mov    0x80(%rsp),%rax
    4abb:	00 
    4abc:	4c 8d 0d d0 2d 00 00 	lea    0x2dd0(%rip),%r9        # 7893 <lip_opt.1+0x48b3>
    4ac3:	48 89 44 24 20       	mov    %rax,0x20(%rsp)
    4ac8:	e8 33 b8 ff ff       	call   300 <d_apf>
    4acd:	e9 9f fd ff ff       	jmp    4871 <aet_describe_pc+0x2af1>
    4ad2:	66 0f 1f 44 00 00    	nopw   0x0(%rax,%rax,1)
    4ad8:	4c 03 7c 24 78       	add    0x78(%rsp),%r15
    4add:	e9 7b fe ff ff       	jmp    495d <aet_describe_pc+0x2bdd>
    4ae2:	66 0f 1f 44 00 00    	nopw   0x0(%rax,%rax,1)
    4ae8:	49 01 f7             	add    %rsi,%r15
    4aeb:	e9 0d fe ff ff       	jmp    48fd <aet_describe_pc+0x2b7d>
    4af0:	4c 8d 0d ef 2c 00 00 	lea    0x2cef(%rip),%r9        # 77e6 <lip_opt.1+0x4806>
    4af7:	49 89 f8             	mov    %rdi,%r8
    4afa:	48 89 ea             	mov    %rbp,%rdx
    4afd:	48 89 d9             	mov    %rbx,%rcx
    4b00:	48 8d 84 24 00 05 00 	lea    0x500(%rsp),%rax
    4b07:	00 
    4b08:	48 89 44 24 20       	mov    %rax,0x20(%rsp)
    4b0d:	e8 ee b7 ff ff       	call   300 <d_apf>
    4b12:	e9 a7 fc ff ff       	jmp    47be <aet_describe_pc+0x2a3e>
    4b17:	66 0f 1f 84 00 00 00 	nopw   0x0(%rax,%rax,1)
    4b1e:	00 00 
    4b20:	48 ba 73 68 65 65 72 	movabs $0x7473207265656873,%rdx
    4b27:	20 73 74 
    4b2a:	48 b9 72 65 6e 67 74 	movabs $0x65206874676e6572,%rcx
    4b31:	68 20 65 
    4b34:	48 c7 84 24 38 1a 00 	movq   $0x0,0x1a38(%rsp)
    4b3b:	00 00 00 00 00 
    4b40:	48 89 94 24 f0 19 00 	mov    %rdx,0x19f0(%rsp)
    4b47:	00 
    4b48:	48 ba 76 69 64 65 6e 	movabs $0x6920746e65646976,%rdx
    4b4f:	74 20 69 
    4b52:	48 89 8c 24 f8 19 00 	mov    %rcx,0x19f8(%rsp)
    4b59:	00 
    4b5a:	48 b9 6e 20 70 6f 77 	movabs $0x667265776f70206e,%rcx
    4b61:	65 72 66 
    4b64:	48 89 94 24 00 1a 00 	mov    %rdx,0x1a00(%rsp)
    4b6b:	00 
    4b6c:	48 ba 75 6c 20 73 68 	movabs $0x6c756f6873206c75,%rdx
    4b73:	6f 75 6c 
    4b76:	48 89 8c 24 08 1a 00 	mov    %rcx,0x1a08(%rsp)
    4b7d:	00 
    4b7e:	b9 64 65 72 73       	mov    $0x73726564,%ecx
    4b83:	48 89 94 24 10 1a 00 	mov    %rdx,0x1a10(%rsp)
    4b8a:	00 
    4b8b:	ba 73 00 00 00       	mov    $0x73,%edx
    4b90:	48 89 8c 24 18 1a 00 	mov    %rcx,0x1a18(%rsp)
    4b97:	00 
    4b98:	48 c7 84 24 20 1a 00 	movq   $0x0,0x1a20(%rsp)
    4b9f:	00 00 00 00 00 
    4ba4:	48 c7 84 24 28 1a 00 	movq   $0x0,0x1a28(%rsp)
    4bab:	00 00 00 00 00 
    4bb0:	48 c7 84 24 30 1a 00 	movq   $0x0,0x1a30(%rsp)
    4bb7:	00 00 00 00 00 
    4bbc:	48 c7 84 24 3f 1a 00 	movq   $0x0,0x1a3f(%rsp)
    4bc3:	00 00 00 00 00 
    4bc8:	48 c7 84 24 47 1a 00 	movq   $0x0,0x1a47(%rsp)
    4bcf:	00 00 00 00 00 
    4bd4:	83 f8 11             	cmp    $0x11,%eax
    4bd7:	0f 8e e4 05 00 00    	jle    51c1 <aet_describe_pc+0x3441>
    4bdd:	84 d2                	test   %dl,%dl
    4bdf:	0f 84 23 05 00 00    	je     5108 <aet_describe_pc+0x3388>
    4be5:	8b 84 24 0c 09 00 00 	mov    0x90c(%rsp),%eax
    4bec:	83 f8 32             	cmp    $0x32,%eax
    4bef:	0f 8f 4b f1 ff ff    	jg     3d40 <aet_describe_pc+0x1fc0>
    4bf5:	48 8d 05 05 02 00 00 	lea    0x205(%rip),%rax        # 4e01 <aet_describe_pc+0x3081>
    4bfc:	48 89 c2             	mov    %rax,%rdx
    4bff:	e9 eb f1 ff ff       	jmp    3def <aet_describe_pc+0x206f>
    4c04:	0f 1f 40 00          	nopl   0x0(%rax)
    4c08:	80 bc 24 a4 01 00 00 	cmpb   $0x0,0x1a4(%rsp)
    4c0f:	00 
    4c10:	0f 85 4a f7 ff ff    	jne    4360 <aet_describe_pc+0x25e0>
    4c16:	4c 8d 0d 51 28 00 00 	lea    0x2851(%rip),%r9        # 746e <lip_opt.1+0x448e>
    4c1d:	49 89 f8             	mov    %rdi,%r8
    4c20:	48 89 ea             	mov    %rbp,%rdx
    4c23:	48 89 d9             	mov    %rbx,%rcx
    4c26:	48 8b 84 24 a8 00 00 	mov    0xa8(%rsp),%rax
    4c2d:	00 
    4c2e:	48 89 44 24 20       	mov    %rax,0x20(%rsp)
    4c33:	e8 c8 b6 ff ff       	call   300 <d_apf>
    4c38:	49 89 f8             	mov    %rdi,%r8
    4c3b:	4c 8d 0d d7 28 00 00 	lea    0x28d7(%rip),%r9        # 7519 <lip_opt.1+0x4539>
    4c42:	48 89 ea             	mov    %rbp,%rdx
    4c45:	48 89 d9             	mov    %rbx,%rcx
    4c48:	48 8b 84 24 a8 00 00 	mov    0xa8(%rsp),%rax
    4c4f:	00 
    4c50:	48 89 44 24 20       	mov    %rax,0x20(%rsp)
    4c55:	e8 a6 b6 ff ff       	call   300 <d_apf>
    4c5a:	44 8b 84 24 d8 00 00 	mov    0xd8(%rsp),%r8d
    4c61:	00 
    4c62:	45 85 c0             	test   %r8d,%r8d
    4c65:	0f 8e a9 fa ff ff    	jle    4714 <aet_describe_pc+0x2994>
    4c6b:	4c 8d 94 24 f0 19 00 	lea    0x19f0(%rsp),%r10
    4c72:	00 
    4c73:	4c 8d 25 3f 28 00 00 	lea    0x283f(%rip),%r12        # 74b9 <lip_opt.1+0x44d9>
    4c7a:	e9 a9 f8 ff ff       	jmp    4528 <aet_describe_pc+0x27a8>
    4c7f:	90                   	nop
    4c80:	83 f8 32             	cmp    $0x32,%eax
    4c83:	0f 8f 34 e1 ff ff    	jg     2dbd <aet_describe_pc+0x103d>
    4c89:	e9 df e1 ff ff       	jmp    2e6d <aet_describe_pc+0x10ed>
    4c8e:	66 90                	xchg   %ax,%ax
    4c90:	0f 85 aa da ff ff    	jne    2740 <aet_describe_pc+0x9c0>
    4c96:	48 8b 4c 24 78       	mov    0x78(%rsp),%rcx
    4c9b:	48 8d 15 bf 2f 00 00 	lea    0x2fbf(%rip),%rdx        # 7c61 <lip_opt.1+0x4c81>
    4ca2:	e8 00 00 00 00       	call   4ca7 <aet_describe_pc+0x2f27>
    4ca7:	85 c0                	test   %eax,%eax
    4ca9:	0f 85 91 da ff ff    	jne    2740 <aet_describe_pc+0x9c0>
    4caf:	c6 84 24 f0 55 00 00 	movb   $0x0,0x55f0(%rsp)
    4cb6:	00 
    4cb7:	e9 84 da ff ff       	jmp    2740 <aet_describe_pc+0x9c0>
    4cbc:	0f 1f 40 00          	nopl   0x0(%rax)
    4cc0:	4c 8d 0d e4 11 00 00 	lea    0x11e4(%rip),%r9        # 5eab <aet_describe_pc+0x412b>
    4cc7:	49 89 f8             	mov    %rdi,%r8
    4cca:	48 89 ea             	mov    %rbp,%rdx
    4ccd:	48 89 d9             	mov    %rbx,%rcx
    4cd0:	48 8b 84 24 20 01 00 	mov    0x120(%rsp),%rax
    4cd7:	00 
    4cd8:	48 89 44 24 30       	mov    %rax,0x30(%rsp)
    4cdd:	48 8b 84 24 08 01 00 	mov    0x108(%rsp),%rax
    4ce4:	00 
    4ce5:	48 89 44 24 28       	mov    %rax,0x28(%rsp)
    4cea:	48 8b 84 24 80 00 00 	mov    0x80(%rsp),%rax
    4cf1:	00 
    4cf2:	48 89 44 24 20       	mov    %rax,0x20(%rsp)
    4cf7:	e8 04 b6 ff ff       	call   300 <d_apf>
    4cfc:	e9 5e e3 ff ff       	jmp    305f <aet_describe_pc+0x12df>
    4d01:	81 bc 24 a0 01 00 00 	cmpl   $0x646c6162,0x1a0(%rsp)
    4d08:	62 61 6c 64 
    4d0c:	0f 84 fd 09 00 00    	je     570f <aet_describe_pc+0x398f>
    4d12:	4c 8d 0d 6f 28 00 00 	lea    0x286f(%rip),%r9        # 7588 <lip_opt.1+0x45a8>
    4d19:	49 89 f8             	mov    %rdi,%r8
    4d1c:	48 89 ea             	mov    %rbp,%rdx
    4d1f:	48 89 d9             	mov    %rbx,%rcx
    4d22:	48 8b 84 24 80 00 00 	mov    0x80(%rsp),%rax
    4d29:	00 
    4d2a:	48 89 44 24 30       	mov    %rax,0x30(%rsp)
    4d2f:	48 8b 84 24 e8 00 00 	mov    0xe8(%rsp),%rax
    4d36:	00 
    4d37:	48 89 44 24 28       	mov    %rax,0x28(%rsp)
    4d3c:	48 8b 84 24 e0 00 00 	mov    0xe0(%rsp),%rax
    4d43:	00 
    4d44:	48 89 44 24 20       	mov    %rax,0x20(%rsp)
    4d49:	e8 b2 b5 ff ff       	call   300 <d_apf>
    4d4e:	4c 8d 0d bc 28 00 00 	lea    0x28bc(%rip),%r9        # 7611 <lip_opt.1+0x4631>
    4d55:	49 89 f8             	mov    %rdi,%r8
    4d58:	48 89 ea             	mov    %rbp,%rdx
    4d5b:	48 89 d9             	mov    %rbx,%rcx
    4d5e:	e8 9d b5 ff ff       	call   300 <d_apf>
    4d63:	e9 d0 fe ff ff       	jmp    4c38 <aet_describe_pc+0x2eb8>
    4d68:	0f 1f 84 00 00 00 00 	nopl   0x0(%rax,%rax,1)
    4d6f:	00 
    4d70:	80 bc 24 58 08 00 00 	cmpb   $0x0,0x858(%rsp)
    4d77:	00 
    4d78:	0f 85 6a d3 ff ff    	jne    20e8 <aet_describe_pc+0x368>
    4d7e:	81 bc 24 10 09 00 00 	cmpl   $0x70706952,0x910(%rsp)
    4d85:	52 69 70 70 
    4d89:	74 40                	je     4dcb <aet_describe_pc+0x304b>
    4d8b:	48 8d bc 24 10 09 00 	lea    0x910(%rsp),%rdi
    4d92:	00 
    4d93:	48 b8 61 20 70 6f 77 	movabs $0x667265776f702061,%rax
    4d9a:	65 72 66 
    4d9d:	48 ba 75 6c 2c 20 64 	movabs $0x69666564202c6c75,%rdx
    4da4:	65 66 69 
    4da7:	48 89 84 24 a0 04 00 	mov    %rax,0x4a0(%rsp)
    4dae:	00 
    4daf:	48 b8 6e 65 64 20 62 	movabs $0x6c6975622064656e,%rax
    4db6:	75 69 6c 
    4db9:	48 89 94 24 a8 04 00 	mov    %rdx,0x4a8(%rsp)
    4dc0:	00 
    4dc1:	ba 64 00 00 00       	mov    $0x64,%edx
    4dc6:	e9 85 d3 ff ff       	jmp    2150 <aet_describe_pc+0x3d0>
    4dcb:	81 bc 24 13 09 00 00 	cmpl   $0x646570,0x913(%rsp)
    4dd2:	70 65 64 00 
    4dd6:	75 b3                	jne    4d8b <aet_describe_pc+0x300b>
    4dd8:	48 b8 61 6e 20 69 6e 	movabs $0x6e65746e69206e61,%rax
    4ddf:	74 65 6e 
    4de2:	48 ba 73 65 6c 79 20 	movabs $0x69686320796c6573,%rdx
    4de9:	63 68 69 
    4dec:	48 c7 84 24 e8 04 00 	movq   $0x0,0x4e8(%rsp)
    4df3:	00 00 00 00 00 
    4df8:	48 8d bc 24 10 09 00 	lea    0x910(%rsp),%rdi
    4dff:	00 
    4e00:	48 89 84 24 a0 04 00 	mov    %rax,0x4a0(%rsp)
    4e07:	00 
    4e08:	48 b8 73 65 6c 65 64 	movabs $0x6f662064656c6573,%rax
    4e0f:	20 66 6f 
    4e12:	48 89 94 24 a8 04 00 	mov    %rdx,0x4a8(%rsp)
    4e19:	00 
    4e1a:	ba 72 6d 00 00       	mov    $0x6d72,%edx
    4e1f:	48 89 84 24 b0 04 00 	mov    %rax,0x4b0(%rsp)
    4e26:	00 
    4e27:	48 89 94 24 b8 04 00 	mov    %rdx,0x4b8(%rsp)
    4e2e:	00 
    4e2f:	48 c7 84 24 c0 04 00 	movq   $0x0,0x4c0(%rsp)
    4e36:	00 00 00 00 00 
    4e3b:	48 c7 84 24 c8 04 00 	movq   $0x0,0x4c8(%rsp)
    4e42:	00 00 00 00 00 
    4e47:	48 c7 84 24 d0 04 00 	movq   $0x0,0x4d0(%rsp)
    4e4e:	00 00 00 00 00 
    4e53:	48 c7 84 24 d8 04 00 	movq   $0x0,0x4d8(%rsp)
    4e5a:	00 00 00 00 00 
    4e5f:	48 c7 84 24 e0 04 00 	movq   $0x0,0x4e0(%rsp)
    4e66:	00 00 00 00 00 
    4e6b:	48 c7 84 24 ef 04 00 	movq   $0x0,0x4ef(%rsp)
    4e72:	00 00 00 00 00 
    4e77:	48 c7 84 24 f7 04 00 	movq   $0x0,0x4f7(%rsp)
    4e7e:	00 00 00 00 00 
    4e83:	e9 38 d3 ff ff       	jmp    21c0 <aet_describe_pc+0x440>
    4e88:	0f 1f 84 00 00 00 00 	nopl   0x0(%rax,%rax,1)
    4e8f:	00 
    4e90:	81 bc 24 58 09 00 00 	cmpl   $0x646567,0x958(%rsp)
    4e97:	67 65 64 00 
    4e9b:	0f 85 03 e2 ff ff    	jne    30a4 <aet_describe_pc+0x1324>
    4ea1:	4c 8d a4 24 a0 03 00 	lea    0x3a0(%rsp),%r12
    4ea8:	00 
    4ea9:	4c 8b 8c 24 f8 00 00 	mov    0xf8(%rsp),%r9
    4eb0:	00 
    4eb1:	ba 00 01 00 00       	mov    $0x100,%edx
    4eb6:	4c 8d 05 78 12 00 00 	lea    0x1278(%rip),%r8        # 6135 <aet_describe_pc+0x43b5>
    4ebd:	4c 89 e1             	mov    %r12,%rcx
    4ec0:	e8 00 00 00 00       	call   4ec5 <aet_describe_pc+0x3145>
    4ec5:	e9 2e e2 ff ff       	jmp    30f8 <aet_describe_pc+0x1378>
    4eca:	66 0f 1f 44 00 00    	nopw   0x0(%rax,%rax,1)
    4ed0:	66 83 bc 24 f4 55 00 	cmpw   $0x66,0x55f4(%rsp)
    4ed7:	00 66 
    4ed9:	0f 85 f3 fa ff ff    	jne    49d2 <aet_describe_pc+0x2c52>
    4edf:	e9 3b d0 ff ff       	jmp    1f1f <aet_describe_pc+0x19f>
    4ee4:	0f 1f 40 00          	nopl   0x0(%rax)
    4ee8:	80 bc 24 88 07 00 00 	cmpb   $0x0,0x788(%rsp)
    4eef:	00 
    4ef0:	0f 85 fa e8 ff ff    	jne    37f0 <aet_describe_pc+0x1a70>
    4ef6:	48 8d 84 24 34 01 00 	lea    0x134(%rsp),%rax
    4efd:	00 
    4efe:	4c 8d 94 24 f0 19 00 	lea    0x19f0(%rsp),%r10
    4f05:	00 
    4f06:	4c 8b 8c 24 80 00 00 	mov    0x80(%rsp),%r9
    4f0d:	00 
    4f0e:	48 89 c2             	mov    %rax,%rdx
    4f11:	4c 89 d1             	mov    %r10,%rcx
    4f14:	4c 8d 05 40 17 00 00 	lea    0x1740(%rip),%r8        # 665b <aet_describe_pc+0x48db>
    4f1b:	48 89 84 24 f0 00 00 	mov    %rax,0xf0(%rsp)
    4f22:	00 
    4f23:	4c 89 94 24 d8 00 00 	mov    %r10,0xd8(%rsp)
    4f2a:	00 
    4f2b:	e8 80 b3 ff ff       	call   2b0 <feat_push>
    4f30:	0f b6 84 24 a8 07 00 	movzbl 0x7a8(%rsp),%eax
    4f37:	00 
    4f38:	4c 8b 94 24 d8 00 00 	mov    0xd8(%rsp),%r10
    4f3f:	00 
    4f40:	84 c0                	test   %al,%al
    4f42:	0f 84 50 0e 00 00    	je     5d98 <aet_describe_pc+0x4018>
    4f48:	4c 8b 74 24 78       	mov    0x78(%rsp),%r14
    4f4d:	4c 8b 25 00 00 00 00 	mov    0x0(%rip),%r12        # 4f54 <aet_describe_pc+0x31d4>
    4f54:	48 89 9c 24 48 92 00 	mov    %rbx,0x9248(%rsp)
    4f5b:	00 
    4f5c:	41 bf 01 00 00 00    	mov    $0x1,%r15d
    4f62:	4c 8d ac 24 a8 07 00 	lea    0x7a8(%rsp),%r13
    4f69:	00 
    4f6a:	4c 89 f3             	mov    %r14,%rbx
    4f6d:	4d 89 d6             	mov    %r10,%r14
    4f70:	0f b6 c8             	movzbl %al,%ecx
    4f73:	41 ff d4             	call   *%r12
    4f76:	88 03                	mov    %al,(%rbx)
    4f78:	43 0f b6 44 3d 00    	movzbl 0x0(%r13,%r15,1),%eax
    4f7e:	84 c0                	test   %al,%al
    4f80:	0f 84 0c 09 00 00    	je     5892 <aet_describe_pc+0x3b12>
    4f86:	49 83 c7 01          	add    $0x1,%r15
    4f8a:	48 83 c3 01          	add    $0x1,%rbx
    4f8e:	49 83 ff 60          	cmp    $0x60,%r15
    4f92:	75 dc                	jne    4f70 <aet_describe_pc+0x31f0>
    4f94:	48 8b 9c 24 48 92 00 	mov    0x9248(%rsp),%rbx
    4f9b:	00 
    4f9c:	4d 89 f2             	mov    %r14,%r10
    4f9f:	4c 8d bc 24 4f 56 00 	lea    0x564f(%rsp),%r15
    4fa6:	00 
    4fa7:	41 c6 07 00          	movb   $0x0,(%r15)
    4fab:	48 8b 4c 24 78       	mov    0x78(%rsp),%rcx
    4fb0:	48 8d 15 68 17 00 00 	lea    0x1768(%rip),%rdx        # 671f <aet_describe_pc+0x499f>
    4fb7:	4c 89 94 24 d8 00 00 	mov    %r10,0xd8(%rsp)
    4fbe:	00 
    4fbf:	e8 00 00 00 00       	call   4fc4 <aet_describe_pc+0x3244>
    4fc4:	48 85 c0             	test   %rax,%rax
    4fc7:	0f 84 f1 f2 ff ff    	je     42be <aet_describe_pc+0x253e>
    4fcd:	48 8d 84 24 a8 07 00 	lea    0x7a8(%rsp),%rax
    4fd4:	00 
    4fd5:	48 8b 8c 24 d8 00 00 	mov    0xd8(%rsp),%rcx
    4fdc:	00 
    4fdd:	4c 8b 8c 24 80 00 00 	mov    0x80(%rsp),%r9
    4fe4:	00 
    4fe5:	4c 8d 05 70 17 00 00 	lea    0x1770(%rip),%r8        # 675c <aet_describe_pc+0x49dc>
    4fec:	48 89 44 24 20       	mov    %rax,0x20(%rsp)
    4ff1:	48 8b 94 24 f0 00 00 	mov    0xf0(%rsp),%rdx
    4ff8:	00 
    4ff9:	e8 b2 b2 ff ff       	call   2b0 <feat_push>
    4ffe:	e9 bb f2 ff ff       	jmp    42be <aet_describe_pc+0x253e>
    5003:	0f 1f 44 00 00       	nopl   0x0(%rax,%rax,1)
    5008:	80 bc 24 44 09 00 00 	cmpb   $0x0,0x944(%rsp)
    500f:	00 
    5010:	0f 85 ac d5 ff ff    	jne    25c2 <aet_describe_pc+0x842>
    5016:	81 bc 24 e8 07 00 00 	cmpl   $0x656873,0x7e8(%rsp)
    501d:	73 68 65 00 
    5021:	74 36                	je     5059 <aet_describe_pc+0x32d9>
    5023:	48 8d 84 24 00 06 00 	lea    0x600(%rsp),%rax
    502a:	00 
    502b:	4c 8d 8c 24 f0 55 00 	lea    0x55f0(%rsp),%r9
    5032:	00 
    5033:	ba 40 01 00 00       	mov    $0x140,%edx
    5038:	4c 8d 05 e0 0e 00 00 	lea    0xee0(%rip),%r8        # 5f1f <aet_describe_pc+0x419f>
    503f:	48 89 c1             	mov    %rax,%rcx
    5042:	4c 89 4c 24 78       	mov    %r9,0x78(%rsp)
    5047:	48 89 84 24 00 01 00 	mov    %rax,0x100(%rsp)
    504e:	00 
    504f:	e8 00 00 00 00       	call   5054 <aet_describe_pc+0x32d4>
    5054:	e9 9a d5 ff ff       	jmp    25f3 <aet_describe_pc+0x873>
    5059:	48 8d 84 24 00 06 00 	lea    0x600(%rsp),%rax
    5060:	00 
    5061:	4c 8d 8c 24 f0 55 00 	lea    0x55f0(%rsp),%r9
    5068:	00 
    5069:	ba 40 01 00 00       	mov    $0x140,%edx
    506e:	4c 8d 05 b0 0e 00 00 	lea    0xeb0(%rip),%r8        # 5f25 <aet_describe_pc+0x41a5>
    5075:	48 89 c1             	mov    %rax,%rcx
    5078:	4c 89 4c 24 78       	mov    %r9,0x78(%rsp)
    507d:	48 89 84 24 00 01 00 	mov    %rax,0x100(%rsp)
    5084:	00 
    5085:	e8 00 00 00 00       	call   508a <aet_describe_pc+0x330a>
    508a:	e9 64 d5 ff ff       	jmp    25f3 <aet_describe_pc+0x873>
    508f:	90                   	nop
    5090:	81 bc 24 33 09 00 00 	cmpl   $0x776f72,0x933(%rsp)
    5097:	72 6f 77 00 
    509b:	0f 85 6c d3 ff ff    	jne    240d <aet_describe_pc+0x68d>
    50a1:	48 b8 6c 65 61 6e 2c 	movabs $0x616e202c6e61656c,%rax
    50a8:	20 6e 61 
    50ab:	48 ba 72 72 6f 77 20 	movabs $0x70696820776f7272,%rdx
    50b2:	68 69 70 
    50b5:	48 c7 84 24 00 56 00 	movq   $0x73,0x5600(%rsp)
    50bc:	00 73 00 00 00 
    50c1:	48 89 84 24 f0 55 00 	mov    %rax,0x55f0(%rsp)
    50c8:	00 
    50c9:	48 89 94 24 f8 55 00 	mov    %rdx,0x55f8(%rsp)
    50d0:	00 
    50d1:	48 c7 84 24 08 56 00 	movq   $0x0,0x5608(%rsp)
    50d8:	00 00 00 00 00 
    50dd:	e9 6e d3 ff ff       	jmp    2450 <aet_describe_pc+0x6d0>
    50e2:	66 0f 1f 44 00 00    	nopw   0x0(%rax,%rax,1)
    50e8:	48 8d 15 e2 0d 00 00 	lea    0xde2(%rip),%rdx        # 5ed1 <aet_describe_pc+0x4151>
    50ef:	80 bc 24 ea 07 00 00 	cmpb   $0x0,0x7ea(%rsp)
    50f6:	00 
    50f7:	0f 84 23 e0 ff ff    	je     3120 <aet_describe_pc+0x13a0>
    50fd:	e9 17 e0 ff ff       	jmp    3119 <aet_describe_pc+0x1399>
    5102:	66 0f 1f 44 00 00    	nopw   0x0(%rax,%rax,1)
    5108:	48 b8 61 20 62 6f 64 	movabs $0x732079646f622061,%rax
    510f:	79 20 73 
    5112:	48 ba 74 72 75 63 74 	movabs $0x6572757463757274,%rdx
    5119:	75 72 65 
    511c:	48 c7 84 24 38 1a 00 	movq   $0x0,0x1a38(%rsp)
    5123:	00 00 00 00 00 
    5128:	48 89 84 24 f0 19 00 	mov    %rax,0x19f0(%rsp)
    512f:	00 
    5130:	48 b8 20 73 75 67 67 	movabs $0x7473656767757320,%rax
    5137:	65 73 74 
    513a:	48 89 84 24 00 1a 00 	mov    %rax,0x1a00(%rsp)
    5141:	00 
    5142:	48 b8 6e 73 65 20 72 	movabs $0x697365722065736e,%rax
    5149:	65 73 69 
    514c:	48 89 94 24 f8 19 00 	mov    %rdx,0x19f8(%rsp)
    5153:	00 
    5154:	48 ba 69 6e 67 20 69 	movabs $0x656d6d6920676e69,%rdx
    515b:	6d 6d 65 
    515e:	48 89 84 24 10 1a 00 	mov    %rax,0x1a10(%rsp)
    5165:	00 
    5166:	48 c7 84 24 20 1a 00 	movq   $0x0,0x1a20(%rsp)
    516d:	00 00 00 00 00 
    5172:	48 c7 84 24 28 1a 00 	movq   $0x0,0x1a28(%rsp)
    5179:	00 00 00 00 00 
    517e:	48 c7 84 24 30 1a 00 	movq   $0x0,0x1a30(%rsp)
    5185:	00 00 00 00 00 
    518a:	48 c7 84 24 3f 1a 00 	movq   $0x0,0x1a3f(%rsp)
    5191:	00 00 00 00 00 
    5196:	48 c7 84 24 47 1a 00 	movq   $0x0,0x1a47(%rsp)
    519d:	00 00 00 00 00 
    51a2:	48 89 94 24 08 1a 00 	mov    %rdx,0x1a08(%rsp)
    51a9:	00 
    51aa:	48 ba 6c 69 65 6e 63 	movabs $0x65636e65696c,%rdx
    51b1:	65 00 00 
    51b4:	48 89 94 24 18 1a 00 	mov    %rdx,0x1a18(%rsp)
    51bb:	00 
    51bc:	ba 61 00 00 00       	mov    $0x61,%edx
    51c1:	8b 84 24 0c 09 00 00 	mov    0x90c(%rsp),%eax
    51c8:	83 bc 24 f0 08 00 00 	cmpl   $0x11,0x8f0(%rsp)
    51cf:	11 
    51d0:	0f 8e d6 db ff ff    	jle    2dac <aet_describe_pc+0x102c>
    51d6:	84 d2                	test   %dl,%dl
    51d8:	0f 85 0e fa ff ff    	jne    4bec <aet_describe_pc+0x2e6c>
    51de:	e9 10 db ff ff       	jmp    2cf3 <aet_describe_pc+0xf73>
    51e3:	0f 1f 44 00 00       	nopl   0x0(%rax,%rax,1)
    51e8:	48 b8 54 68 65 20 73 	movabs $0x6e696b7320656854,%rax
    51ef:	6b 69 6e 
    51f2:	48 ba 20 69 73 20 73 	movabs $0x74666f7320736920,%rdx
    51f9:	6f 66 74 
    51fc:	48 89 84 24 00 05 00 	mov    %rax,0x500(%rsp)
    5203:	00 
    5204:	48 b8 20 61 6e 64 20 	movabs $0x696c7020646e6120,%rax
    520b:	70 6c 69 
    520e:	48 89 94 24 08 05 00 	mov    %rdx,0x508(%rsp)
    5215:	00 
    5216:	48 ba 61 62 6c 65 2c 	movabs $0x6163202c656c6261,%rdx
    521d:	20 63 61 
    5220:	48 89 84 24 10 05 00 	mov    %rax,0x510(%rsp)
    5227:	00 
    5228:	48 b8 72 72 79 69 6e 	movabs $0x6120676e69797272,%rax
    522f:	67 20 61 
    5232:	48 89 94 24 18 05 00 	mov    %rdx,0x518(%rsp)
    5239:	00 
    523a:	48 ba 20 70 6c 65 61 	movabs $0x72757361656c7020,%rdx
    5241:	73 75 72 
    5244:	48 89 84 24 20 05 00 	mov    %rax,0x520(%rsp)
    524b:	00 
    524c:	48 b8 61 62 6c 65 20 	movabs $0x69657720656c6261,%rax
    5253:	77 65 69 
    5256:	48 89 94 24 28 05 00 	mov    %rdx,0x528(%rsp)
    525d:	00 
    525e:	ba 67 68 74 2e       	mov    $0x2e746867,%edx
    5263:	e9 3b ed ff ff       	jmp    3fa3 <aet_describe_pc+0x2223>
    5268:	0f 1f 84 00 00 00 00 	nopl   0x0(%rax,%rax,1)
    526f:	00 
    5270:	4c 8d 0d 00 2d 00 00 	lea    0x2d00(%rip),%r9        # 7f77 <lip_opt.1+0x4f97>
    5277:	49 89 f8             	mov    %rdi,%r8
    527a:	48 89 ea             	mov    %rbp,%rdx
    527d:	48 89 d9             	mov    %rbx,%rcx
    5280:	e8 7b b0 ff ff       	call   300 <d_apf>
    5285:	e9 e7 f5 ff ff       	jmp    4871 <aet_describe_pc+0x2af1>
    528a:	66 0f 1f 44 00 00    	nopw   0x0(%rax,%rax,1)
    5290:	48 89 74 24 30       	mov    %rsi,0x30(%rsp)
    5295:	49 89 f8             	mov    %rdi,%r8
    5298:	48 89 ea             	mov    %rbp,%rdx
    529b:	48 89 d9             	mov    %rbx,%rcx
    529e:	48 8b 84 24 f8 00 00 	mov    0xf8(%rsp),%rax
    52a5:	00 
    52a6:	4c 89 64 24 28       	mov    %r12,0x28(%rsp)
    52ab:	4c 8d 0d 30 29 00 00 	lea    0x2930(%rip),%r9        # 7be2 <lip_opt.1+0x4c02>
    52b2:	48 89 44 24 38       	mov    %rax,0x38(%rsp)
    52b7:	48 8b 84 24 80 00 00 	mov    0x80(%rsp),%rax
    52be:	00 
    52bf:	48 89 44 24 20       	mov    %rax,0x20(%rsp)
    52c4:	e8 37 b0 ff ff       	call   300 <d_apf>
    52c9:	e9 e2 f4 ff ff       	jmp    47b0 <aet_describe_pc+0x2a30>
    52ce:	66 90                	xchg   %ax,%ax
    52d0:	66 83 bc 24 58 09 00 	cmpw   $0x64,0x958(%rsp)
    52d7:	00 64 
    52d9:	0f 85 dd dd ff ff    	jne    30bc <aet_describe_pc+0x133c>
    52df:	48 b8 61 20 77 65 61 	movabs $0x6568746165772061,%rax
    52e6:	74 68 65 
    52e9:	4c 8d a4 24 a0 03 00 	lea    0x3a0(%rsp),%r12
    52f0:	00 
    52f1:	48 ba 72 65 64 20 61 	movabs $0x20646e6120646572,%rdx
    52f8:	6e 64 20 
    52fb:	48 89 84 24 a0 03 00 	mov    %rax,0x3a0(%rsp)
    5302:	00 
    5303:	48 b8 72 75 67 67 65 	movabs $0x6320646567677572,%rax
    530a:	64 20 63 
    530d:	48 89 94 24 a8 03 00 	mov    %rdx,0x3a8(%rsp)
    5314:	00 
    5315:	48 ba 61 73 74 2c 20 	movabs $0x656874202c747361,%rdx
    531c:	74 68 65 
    531f:	48 89 84 24 b0 03 00 	mov    %rax,0x3b0(%rsp)
    5326:	00 
    5327:	48 b8 20 73 6b 69 6e 	movabs $0x2061206e696b7320,%rax
    532e:	20 61 20 
    5331:	48 89 94 24 b8 03 00 	mov    %rdx,0x3b8(%rsp)
    5338:	00 
    5339:	48 ba 74 65 73 74 61 	movabs $0x6e656d6174736574,%rdx
    5340:	6d 65 6e 
    5343:	48 89 84 24 c0 03 00 	mov    %rax,0x3c0(%rsp)
    534a:	00 
    534b:	48 b8 74 20 74 6f 20 	movabs $0x6c2061206f742074,%rax
    5352:	61 20 6c 
    5355:	48 89 94 24 c8 03 00 	mov    %rdx,0x3c8(%rsp)
    535c:	00 
    535d:	48 ba 6f 6e 67 20 61 	movabs $0x20646e6120676e6f,%rdx
    5364:	6e 64 20 
    5367:	48 89 94 24 d8 03 00 	mov    %rdx,0x3d8(%rsp)
    536e:	00 
    536f:	48 ba 6c 74 20 6c 69 	movabs $0x6566696c20746c,%rdx
    5376:	66 65 00 
    5379:	48 89 84 24 d0 03 00 	mov    %rax,0x3d0(%rsp)
    5380:	00 
    5381:	48 b8 20 64 69 66 66 	movabs $0x7563696666696420,%rax
    5388:	69 63 75 
    538b:	48 89 84 24 df 03 00 	mov    %rax,0x3df(%rsp)
    5392:	00 
    5393:	48 89 94 24 e7 03 00 	mov    %rdx,0x3e7(%rsp)
    539a:	00 
    539b:	e9 58 dd ff ff       	jmp    30f8 <aet_describe_pc+0x1378>
    53a0:	66 83 bc 24 84 07 00 	cmpw   $0x6e,0x784(%rsp)
    53a7:	00 6e 
    53a9:	0f 85 52 e4 ff ff    	jne    3801 <aet_describe_pc+0x1a81>
    53af:	4c 8d 94 24 f0 19 00 	lea    0x19f0(%rsp),%r10
    53b6:	00 
    53b7:	4c 8b 8c 24 80 00 00 	mov    0x80(%rsp),%r9
    53be:	00 
    53bf:	4c 8d 05 98 17 00 00 	lea    0x1798(%rip),%r8        # 6b5e <aet_describe_pc+0x4dde>
    53c6:	48 8d 94 24 34 01 00 	lea    0x134(%rsp),%rdx
    53cd:	00 
    53ce:	4c 89 d1             	mov    %r10,%rcx
    53d1:	4c 89 94 24 d8 00 00 	mov    %r10,0xd8(%rsp)
    53d8:	00 
    53d9:	e8 d2 ae ff ff       	call   2b0 <feat_push>
    53de:	83 bc 24 0c 09 00 00 	cmpl   $0x1e,0x90c(%rsp)
    53e5:	1e 
    53e6:	0f 8e d2 ee ff ff    	jle    42be <aet_describe_pc+0x253e>
    53ec:	4c 8b 8c 24 f8 00 00 	mov    0xf8(%rsp),%r9
    53f3:	00 
    53f4:	48 8b 8c 24 d8 00 00 	mov    0xd8(%rsp),%rcx
    53fb:	00 
    53fc:	4c 8d 05 c0 17 00 00 	lea    0x17c0(%rip),%r8        # 6bc3 <aet_describe_pc+0x4e43>
    5403:	48 8d 94 24 34 01 00 	lea    0x134(%rsp),%rdx
    540a:	00 
    540b:	e8 a0 ae ff ff       	call   2b0 <feat_push>
    5410:	e9 a9 ee ff ff       	jmp    42be <aet_describe_pc+0x253e>
    5415:	0f 1f 00             	nopl   (%rax)
    5418:	81 bc 24 28 08 00 00 	cmpl   $0x292238,0x828(%rsp)
    541f:	38 22 29 00 
    5423:	0f 85 e2 d6 ff ff    	jne    2b0b <aet_describe_pc+0xd8b>
    5429:	e9 37 d7 ff ff       	jmp    2b65 <aet_describe_pc+0xde5>
