
aeternitas64.exe:     file format pei-x86-64


Disassembly of section .text:

0000000140001000 <__mingw_invalidParameterHandler>:
   140001000:	55                   	push   %rbp
   140001001:	48 89 e5             	mov    %rsp,%rbp
   140001004:	48 89 4d 10          	mov    %rcx,0x10(%rbp)
   140001008:	48 89 55 18          	mov    %rdx,0x18(%rbp)
   14000100c:	4c 89 45 20          	mov    %r8,0x20(%rbp)
   140001010:	44 89 4d 28          	mov    %r9d,0x28(%rbp)
   140001014:	90                   	nop
   140001015:	5d                   	pop    %rbp
   140001016:	c3                   	ret

0000000140001017 <safe_flush>:
   140001017:	55                   	push   %rbp
   140001018:	48 89 e5             	mov    %rsp,%rbp
   14000101b:	48 83 ec 20          	sub    $0x20,%rsp
   14000101f:	b9 00 00 00 00       	mov    $0x0,%ecx
   140001024:	e8 e7 27 04 00       	call   140043810 <fflush>
   140001029:	90                   	nop
   14000102a:	48 83 c4 20          	add    $0x20,%rsp
   14000102e:	5d                   	pop    %rbp
   14000102f:	c3                   	ret

0000000140001030 <WinMainCRTStartup>:
   140001030:	55                   	push   %rbp
   140001031:	48 89 e5             	mov    %rsp,%rbp
   140001034:	48 83 ec 30          	sub    $0x30,%rsp
   140001038:	c7 45 fc ff 00 00 00 	movl   $0xff,-0x4(%rbp)

000000014000103f <.l_startw>:
   14000103f:	48 8b 05 4a bf 07 00 	mov    0x7bf4a(%rip),%rax        # 14007cf90 <.refptr.__mingw_app_type>
   140001046:	c7 00 01 00 00 00    	movl   $0x1,(%rax)
   14000104c:	e8 3d 00 00 00       	call   14000108e <__tmainCRTStartup>
   140001051:	89 45 fc             	mov    %eax,-0x4(%rbp)
   140001054:	90                   	nop

0000000140001055 <.l_endw>:
   140001055:	90                   	nop
   140001056:	8b 45 fc             	mov    -0x4(%rbp),%eax
   140001059:	48 83 c4 30          	add    $0x30,%rsp
   14000105d:	5d                   	pop    %rbp
   14000105e:	c3                   	ret

000000014000105f <mainCRTStartup>:
   14000105f:	55                   	push   %rbp
   140001060:	48 89 e5             	mov    %rsp,%rbp
   140001063:	48 83 ec 30          	sub    $0x30,%rsp
   140001067:	c7 45 fc ff 00 00 00 	movl   $0xff,-0x4(%rbp)

000000014000106e <.l_start>:
   14000106e:	48 8b 05 1b bf 07 00 	mov    0x7bf1b(%rip),%rax        # 14007cf90 <.refptr.__mingw_app_type>
   140001075:	c7 00 00 00 00 00    	movl   $0x0,(%rax)
   14000107b:	e8 0e 00 00 00       	call   14000108e <__tmainCRTStartup>
   140001080:	89 45 fc             	mov    %eax,-0x4(%rbp)
   140001083:	90                   	nop

0000000140001084 <.l_end>:
   140001084:	90                   	nop
   140001085:	8b 45 fc             	mov    -0x4(%rbp),%eax
   140001088:	48 83 c4 30          	add    $0x30,%rsp
   14000108c:	5d                   	pop    %rbp
   14000108d:	c3                   	ret

000000014000108e <__tmainCRTStartup>:
   14000108e:	55                   	push   %rbp
   14000108f:	48 89 e5             	mov    %rsp,%rbp
   140001092:	48 81 ec 90 00 00 00 	sub    $0x90,%rsp
   140001099:	48 c7 45 f0 00 00 00 	movq   $0x0,-0x10(%rbp)
   1400010a0:	00 
   1400010a1:	c7 45 e0 30 00 00 00 	movl   $0x30,-0x20(%rbp)
   1400010a8:	8b 45 e0             	mov    -0x20(%rbp),%eax
   1400010ab:	65 67 48 8b 00       	mov    %gs:(%eax),%rax
   1400010b0:	48 89 45 d8          	mov    %rax,-0x28(%rbp)
   1400010b4:	48 8b 45 d8          	mov    -0x28(%rbp),%rax
   1400010b8:	48 8b 40 08          	mov    0x8(%rax),%rax
   1400010bc:	48 89 45 e8          	mov    %rax,-0x18(%rbp)
   1400010c0:	c7 45 fc 00 00 00 00 	movl   $0x0,-0x4(%rbp)
   1400010c7:	c7 45 e4 00 00 00 00 	movl   $0x0,-0x1c(%rbp)
   1400010ce:	eb 21                	jmp    1400010f1 <__tmainCRTStartup+0x63>
   1400010d0:	48 8b 45 f0          	mov    -0x10(%rbp),%rax
   1400010d4:	48 3b 45 e8          	cmp    -0x18(%rbp),%rax
   1400010d8:	75 09                	jne    1400010e3 <__tmainCRTStartup+0x55>
   1400010da:	c7 45 fc 01 00 00 00 	movl   $0x1,-0x4(%rbp)
   1400010e1:	eb 45                	jmp    140001128 <__tmainCRTStartup+0x9a>
   1400010e3:	b9 e8 03 00 00       	mov    $0x3e8,%ecx
   1400010e8:	48 8b 05 91 74 3a 00 	mov    0x3a7491(%rip),%rax        # 1403a8580 <__imp_Sleep>
   1400010ef:	ff d0                	call   *%rax
   1400010f1:	48 8b 05 e8 be 07 00 	mov    0x7bee8(%rip),%rax        # 14007cfe0 <.refptr.__native_startup_lock>
   1400010f8:	48 89 45 d0          	mov    %rax,-0x30(%rbp)
   1400010fc:	48 8b 45 e8          	mov    -0x18(%rbp),%rax
   140001100:	48 89 45 c8          	mov    %rax,-0x38(%rbp)
   140001104:	48 c7 45 c0 00 00 00 	movq   $0x0,-0x40(%rbp)
   14000110b:	00 
   14000110c:	48 8b 4d c8          	mov    -0x38(%rbp),%rcx
   140001110:	48 8b 45 c0          	mov    -0x40(%rbp),%rax
   140001114:	48 8b 55 d0          	mov    -0x30(%rbp),%rdx
   140001118:	f0 48 0f b1 0a       	lock cmpxchg %rcx,(%rdx)
   14000111d:	48 89 45 f0          	mov    %rax,-0x10(%rbp)
   140001121:	48 83 7d f0 00       	cmpq   $0x0,-0x10(%rbp)
   140001126:	75 a8                	jne    1400010d0 <__tmainCRTStartup+0x42>
   140001128:	48 8b 05 c1 be 07 00 	mov    0x7bec1(%rip),%rax        # 14007cff0 <.refptr.__native_startup_state>
   14000112f:	8b 00                	mov    (%rax),%eax
   140001131:	83 f8 01             	cmp    $0x1,%eax
   140001134:	75 0a                	jne    140001140 <__tmainCRTStartup+0xb2>
   140001136:	b9 1f 00 00 00       	mov    $0x1f,%ecx
   14000113b:	e8 20 25 04 00       	call   140043660 <_amsg_exit>
   140001140:	48 8b 05 a9 be 07 00 	mov    0x7bea9(%rip),%rax        # 14007cff0 <.refptr.__native_startup_state>
   140001147:	8b 00                	mov    (%rax),%eax
   140001149:	85 c0                	test   %eax,%eax
   14000114b:	0f 85 e3 01 00 00    	jne    140001334 <__tmainCRTStartup+0x2a6>
   140001151:	48 8b 05 98 be 07 00 	mov    0x7be98(%rip),%rax        # 14007cff0 <.refptr.__native_startup_state>
   140001158:	c7 00 01 00 00 00    	movl   $0x1,(%rax)
   14000115e:	b9 02 00 00 00       	mov    $0x2,%ecx
   140001163:	e8 68 26 04 00       	call   1400437d0 <__acrt_iob_func>
   140001168:	41 b9 00 00 00 00    	mov    $0x0,%r9d
   14000116e:	41 b8 04 00 00 00    	mov    $0x4,%r8d
   140001174:	ba 00 00 00 00       	mov    $0x0,%edx
   140001179:	48 89 c1             	mov    %rax,%rcx
   14000117c:	e8 ef 26 04 00       	call   140043870 <setvbuf>
   140001181:	48 8d 05 8f fe ff ff 	lea    -0x171(%rip),%rax        # 140001017 <safe_flush>
   140001188:	48 89 c1             	mov    %rax,%rcx
   14000118b:	e8 9f 04 00 00       	call   14000162f <atexit>
   140001190:	85 c0                	test   %eax,%eax
   140001192:	74 05                	je     140001199 <__tmainCRTStartup+0x10b>
   140001194:	e8 47 27 04 00       	call   1400438e0 <abort>
   140001199:	e8 02 13 04 00       	call   1400424a0 <_pei386_runtime_relocator>
   14000119e:	48 8b 05 cb be 07 00 	mov    0x7becb(%rip),%rax        # 14007d070 <.refptr._gnu_exception_handler>
   1400011a5:	48 89 c1             	mov    %rax,%rcx
   1400011a8:	48 8b 05 c9 73 3a 00 	mov    0x3a73c9(%rip),%rax        # 1403a8578 <__imp_SetUnhandledExceptionFilter>
   1400011af:	ff d0                	call   *%rax
   1400011b1:	48 8b 15 18 be 07 00 	mov    0x7be18(%rip),%rdx        # 14007cfd0 <.refptr.__mingw_oldexcpt_handler>
   1400011b8:	48 89 02             	mov    %rax,(%rdx)
   1400011bb:	48 8d 05 3e fe ff ff 	lea    -0x1c2(%rip),%rax        # 140001000 <__mingw_invalidParameterHandler>
   1400011c2:	48 89 c1             	mov    %rax,%rcx
   1400011c5:	e8 0e 27 04 00       	call   1400438d8 <_set_invalid_parameter_handler>
   1400011ca:	e8 e1 1b 04 00       	call   140042db0 <_fpreset>
   1400011cf:	e8 18 02 00 00       	call   1400013ec <check_managed_app>
   1400011d4:	89 05 3e 1e 08 00    	mov    %eax,0x81e3e(%rip)        # 140083018 <managedapp>
   1400011da:	48 8b 05 af bd 07 00 	mov    0x7bdaf(%rip),%rax        # 14007cf90 <.refptr.__mingw_app_type>
   1400011e1:	8b 00                	mov    (%rax),%eax
   1400011e3:	85 c0                	test   %eax,%eax
   1400011e5:	74 0c                	je     1400011f3 <__tmainCRTStartup+0x165>
   1400011e7:	b9 02 00 00 00       	mov    $0x2,%ecx
   1400011ec:	e8 cf 26 04 00       	call   1400438c0 <__set_app_type>
   1400011f1:	eb 0a                	jmp    1400011fd <__tmainCRTStartup+0x16f>
   1400011f3:	b9 01 00 00 00       	mov    $0x1,%ecx
   1400011f8:	e8 c3 26 04 00       	call   1400438c0 <__set_app_type>
   1400011fd:	e8 de 25 04 00       	call   1400437e0 <__p__fmode>
   140001202:	48 8b 15 57 be 07 00 	mov    0x7be57(%rip),%rdx        # 14007d060 <.refptr._fmode>
   140001209:	8b 12                	mov    (%rdx),%edx
   14000120b:	89 10                	mov    %edx,(%rax)
   14000120d:	e8 c6 25 04 00       	call   1400437d8 <__p__commode>
   140001212:	48 8b 15 27 be 07 00 	mov    0x7be27(%rip),%rdx        # 14007d040 <.refptr._commode>
   140001219:	8b 12                	mov    (%rdx),%edx
   14000121b:	89 10                	mov    %edx,(%rax)
   14000121d:	e8 5e 08 04 00       	call   140041a80 <_setargv>
   140001222:	89 45 e4             	mov    %eax,-0x1c(%rbp)
   140001225:	83 7d e4 00          	cmpl   $0x0,-0x1c(%rbp)
   140001229:	79 0a                	jns    140001235 <__tmainCRTStartup+0x1a7>
   14000122b:	b9 08 00 00 00       	mov    $0x8,%ecx
   140001230:	e8 2b 24 04 00       	call   140043660 <_amsg_exit>
   140001235:	48 8b 05 d4 bc 07 00 	mov    0x7bcd4(%rip),%rax        # 14007cf10 <.refptr._MINGW_INSTALL_DEBUG_MATHERR>
   14000123c:	8b 00                	mov    (%rax),%eax
   14000123e:	83 f8 01             	cmp    $0x1,%eax
   140001241:	75 0f                	jne    140001252 <__tmainCRTStartup+0x1c4>
   140001243:	48 8b 05 36 be 07 00 	mov    0x7be36(%rip),%rax        # 14007d080 <.refptr._matherr>
   14000124a:	48 89 c1             	mov    %rax,%rcx
   14000124d:	e8 68 13 04 00       	call   1400425ba <__mingw_setusermatherr>
   140001252:	48 8b 05 17 bd 07 00 	mov    0x7bd17(%rip),%rax        # 14007cf70 <.refptr.__globallocalestatus>
   140001259:	8b 00                	mov    (%rax),%eax
   14000125b:	83 f8 ff             	cmp    $0xffffffff,%eax
   14000125e:	75 0a                	jne    14000126a <__tmainCRTStartup+0x1dc>
   140001260:	b9 ff ff ff ff       	mov    $0xffffffff,%ecx
   140001265:	e8 d6 26 04 00       	call   140043940 <_configthreadlocale>
   14000126a:	48 8b 15 bf bd 07 00 	mov    0x7bdbf(%rip),%rdx        # 14007d030 <.refptr.__xi_z>
   140001271:	48 8b 05 a8 bd 07 00 	mov    0x7bda8(%rip),%rax        # 14007d020 <.refptr.__xi_a>
   140001278:	48 89 c1             	mov    %rax,%rcx
   14000127b:	e8 50 26 04 00       	call   1400438d0 <_initterm_e>
   140001280:	85 c0                	test   %eax,%eax
   140001282:	74 0a                	je     14000128e <__tmainCRTStartup+0x200>
   140001284:	b9 0a 00 00 00       	mov    $0xa,%ecx
   140001289:	e8 d2 23 04 00       	call   140043660 <_amsg_exit>
   14000128e:	48 8b 05 fb bd 07 00 	mov    0x7bdfb(%rip),%rax        # 14007d090 <.refptr._newmode>
   140001295:	8b 00                	mov    (%rax),%eax
   140001297:	89 45 ac             	mov    %eax,-0x54(%rbp)
   14000129a:	48 8b 05 af bd 07 00 	mov    0x7bdaf(%rip),%rax        # 14007d050 <.refptr._dowildcard>
   1400012a1:	44 8b 00             	mov    (%rax),%r8d
   1400012a4:	4c 8d 15 65 1d 08 00 	lea    0x81d65(%rip),%r10        # 140083010 <envp>
   1400012ab:	48 8d 15 56 1d 08 00 	lea    0x81d56(%rip),%rdx        # 140083008 <argv>
   1400012b2:	48 8d 05 4b 1d 08 00 	lea    0x81d4b(%rip),%rax        # 140083004 <argc>
   1400012b9:	48 8d 4d ac          	lea    -0x54(%rbp),%rcx
   1400012bd:	48 89 4c 24 20       	mov    %rcx,0x20(%rsp)
   1400012c2:	45 89 c1             	mov    %r8d,%r9d
   1400012c5:	4d 89 d0             	mov    %r10,%r8
   1400012c8:	48 89 c1             	mov    %rax,%rcx
   1400012cb:	e8 d0 23 04 00       	call   1400436a0 <__getmainargs>
   1400012d0:	89 45 e4             	mov    %eax,-0x1c(%rbp)
   1400012d3:	83 7d e4 00          	cmpl   $0x0,-0x1c(%rbp)
   1400012d7:	79 0a                	jns    1400012e3 <__tmainCRTStartup+0x255>
   1400012d9:	b9 08 00 00 00       	mov    $0x8,%ecx
   1400012de:	e8 7d 23 04 00       	call   140043660 <_amsg_exit>
   1400012e3:	8b 05 1b 1d 08 00    	mov    0x81d1b(%rip),%eax        # 140083004 <argc>
   1400012e9:	48 8d 15 18 1d 08 00 	lea    0x81d18(%rip),%rdx        # 140083008 <argv>
   1400012f0:	89 c1                	mov    %eax,%ecx
   1400012f2:	e8 f9 01 00 00       	call   1400014f0 <duplicate_ppstrings>
   1400012f7:	89 45 e4             	mov    %eax,-0x1c(%rbp)
   1400012fa:	83 7d e4 00          	cmpl   $0x0,-0x1c(%rbp)
   1400012fe:	74 0a                	je     14000130a <__tmainCRTStartup+0x27c>
   140001300:	b9 08 00 00 00       	mov    $0x8,%ecx
   140001305:	e8 56 23 04 00       	call   140043660 <_amsg_exit>
   14000130a:	48 8b 15 ff bc 07 00 	mov    0x7bcff(%rip),%rdx        # 14007d010 <.refptr.__xc_z>
   140001311:	48 8b 05 e8 bc 07 00 	mov    0x7bce8(%rip),%rax        # 14007d000 <.refptr.__xc_a>
   140001318:	48 89 c1             	mov    %rax,%rcx
   14000131b:	e8 a8 25 04 00       	call   1400438c8 <_initterm>
   140001320:	e8 32 07 04 00       	call   140041a57 <__main>
   140001325:	48 8b 05 c4 bc 07 00 	mov    0x7bcc4(%rip),%rax        # 14007cff0 <.refptr.__native_startup_state>
   14000132c:	c7 00 02 00 00 00    	movl   $0x2,(%rax)
   140001332:	eb 0a                	jmp    14000133e <__tmainCRTStartup+0x2b0>
   140001334:	c7 05 de 1c 08 00 01 	movl   $0x1,0x81cde(%rip)        # 14008301c <has_cctor>
   14000133b:	00 00 00 
   14000133e:	83 7d fc 00          	cmpl   $0x0,-0x4(%rbp)
   140001342:	75 1e                	jne    140001362 <__tmainCRTStartup+0x2d4>
   140001344:	48 8b 05 95 bc 07 00 	mov    0x7bc95(%rip),%rax        # 14007cfe0 <.refptr.__native_startup_lock>
   14000134b:	48 89 45 b8          	mov    %rax,-0x48(%rbp)
   14000134f:	48 c7 45 b0 00 00 00 	movq   $0x0,-0x50(%rbp)
   140001356:	00 
   140001357:	48 8b 55 b0          	mov    -0x50(%rbp),%rdx
   14000135b:	48 8b 45 b8          	mov    -0x48(%rbp),%rax
   14000135f:	48 87 10             	xchg   %rdx,(%rax)
   140001362:	48 8b 05 f7 bb 07 00 	mov    0x7bbf7(%rip),%rax        # 14007cf60 <.refptr.__dyn_tls_init_callback>
   140001369:	48 8b 00             	mov    (%rax),%rax
   14000136c:	48 85 c0             	test   %rax,%rax
   14000136f:	74 1c                	je     14000138d <__tmainCRTStartup+0x2ff>
   140001371:	48 8b 05 e8 bb 07 00 	mov    0x7bbe8(%rip),%rax        # 14007cf60 <.refptr.__dyn_tls_init_callback>
   140001378:	48 8b 00             	mov    (%rax),%rax
   14000137b:	41 b8 00 00 00 00    	mov    $0x0,%r8d
   140001381:	ba 02 00 00 00       	mov    $0x2,%edx
   140001386:	b9 00 00 00 00       	mov    $0x0,%ecx
   14000138b:	ff d0                	call   *%rax
   14000138d:	e8 be 22 04 00       	call   140043650 <__p___initenv>
   140001392:	48 8b 15 77 1c 08 00 	mov    0x81c77(%rip),%rdx        # 140083010 <envp>
   140001399:	48 89 10             	mov    %rdx,(%rax)
   14000139c:	48 8b 0d 6d 1c 08 00 	mov    0x81c6d(%rip),%rcx        # 140083010 <envp>
   1400013a3:	48 8b 15 5e 1c 08 00 	mov    0x81c5e(%rip),%rdx        # 140083008 <argv>
   1400013aa:	8b 05 54 1c 08 00    	mov    0x81c54(%rip),%eax        # 140083004 <argc>
   1400013b0:	49 89 c8             	mov    %rcx,%r8
   1400013b3:	89 c1                	mov    %eax,%ecx
   1400013b5:	e8 d6 26 04 00       	call   140043a90 <main>
   1400013ba:	89 45 e4             	mov    %eax,-0x1c(%rbp)
   1400013bd:	8b 05 55 1c 08 00    	mov    0x81c55(%rip),%eax        # 140083018 <managedapp>
   1400013c3:	85 c0                	test   %eax,%eax
   1400013c5:	75 0a                	jne    1400013d1 <__tmainCRTStartup+0x343>
   1400013c7:	8b 45 e4             	mov    -0x1c(%rbp),%eax
   1400013ca:	89 c1                	mov    %eax,%ecx
   1400013cc:	e8 17 25 04 00       	call   1400438e8 <exit>
   1400013d1:	8b 05 45 1c 08 00    	mov    0x81c45(%rip),%eax        # 14008301c <has_cctor>
   1400013d7:	85 c0                	test   %eax,%eax
   1400013d9:	75 05                	jne    1400013e0 <__tmainCRTStartup+0x352>
   1400013db:	e8 b0 24 04 00       	call   140043890 <_cexit>
   1400013e0:	8b 45 e4             	mov    -0x1c(%rbp),%eax
   1400013e3:	48 81 c4 90 00 00 00 	add    $0x90,%rsp
   1400013ea:	5d                   	pop    %rbp
   1400013eb:	c3                   	ret

00000001400013ec <check_managed_app>:
   1400013ec:	55                   	push   %rbp
   1400013ed:	48 89 e5             	mov    %rsp,%rbp
   1400013f0:	48 83 ec 20          	sub    $0x20,%rsp
   1400013f4:	48 8b 05 a5 bb 07 00 	mov    0x7bba5(%rip),%rax        # 14007cfa0 <.refptr.__mingw_initltsdrot_force>
   1400013fb:	c7 00 01 00 00 00    	movl   $0x1,(%rax)
   140001401:	48 8b 05 a8 bb 07 00 	mov    0x7bba8(%rip),%rax        # 14007cfb0 <.refptr.__mingw_initltsdyn_force>
   140001408:	c7 00 01 00 00 00    	movl   $0x1,(%rax)
   14000140e:	48 8b 05 ab bb 07 00 	mov    0x7bbab(%rip),%rax        # 14007cfc0 <.refptr.__mingw_initltssuo_force>
   140001415:	c7 00 01 00 00 00    	movl   $0x1,(%rax)
   14000141b:	48 8b 05 0e bb 07 00 	mov    0x7bb0e(%rip),%rax        # 14007cf30 <.refptr.__ImageBase>
   140001422:	48 89 45 f8          	mov    %rax,-0x8(%rbp)
   140001426:	48 8b 45 f8          	mov    -0x8(%rbp),%rax
   14000142a:	0f b7 00             	movzwl (%rax),%eax
   14000142d:	66 3d 4d 5a          	cmp    $0x5a4d,%ax
   140001431:	74 0a                	je     14000143d <check_managed_app+0x51>
   140001433:	b8 00 00 00 00       	mov    $0x0,%eax
   140001438:	e9 ad 00 00 00       	jmp    1400014ea <check_managed_app+0xfe>
   14000143d:	48 8b 45 f8          	mov    -0x8(%rbp),%rax
   140001441:	8b 40 3c             	mov    0x3c(%rax),%eax
   140001444:	48 63 d0             	movslq %eax,%rdx
   140001447:	48 8b 45 f8          	mov    -0x8(%rbp),%rax
   14000144b:	48 01 d0             	add    %rdx,%rax
   14000144e:	48 89 45 f0          	mov    %rax,-0x10(%rbp)
   140001452:	48 8b 45 f0          	mov    -0x10(%rbp),%rax
   140001456:	8b 00                	mov    (%rax),%eax
   140001458:	3d 50 45 00 00       	cmp    $0x4550,%eax
   14000145d:	74 0a                	je     140001469 <check_managed_app+0x7d>
   14000145f:	b8 00 00 00 00       	mov    $0x0,%eax
   140001464:	e9 81 00 00 00       	jmp    1400014ea <check_managed_app+0xfe>
   140001469:	48 8b 45 f0          	mov    -0x10(%rbp),%rax
   14000146d:	48 83 c0 18          	add    $0x18,%rax
   140001471:	48 89 45 e8          	mov    %rax,-0x18(%rbp)
   140001475:	48 8b 45 e8          	mov    -0x18(%rbp),%rax
   140001479:	0f b7 00             	movzwl (%rax),%eax
   14000147c:	0f b7 c0             	movzwl %ax,%eax
   14000147f:	3d 0b 01 00 00       	cmp    $0x10b,%eax
   140001484:	74 09                	je     14000148f <check_managed_app+0xa3>
   140001486:	3d 0b 02 00 00       	cmp    $0x20b,%eax
   14000148b:	74 29                	je     1400014b6 <check_managed_app+0xca>
   14000148d:	eb 56                	jmp    1400014e5 <check_managed_app+0xf9>
   14000148f:	48 8b 45 e8          	mov    -0x18(%rbp),%rax
   140001493:	8b 40 5c             	mov    0x5c(%rax),%eax
   140001496:	83 f8 0e             	cmp    $0xe,%eax
   140001499:	77 07                	ja     1400014a2 <check_managed_app+0xb6>
   14000149b:	b8 00 00 00 00       	mov    $0x0,%eax
   1400014a0:	eb 48                	jmp    1400014ea <check_managed_app+0xfe>
   1400014a2:	48 8b 45 e8          	mov    -0x18(%rbp),%rax
   1400014a6:	8b 80 d0 00 00 00    	mov    0xd0(%rax),%eax
   1400014ac:	85 c0                	test   %eax,%eax
   1400014ae:	0f 95 c0             	setne  %al
   1400014b1:	0f b6 c0             	movzbl %al,%eax
   1400014b4:	eb 34                	jmp    1400014ea <check_managed_app+0xfe>
   1400014b6:	48 8b 45 e8          	mov    -0x18(%rbp),%rax
   1400014ba:	48 89 45 e0          	mov    %rax,-0x20(%rbp)
   1400014be:	48 8b 45 e0          	mov    -0x20(%rbp),%rax
   1400014c2:	8b 40 6c             	mov    0x6c(%rax),%eax
   1400014c5:	83 f8 0e             	cmp    $0xe,%eax
   1400014c8:	77 07                	ja     1400014d1 <check_managed_app+0xe5>
   1400014ca:	b8 00 00 00 00       	mov    $0x0,%eax
   1400014cf:	eb 19                	jmp    1400014ea <check_managed_app+0xfe>
   1400014d1:	48 8b 45 e0          	mov    -0x20(%rbp),%rax
   1400014d5:	8b 80 e0 00 00 00    	mov    0xe0(%rax),%eax
   1400014db:	85 c0                	test   %eax,%eax
   1400014dd:	0f 95 c0             	setne  %al
   1400014e0:	0f b6 c0             	movzbl %al,%eax
   1400014e3:	eb 05                	jmp    1400014ea <check_managed_app+0xfe>
   1400014e5:	b8 00 00 00 00       	mov    $0x0,%eax
   1400014ea:	48 83 c4 20          	add    $0x20,%rsp
   1400014ee:	5d                   	pop    %rbp
   1400014ef:	c3                   	ret

00000001400014f0 <duplicate_ppstrings>:
   1400014f0:	55                   	push   %rbp
   1400014f1:	53                   	push   %rbx
   1400014f2:	48 83 ec 48          	sub    $0x48,%rsp
   1400014f6:	48 8d 6c 24 40       	lea    0x40(%rsp),%rbp
   1400014fb:	89 4d 20             	mov    %ecx,0x20(%rbp)
   1400014fe:	48 89 55 28          	mov    %rdx,0x28(%rbp)
   140001502:	8b 45 20             	mov    0x20(%rbp),%eax
   140001505:	83 c0 01             	add    $0x1,%eax
   140001508:	48 98                	cltq
   14000150a:	48 c1 e0 03          	shl    $0x3,%rax
   14000150e:	48 89 c1             	mov    %rax,%rcx
   140001511:	e8 52 24 04 00       	call   140043968 <malloc>
   140001516:	48 89 45 f0          	mov    %rax,-0x10(%rbp)
   14000151a:	48 83 7d f0 00       	cmpq   $0x0,-0x10(%rbp)
   14000151f:	75 0a                	jne    14000152b <duplicate_ppstrings+0x3b>
   140001521:	b8 01 00 00 00       	mov    $0x1,%eax
   140001526:	e9 fd 00 00 00       	jmp    140001628 <duplicate_ppstrings+0x138>
   14000152b:	48 8b 45 28          	mov    0x28(%rbp),%rax
   14000152f:	48 8b 00             	mov    (%rax),%rax
   140001532:	48 89 45 e8          	mov    %rax,-0x18(%rbp)
   140001536:	c7 45 fc 00 00 00 00 	movl   $0x0,-0x4(%rbp)
   14000153d:	e9 af 00 00 00       	jmp    1400015f1 <duplicate_ppstrings+0x101>
   140001542:	8b 45 fc             	mov    -0x4(%rbp),%eax
   140001545:	48 98                	cltq
   140001547:	48 8d 14 c5 00 00 00 	lea    0x0(,%rax,8),%rdx
   14000154e:	00 
   14000154f:	48 8b 45 e8          	mov    -0x18(%rbp),%rax
   140001553:	48 01 d0             	add    %rdx,%rax
   140001556:	48 8b 00             	mov    (%rax),%rax
   140001559:	48 89 c1             	mov    %rax,%rcx
   14000155c:	e8 27 22 04 00       	call   140043788 <strlen>
   140001561:	48 83 c0 01          	add    $0x1,%rax
   140001565:	48 89 45 e0          	mov    %rax,-0x20(%rbp)
   140001569:	8b 45 fc             	mov    -0x4(%rbp),%eax
   14000156c:	48 98                	cltq
   14000156e:	48 8d 14 c5 00 00 00 	lea    0x0(,%rax,8),%rdx
   140001575:	00 
   140001576:	48 8b 45 f0          	mov    -0x10(%rbp),%rax
   14000157a:	48 8d 1c 02          	lea    (%rdx,%rax,1),%rbx
   14000157e:	48 8b 45 e0          	mov    -0x20(%rbp),%rax
   140001582:	48 89 c1             	mov    %rax,%rcx
   140001585:	e8 de 23 04 00       	call   140043968 <malloc>
   14000158a:	48 89 03             	mov    %rax,(%rbx)
   14000158d:	8b 45 fc             	mov    -0x4(%rbp),%eax
   140001590:	48 98                	cltq
   140001592:	48 8d 14 c5 00 00 00 	lea    0x0(,%rax,8),%rdx
   140001599:	00 
   14000159a:	48 8b 45 f0          	mov    -0x10(%rbp),%rax
   14000159e:	48 01 d0             	add    %rdx,%rax
   1400015a1:	48 8b 00             	mov    (%rax),%rax
   1400015a4:	48 85 c0             	test   %rax,%rax
   1400015a7:	75 07                	jne    1400015b0 <duplicate_ppstrings+0xc0>
   1400015a9:	b8 01 00 00 00       	mov    $0x1,%eax
   1400015ae:	eb 78                	jmp    140001628 <duplicate_ppstrings+0x138>
   1400015b0:	8b 45 fc             	mov    -0x4(%rbp),%eax
   1400015b3:	48 98                	cltq
   1400015b5:	48 8d 14 c5 00 00 00 	lea    0x0(,%rax,8),%rdx
   1400015bc:	00 
   1400015bd:	48 8b 45 e8          	mov    -0x18(%rbp),%rax
   1400015c1:	48 01 d0             	add    %rdx,%rax
   1400015c4:	48 8b 10             	mov    (%rax),%rdx
   1400015c7:	8b 45 fc             	mov    -0x4(%rbp),%eax
   1400015ca:	48 98                	cltq
   1400015cc:	48 8d 0c c5 00 00 00 	lea    0x0(,%rax,8),%rcx
   1400015d3:	00 
   1400015d4:	48 8b 45 f0          	mov    -0x10(%rbp),%rax
   1400015d8:	48 01 c8             	add    %rcx,%rax
   1400015db:	48 8b 00             	mov    (%rax),%rax
   1400015de:	48 8b 4d e0          	mov    -0x20(%rbp),%rcx
   1400015e2:	49 89 c8             	mov    %rcx,%r8
   1400015e5:	48 89 c1             	mov    %rax,%rcx
   1400015e8:	e8 1b 23 04 00       	call   140043908 <memcpy>
   1400015ed:	83 45 fc 01          	addl   $0x1,-0x4(%rbp)
   1400015f1:	8b 45 fc             	mov    -0x4(%rbp),%eax
   1400015f4:	3b 45 20             	cmp    0x20(%rbp),%eax
   1400015f7:	0f 8c 45 ff ff ff    	jl     140001542 <duplicate_ppstrings+0x52>
   1400015fd:	8b 45 fc             	mov    -0x4(%rbp),%eax
   140001600:	48 98                	cltq
   140001602:	48 8d 14 c5 00 00 00 	lea    0x0(,%rax,8),%rdx
   140001609:	00 
   14000160a:	48 8b 45 f0          	mov    -0x10(%rbp),%rax
   14000160e:	48 01 d0             	add    %rdx,%rax
   140001611:	48 c7 00 00 00 00 00 	movq   $0x0,(%rax)
   140001618:	48 8b 45 28          	mov    0x28(%rbp),%rax
   14000161c:	48 8b 55 f0          	mov    -0x10(%rbp),%rdx
   140001620:	48 89 10             	mov    %rdx,(%rax)
   140001623:	b8 00 00 00 00       	mov    $0x0,%eax
   140001628:	48 83 c4 48          	add    $0x48,%rsp
   14000162c:	5b                   	pop    %rbx
   14000162d:	5d                   	pop    %rbp
   14000162e:	c3                   	ret

000000014000162f <atexit>:
   14000162f:	55                   	push   %rbp
   140001630:	48 89 e5             	mov    %rsp,%rbp
   140001633:	48 83 ec 20          	sub    $0x20,%rsp
   140001637:	48 89 4d 10          	mov    %rcx,0x10(%rbp)
   14000163b:	48 8b 45 10          	mov    0x10(%rbp),%rax
   14000163f:	48 89 c1             	mov    %rax,%rcx
   140001642:	e8 59 22 04 00       	call   1400438a0 <_crt_atexit>
   140001647:	48 83 c4 20          	add    $0x20,%rsp
   14000164b:	5d                   	pop    %rbp
   14000164c:	c3                   	ret
   14000164d:	90                   	nop
   14000164e:	90                   	nop
   14000164f:	90                   	nop

0000000140001650 <.weak.__register_frame_info.hmod_libgcc>:
   140001650:	c3                   	ret
   140001651:	0f 1f 40 00          	nopl   0x0(%rax)
   140001655:	66 66 2e 0f 1f 84 00 	data16 cs nopw 0x0(%rax,%rax,1)
   14000165c:	00 00 00 00 

0000000140001660 <.weak.__deregister_frame_info.hmod_libgcc>:
   140001660:	31 c0                	xor    %eax,%eax
   140001662:	c3                   	ret
   140001663:	66 90                	xchg   %ax,%ax
   140001665:	66 66 2e 0f 1f 84 00 	data16 cs nopw 0x0(%rax,%rax,1)
   14000166c:	00 00 00 00 

0000000140001670 <__gcc_register_frame>:
   140001670:	55                   	push   %rbp
   140001671:	53                   	push   %rbx
   140001672:	48 83 ec 38          	sub    $0x38,%rsp
   140001676:	48 8d 6c 24 30       	lea    0x30(%rsp),%rbp
   14000167b:	48 8d 0d 7e 49 04 00 	lea    0x4497e(%rip),%rcx        # 140046000 <.rdata>
   140001682:	ff 15 a8 6e 3a 00    	call   *0x3a6ea8(%rip)        # 1403a8530 <__imp_GetModuleHandleA>
   140001688:	48 89 c3             	mov    %rax,%rbx
   14000168b:	48 85 c0             	test   %rax,%rax
   14000168e:	74 70                	je     140001700 <__gcc_register_frame+0x90>
   140001690:	48 8d 0d 69 49 04 00 	lea    0x44969(%rip),%rcx        # 140046000 <.rdata>
   140001697:	ff 15 bb 6e 3a 00    	call   *0x3a6ebb(%rip)        # 1403a8558 <__imp_LoadLibraryA>
   14000169d:	4c 8b 0d 94 6e 3a 00 	mov    0x3a6e94(%rip),%r9        # 1403a8538 <__imp_GetProcAddress>
   1400016a4:	48 8d 15 68 49 04 00 	lea    0x44968(%rip),%rdx        # 140046013 <.rdata+0x13>
   1400016ab:	48 89 d9             	mov    %rbx,%rcx
   1400016ae:	48 89 05 6b 19 08 00 	mov    %rax,0x8196b(%rip)        # 140083020 <hmod_libgcc>
   1400016b5:	4c 89 4d f0          	mov    %r9,-0x10(%rbp)
   1400016b9:	41 ff d1             	call   *%r9
   1400016bc:	48 8d 15 66 49 04 00 	lea    0x44966(%rip),%rdx        # 140046029 <.rdata+0x29>
   1400016c3:	48 89 d9             	mov    %rbx,%rcx
   1400016c6:	48 89 45 f8          	mov    %rax,-0x8(%rbp)
   1400016ca:	ff 55 f0             	call   *-0x10(%rbp)
   1400016cd:	4c 8b 45 f8          	mov    -0x8(%rbp),%r8
   1400016d1:	48 89 05 28 39 04 00 	mov    %rax,0x43928(%rip)        # 140045000 <__data_start__>
   1400016d8:	4d 85 c0             	test   %r8,%r8
   1400016db:	74 11                	je     1400016ee <__gcc_register_frame+0x7e>
   1400016dd:	48 8d 15 5c 19 08 00 	lea    0x8195c(%rip),%rdx        # 140083040 <obj>
   1400016e4:	48 8d 0d 15 c9 07 00 	lea    0x7c915(%rip),%rcx        # 14007e000 <__EH_FRAME_BEGIN__>
   1400016eb:	41 ff d0             	call   *%r8
   1400016ee:	48 8d 0d 2b 00 00 00 	lea    0x2b(%rip),%rcx        # 140001720 <__gcc_deregister_frame>
   1400016f5:	48 83 c4 38          	add    $0x38,%rsp
   1400016f9:	5b                   	pop    %rbx
   1400016fa:	5d                   	pop    %rbp
   1400016fb:	e9 2f ff ff ff       	jmp    14000162f <atexit>
   140001700:	48 8d 05 59 ff ff ff 	lea    -0xa7(%rip),%rax        # 140001660 <.weak.__deregister_frame_info.hmod_libgcc>
   140001707:	4c 8d 05 42 ff ff ff 	lea    -0xbe(%rip),%r8        # 140001650 <.weak.__register_frame_info.hmod_libgcc>
   14000170e:	48 89 05 eb 38 04 00 	mov    %rax,0x438eb(%rip)        # 140045000 <__data_start__>
   140001715:	eb c6                	jmp    1400016dd <__gcc_register_frame+0x6d>
   140001717:	66 0f 1f 84 00 00 00 	nopw   0x0(%rax,%rax,1)
   14000171e:	00 00 

0000000140001720 <__gcc_deregister_frame>:
   140001720:	55                   	push   %rbp
   140001721:	48 89 e5             	mov    %rsp,%rbp
   140001724:	48 83 ec 20          	sub    $0x20,%rsp
   140001728:	48 8b 05 d1 38 04 00 	mov    0x438d1(%rip),%rax        # 140045000 <__data_start__>
   14000172f:	48 85 c0             	test   %rax,%rax
   140001732:	74 09                	je     14000173d <__gcc_deregister_frame+0x1d>
   140001734:	48 8d 0d c5 c8 07 00 	lea    0x7c8c5(%rip),%rcx        # 14007e000 <__EH_FRAME_BEGIN__>
   14000173b:	ff d0                	call   *%rax
   14000173d:	48 8b 0d dc 18 08 00 	mov    0x818dc(%rip),%rcx        # 140083020 <hmod_libgcc>
   140001744:	48 85 c9             	test   %rcx,%rcx
   140001747:	74 0f                	je     140001758 <__gcc_deregister_frame+0x38>
   140001749:	48 83 c4 20          	add    $0x20,%rsp
   14000174d:	5d                   	pop    %rbp
   14000174e:	48 ff 25 b3 6d 3a 00 	rex.W jmp *0x3a6db3(%rip)        # 1403a8508 <__imp_FreeLibrary>
   140001755:	0f 1f 00             	nopl   (%rax)
   140001758:	48 83 c4 20          	add    $0x20,%rsp
   14000175c:	5d                   	pop    %rbp
   14000175d:	c3                   	ret
   14000175e:	90                   	nop
   14000175f:	90                   	nop
   140001760:	66 2e 0f 1f 84 00 00 	cs nopw 0x0(%rax,%rax,1)
   140001767:	00 00 00 
   14000176a:	66 2e 0f 1f 84 00 00 	cs nopw 0x0(%rax,%rax,1)
   140001771:	00 00 00 
   140001774:	66 2e 0f 1f 84 00 00 	cs nopw 0x0(%rax,%rax,1)
   14000177b:	00 00 00 
   14000177e:	66 90                	xchg   %ax,%ax

0000000140001780 <craft_profile_clamp>:
   140001780:	8b 41 14             	mov    0x14(%rcx),%eax
   140001783:	85 c0                	test   %eax,%eax
   140001785:	0f 88 b5 00 00 00    	js     140001840 <craft_profile_clamp+0xc0>
   14000178b:	83 f8 0a             	cmp    $0xa,%eax
   14000178e:	7e 07                	jle    140001797 <craft_profile_clamp+0x17>
   140001790:	c7 41 14 0a 00 00 00 	movl   $0xa,0x14(%rcx)
   140001797:	8b 41 18             	mov    0x18(%rcx),%eax
   14000179a:	85 c0                	test   %eax,%eax
   14000179c:	0f 88 b0 00 00 00    	js     140001852 <craft_profile_clamp+0xd2>
   1400017a2:	83 f8 0a             	cmp    $0xa,%eax
   1400017a5:	7e 07                	jle    1400017ae <craft_profile_clamp+0x2e>
   1400017a7:	c7 41 18 0a 00 00 00 	movl   $0xa,0x18(%rcx)
   1400017ae:	8b 41 1c             	mov    0x1c(%rcx),%eax
   1400017b1:	85 c0                	test   %eax,%eax
   1400017b3:	0f 88 ab 00 00 00    	js     140001864 <craft_profile_clamp+0xe4>
   1400017b9:	83 f8 0a             	cmp    $0xa,%eax
   1400017bc:	7e 07                	jle    1400017c5 <craft_profile_clamp+0x45>
   1400017be:	c7 41 1c 0a 00 00 00 	movl   $0xa,0x1c(%rcx)
   1400017c5:	8b 41 20             	mov    0x20(%rcx),%eax
   1400017c8:	85 c0                	test   %eax,%eax
   1400017ca:	0f 88 a6 00 00 00    	js     140001876 <craft_profile_clamp+0xf6>
   1400017d0:	83 f8 0a             	cmp    $0xa,%eax
   1400017d3:	7e 07                	jle    1400017dc <craft_profile_clamp+0x5c>
   1400017d5:	c7 41 20 0a 00 00 00 	movl   $0xa,0x20(%rcx)
   1400017dc:	8b 41 24             	mov    0x24(%rcx),%eax
   1400017df:	85 c0                	test   %eax,%eax
   1400017e1:	0f 88 a1 00 00 00    	js     140001888 <craft_profile_clamp+0x108>
   1400017e7:	83 f8 0a             	cmp    $0xa,%eax
   1400017ea:	7e 07                	jle    1400017f3 <craft_profile_clamp+0x73>
   1400017ec:	c7 41 24 0a 00 00 00 	movl   $0xa,0x24(%rcx)
   1400017f3:	8b 41 28             	mov    0x28(%rcx),%eax
   1400017f6:	85 c0                	test   %eax,%eax
   1400017f8:	0f 88 9c 00 00 00    	js     14000189a <craft_profile_clamp+0x11a>
   1400017fe:	83 f8 0a             	cmp    $0xa,%eax
   140001801:	7e 07                	jle    14000180a <craft_profile_clamp+0x8a>
   140001803:	c7 41 28 0a 00 00 00 	movl   $0xa,0x28(%rcx)
   14000180a:	8b 41 2c             	mov    0x2c(%rcx),%eax
   14000180d:	85 c0                	test   %eax,%eax
   14000180f:	0f 88 97 00 00 00    	js     1400018ac <craft_profile_clamp+0x12c>
   140001815:	83 f8 0a             	cmp    $0xa,%eax
   140001818:	7e 07                	jle    140001821 <craft_profile_clamp+0xa1>
   14000181a:	c7 41 2c 0a 00 00 00 	movl   $0xa,0x2c(%rcx)
   140001821:	8b 41 30             	mov    0x30(%rcx),%eax
   140001824:	85 c0                	test   %eax,%eax
   140001826:	0f 88 92 00 00 00    	js     1400018be <craft_profile_clamp+0x13e>
   14000182c:	83 f8 0a             	cmp    $0xa,%eax
   14000182f:	7e 07                	jle    140001838 <craft_profile_clamp+0xb8>
   140001831:	c7 41 30 0a 00 00 00 	movl   $0xa,0x30(%rcx)
   140001838:	c3                   	ret
   140001839:	0f 1f 80 00 00 00 00 	nopl   0x0(%rax)
   140001840:	8b 41 18             	mov    0x18(%rcx),%eax
   140001843:	c7 41 14 00 00 00 00 	movl   $0x0,0x14(%rcx)
   14000184a:	85 c0                	test   %eax,%eax
   14000184c:	0f 89 50 ff ff ff    	jns    1400017a2 <craft_profile_clamp+0x22>
   140001852:	8b 41 1c             	mov    0x1c(%rcx),%eax
   140001855:	c7 41 18 00 00 00 00 	movl   $0x0,0x18(%rcx)
   14000185c:	85 c0                	test   %eax,%eax
   14000185e:	0f 89 55 ff ff ff    	jns    1400017b9 <craft_profile_clamp+0x39>
   140001864:	8b 41 20             	mov    0x20(%rcx),%eax
   140001867:	c7 41 1c 00 00 00 00 	movl   $0x0,0x1c(%rcx)
   14000186e:	85 c0                	test   %eax,%eax
   140001870:	0f 89 5a ff ff ff    	jns    1400017d0 <craft_profile_clamp+0x50>
   140001876:	8b 41 24             	mov    0x24(%rcx),%eax
   140001879:	c7 41 20 00 00 00 00 	movl   $0x0,0x20(%rcx)
   140001880:	85 c0                	test   %eax,%eax
   140001882:	0f 89 5f ff ff ff    	jns    1400017e7 <craft_profile_clamp+0x67>
   140001888:	8b 41 28             	mov    0x28(%rcx),%eax
   14000188b:	c7 41 24 00 00 00 00 	movl   $0x0,0x24(%rcx)
   140001892:	85 c0                	test   %eax,%eax
   140001894:	0f 89 64 ff ff ff    	jns    1400017fe <craft_profile_clamp+0x7e>
   14000189a:	8b 41 2c             	mov    0x2c(%rcx),%eax
   14000189d:	c7 41 28 00 00 00 00 	movl   $0x0,0x28(%rcx)
   1400018a4:	85 c0                	test   %eax,%eax
   1400018a6:	0f 89 69 ff ff ff    	jns    140001815 <craft_profile_clamp+0x95>
   1400018ac:	8b 41 30             	mov    0x30(%rcx),%eax
   1400018af:	c7 41 2c 00 00 00 00 	movl   $0x0,0x2c(%rcx)
   1400018b6:	85 c0                	test   %eax,%eax
   1400018b8:	0f 89 6e ff ff ff    	jns    14000182c <craft_profile_clamp+0xac>
   1400018be:	c7 41 30 00 00 00 00 	movl   $0x0,0x30(%rcx)
   1400018c5:	c3                   	ret
   1400018c6:	66 2e 0f 1f 84 00 00 	cs nopw 0x0(%rax,%rax,1)
   1400018cd:	00 00 00 

00000001400018d0 <ui_print_title>:
   1400018d0:	53                   	push   %rbx
   1400018d1:	48 83 ec 20          	sub    $0x20,%rsp
   1400018d5:	48 8b 15 8c 37 04 00 	mov    0x4378c(%rip),%rdx        # 140045068 <C_BORDER>
   1400018dc:	4c 8b 0d 8d 37 04 00 	mov    0x4378d(%rip),%r9        # 140045070 <C_RESET>
   1400018e3:	4c 8d 05 76 47 04 00 	lea    0x44776(%rip),%r8        # 140046060 <.rdata>
   1400018ea:	48 89 cb             	mov    %rcx,%rbx
   1400018ed:	48 8d 0d bc 47 04 00 	lea    0x447bc(%rip),%rcx        # 1400460b0 <.rdata+0x50>
   1400018f4:	e8 67 1c 04 00       	call   140043560 <printf>
   1400018f9:	4c 8b 05 70 37 04 00 	mov    0x43770(%rip),%r8        # 140045070 <C_RESET>
   140001900:	48 8b 15 59 37 04 00 	mov    0x43759(%rip),%rdx        # 140045060 <C_TITLE>
   140001907:	80 3b 00             	cmpb   $0x0,(%rbx)
   14000190a:	75 34                	jne    140001940 <ui_print_title+0x70>
   14000190c:	48 8d 0d af 47 04 00 	lea    0x447af(%rip),%rcx        # 1400460c2 <.rdata+0x62>
   140001913:	e8 48 1c 04 00       	call   140043560 <printf>
   140001918:	4c 8b 0d 51 37 04 00 	mov    0x43751(%rip),%r9        # 140045070 <C_RESET>
   14000191f:	48 8b 15 42 37 04 00 	mov    0x43742(%rip),%rdx        # 140045068 <C_BORDER>
   140001926:	4c 8d 05 33 47 04 00 	lea    0x44733(%rip),%r8        # 140046060 <.rdata>
   14000192d:	48 8d 0d a2 47 04 00 	lea    0x447a2(%rip),%rcx        # 1400460d6 <.rdata+0x76>
   140001934:	48 83 c4 20          	add    $0x20,%rsp
   140001938:	5b                   	pop    %rbx
   140001939:	e9 22 1c 04 00       	jmp    140043560 <printf>
   14000193e:	66 90                	xchg   %ax,%ax
   140001940:	4d 89 c1             	mov    %r8,%r9
   140001943:	48 8d 0d 6e 47 04 00 	lea    0x4476e(%rip),%rcx        # 1400460b8 <.rdata+0x58>
   14000194a:	49 89 d8             	mov    %rbx,%r8
   14000194d:	e8 0e 1c 04 00       	call   140043560 <printf>
   140001952:	eb c4                	jmp    140001918 <ui_print_title+0x48>
   140001954:	90                   	nop
   140001955:	66 66 2e 0f 1f 84 00 	data16 cs nopw 0x0(%rax,%rax,1)
   14000195c:	00 00 00 00 

0000000140001960 <notes_delete_line>:
   140001960:	8b 05 5a 1b 21 00    	mov    0x211b5a(%rip),%eax        # 1402134c0 <g_note_n>
   140001966:	31 d2                	xor    %edx,%edx
   140001968:	39 c8                	cmp    %ecx,%eax
   14000196a:	0f 8c f4 00 00 00    	jl     140001a64 <notes_delete_line+0x104>
   140001970:	44 8d 40 ff          	lea    -0x1(%rax),%r8d
   140001974:	4c 8d 0d 65 1b 21 00 	lea    0x211b65(%rip),%r9        # 1402134e0 <g_notes>
   14000197b:	0f 8e c7 00 00 00    	jle    140001a48 <notes_delete_line+0xe8>
   140001981:	44 89 c2             	mov    %r8d,%edx
   140001984:	4c 63 d1             	movslq %ecx,%r10
   140001987:	4c 8d 0d 52 1b 21 00 	lea    0x211b52(%rip),%r9        # 1402134e0 <g_notes>
   14000198e:	29 ca                	sub    %ecx,%edx
   140001990:	4b 8d 04 52          	lea    (%r10,%r10,2),%rax
   140001994:	4c 01 d2             	add    %r10,%rdx
   140001997:	48 c1 e0 06          	shl    $0x6,%rax
   14000199b:	48 8d 0c 52          	lea    (%rdx,%rdx,2),%rcx
   14000199f:	49 8d 84 01 40 ff ff 	lea    -0xc0(%r9,%rax,1),%rax
   1400019a6:	ff 
   1400019a7:	48 c1 e1 06          	shl    $0x6,%rcx
   1400019ab:	4c 01 c9             	add    %r9,%rcx
   1400019ae:	66 90                	xchg   %ax,%ax
   1400019b0:	48 89 c2             	mov    %rax,%rdx
   1400019b3:	66 0f 6f 80 c0 00 00 	movdqa 0xc0(%rax),%xmm0
   1400019ba:	00 
   1400019bb:	48 05 c0 00 00 00    	add    $0xc0,%rax
   1400019c1:	0f 29 02             	movaps %xmm0,(%rdx)
   1400019c4:	66 0f 6f 48 10       	movdqa 0x10(%rax),%xmm1
   1400019c9:	0f 29 4a 10          	movaps %xmm1,0x10(%rdx)
   1400019cd:	66 0f 6f 50 20       	movdqa 0x20(%rax),%xmm2
   1400019d2:	0f 29 52 20          	movaps %xmm2,0x20(%rdx)
   1400019d6:	66 0f 6f 58 30       	movdqa 0x30(%rax),%xmm3
   1400019db:	0f 29 5a 30          	movaps %xmm3,0x30(%rdx)
   1400019df:	66 0f 6f 60 40       	movdqa 0x40(%rax),%xmm4
   1400019e4:	0f 29 62 40          	movaps %xmm4,0x40(%rdx)
   1400019e8:	66 0f 6f 68 50       	movdqa 0x50(%rax),%xmm5
   1400019ed:	0f 29 6a 50          	movaps %xmm5,0x50(%rdx)
   1400019f1:	66 0f 6f 40 60       	movdqa 0x60(%rax),%xmm0
   1400019f6:	0f 29 42 60          	movaps %xmm0,0x60(%rdx)
   1400019fa:	66 0f 6f 48 70       	movdqa 0x70(%rax),%xmm1
   1400019ff:	0f 29 4a 70          	movaps %xmm1,0x70(%rdx)
   140001a03:	66 0f 6f 90 80 00 00 	movdqa 0x80(%rax),%xmm2
   140001a0a:	00 
   140001a0b:	0f 29 92 80 00 00 00 	movaps %xmm2,0x80(%rdx)
   140001a12:	66 0f 6f 98 90 00 00 	movdqa 0x90(%rax),%xmm3
   140001a19:	00 
   140001a1a:	0f 29 9a 90 00 00 00 	movaps %xmm3,0x90(%rdx)
   140001a21:	66 0f 6f a0 a0 00 00 	movdqa 0xa0(%rax),%xmm4
   140001a28:	00 
   140001a29:	0f 29 a2 a0 00 00 00 	movaps %xmm4,0xa0(%rdx)
   140001a30:	66 0f 6f a8 b0 00 00 	movdqa 0xb0(%rax),%xmm5
   140001a37:	00 
   140001a38:	0f 29 aa b0 00 00 00 	movaps %xmm5,0xb0(%rdx)
   140001a3f:	48 39 c8             	cmp    %rcx,%rax
   140001a42:	0f 85 68 ff ff ff    	jne    1400019b0 <notes_delete_line+0x50>
   140001a48:	44 89 05 71 1a 21 00 	mov    %r8d,0x211a71(%rip)        # 1402134c0 <g_note_n>
   140001a4f:	4d 63 c0             	movslq %r8d,%r8
   140001a52:	ba 01 00 00 00       	mov    $0x1,%edx
   140001a57:	4b 8d 04 40          	lea    (%r8,%r8,2),%rax
   140001a5b:	48 c1 e0 06          	shl    $0x6,%rax
   140001a5f:	41 c6 04 01 00       	movb   $0x0,(%r9,%rax,1)
   140001a64:	89 d0                	mov    %edx,%eax
   140001a66:	c3                   	ret
   140001a67:	66 0f 1f 84 00 00 00 	nopw   0x0(%rax,%rax,1)
   140001a6e:	00 00 

0000000140001a70 <chomp_line>:
   140001a70:	53                   	push   %rbx
   140001a71:	48 83 ec 20          	sub    $0x20,%rsp
   140001a75:	48 89 cb             	mov    %rcx,%rbx
   140001a78:	e8 0b 1d 04 00       	call   140043788 <strlen>
   140001a7d:	48 85 c0             	test   %rax,%rax
   140001a80:	75 27                	jne    140001aa9 <chomp_line+0x39>
   140001a82:	eb 37                	jmp    140001abb <chomp_line+0x4b>
   140001a84:	66 0f 1f 44 00 00    	nopw   0x0(%rax,%rax,1)
   140001a8a:	66 66 2e 0f 1f 84 00 	data16 cs nopw 0x0(%rax,%rax,1)
   140001a91:	00 00 00 00 
   140001a95:	66 66 2e 0f 1f 84 00 	data16 cs nopw 0x0(%rax,%rax,1)
   140001a9c:	00 00 00 00 
   140001aa0:	c6 04 03 00          	movb   $0x0,(%rbx,%rax,1)
   140001aa4:	48 85 c0             	test   %rax,%rax
   140001aa7:	74 12                	je     140001abb <chomp_line+0x4b>
   140001aa9:	48 83 e8 01          	sub    $0x1,%rax
   140001aad:	0f b6 14 03          	movzbl (%rbx,%rax,1),%edx
   140001ab1:	80 fa 0a             	cmp    $0xa,%dl
   140001ab4:	74 ea                	je     140001aa0 <chomp_line+0x30>
   140001ab6:	80 fa 0d             	cmp    $0xd,%dl
   140001ab9:	74 e5                	je     140001aa0 <chomp_line+0x30>
   140001abb:	48 83 c4 20          	add    $0x20,%rsp
   140001abf:	5b                   	pop    %rbx
   140001ac0:	c3                   	ret
   140001ac1:	0f 1f 40 00          	nopl   0x0(%rax)
   140001ac5:	66 66 2e 0f 1f 84 00 	data16 cs nopw 0x0(%rax,%rax,1)
   140001acc:	00 00 00 00 

0000000140001ad0 <inv_add>:
   140001ad0:	57                   	push   %rdi
   140001ad1:	56                   	push   %rsi
   140001ad2:	53                   	push   %rbx
   140001ad3:	48 83 ec 30          	sub    $0x30,%rsp
   140001ad7:	44 8b 0d 62 3e 21 00 	mov    0x213e62(%rip),%r9d        # 140215940 <g_inv_n>
   140001ade:	48 85 c9             	test   %rcx,%rcx
   140001ae1:	74 7d                	je     140001b60 <inv_add+0x90>
   140001ae3:	41 83 f9 7f          	cmp    $0x7f,%r9d
   140001ae7:	7f 77                	jg     140001b60 <inv_add+0x90>
   140001ae9:	48 89 4c 24 50       	mov    %rcx,0x50(%rsp)
   140001aee:	44 89 4c 24 2c       	mov    %r9d,0x2c(%rsp)
   140001af3:	e8 90 1c 04 00       	call   140043788 <strlen>
   140001af8:	4c 63 54 24 2c       	movslq 0x2c(%rsp),%r10
   140001afd:	48 8b 54 24 50       	mov    0x50(%rsp),%rdx
   140001b02:	4c 8d 1d 57 3e 21 00 	lea    0x213e57(%rip),%r11        # 140215960 <g_inv>
   140001b09:	49 89 c0             	mov    %rax,%r8
   140001b0c:	b8 2f 00 00 00       	mov    $0x2f,%eax
   140001b11:	49 39 c0             	cmp    %rax,%r8
   140001b14:	4d 89 d1             	mov    %r10,%r9
   140001b17:	48 89 d1             	mov    %rdx,%rcx
   140001b1a:	4c 0f 47 c0          	cmova  %rax,%r8
   140001b1e:	4b 8d 04 52          	lea    (%r10,%r10,2),%rax
   140001b22:	48 c1 e0 04          	shl    $0x4,%rax
   140001b26:	4c 01 d8             	add    %r11,%rax
   140001b29:	48 89 c6             	mov    %rax,%rsi
   140001b2c:	41 83 f8 08          	cmp    $0x8,%r8d
   140001b30:	73 7e                	jae    140001bb0 <inv_add+0xe0>
   140001b32:	31 c0                	xor    %eax,%eax
   140001b34:	41 f6 c0 04          	test   $0x4,%r8b
   140001b38:	75 5e                	jne    140001b98 <inv_add+0xc8>
   140001b3a:	41 f6 c0 02          	test   $0x2,%r8b
   140001b3e:	75 40                	jne    140001b80 <inv_add+0xb0>
   140001b40:	41 f6 c0 01          	test   $0x1,%r8b
   140001b44:	75 2a                	jne    140001b70 <inv_add+0xa0>
   140001b46:	4b 8d 04 52          	lea    (%r10,%r10,2),%rax
   140001b4a:	48 c1 e0 04          	shl    $0x4,%rax
   140001b4e:	49 01 c3             	add    %rax,%r11
   140001b51:	41 8d 41 01          	lea    0x1(%r9),%eax
   140001b55:	43 c6 04 03 00       	movb   $0x0,(%r11,%r8,1)
   140001b5a:	89 05 e0 3d 21 00    	mov    %eax,0x213de0(%rip)        # 140215940 <g_inv_n>
   140001b60:	48 83 c4 30          	add    $0x30,%rsp
   140001b64:	5b                   	pop    %rbx
   140001b65:	5e                   	pop    %rsi
   140001b66:	5f                   	pop    %rdi
   140001b67:	c3                   	ret
   140001b68:	0f 1f 84 00 00 00 00 	nopl   0x0(%rax,%rax,1)
   140001b6f:	00 
   140001b70:	0f b6 14 01          	movzbl (%rcx,%rax,1),%edx
   140001b74:	88 14 06             	mov    %dl,(%rsi,%rax,1)
   140001b77:	eb cd                	jmp    140001b46 <inv_add+0x76>
   140001b79:	0f 1f 80 00 00 00 00 	nopl   0x0(%rax)
   140001b80:	0f b7 14 01          	movzwl (%rcx,%rax,1),%edx
   140001b84:	66 89 14 06          	mov    %dx,(%rsi,%rax,1)
   140001b88:	48 83 c0 02          	add    $0x2,%rax
   140001b8c:	41 f6 c0 01          	test   $0x1,%r8b
   140001b90:	74 b4                	je     140001b46 <inv_add+0x76>
   140001b92:	eb dc                	jmp    140001b70 <inv_add+0xa0>
   140001b94:	0f 1f 40 00          	nopl   0x0(%rax)
   140001b98:	8b 01                	mov    (%rcx),%eax
   140001b9a:	89 06                	mov    %eax,(%rsi)
   140001b9c:	b8 04 00 00 00       	mov    $0x4,%eax
   140001ba1:	41 f6 c0 02          	test   $0x2,%r8b
   140001ba5:	74 99                	je     140001b40 <inv_add+0x70>
   140001ba7:	eb d7                	jmp    140001b80 <inv_add+0xb0>
   140001ba9:	0f 1f 80 00 00 00 00 	nopl   0x0(%rax)
   140001bb0:	44 89 c1             	mov    %r8d,%ecx
   140001bb3:	83 e1 f8             	and    $0xfffffff8,%ecx
   140001bb6:	89 cf                	mov    %ecx,%edi
   140001bb8:	31 c9                	xor    %ecx,%ecx
   140001bba:	89 cb                	mov    %ecx,%ebx
   140001bbc:	83 c1 08             	add    $0x8,%ecx
   140001bbf:	48 8b 34 1a          	mov    (%rdx,%rbx,1),%rsi
   140001bc3:	48 89 34 18          	mov    %rsi,(%rax,%rbx,1)
   140001bc7:	39 f9                	cmp    %edi,%ecx
   140001bc9:	72 ef                	jb     140001bba <inv_add+0xea>
   140001bcb:	48 8d 34 08          	lea    (%rax,%rcx,1),%rsi
   140001bcf:	48 01 d1             	add    %rdx,%rcx
   140001bd2:	e9 5b ff ff ff       	jmp    140001b32 <inv_add+0x62>
   140001bd7:	66 0f 1f 84 00 00 00 	nopw   0x0(%rax,%rax,1)
   140001bde:	00 00 

0000000140001be0 <main_menu_box_row>:
   140001be0:	41 56                	push   %r14
   140001be2:	55                   	push   %rbp
   140001be3:	57                   	push   %rdi
   140001be4:	56                   	push   %rsi
   140001be5:	53                   	push   %rbx
   140001be6:	48 81 ec d0 00 00 00 	sub    $0xd0,%rsp
   140001bed:	4c 8d 35 f3 44 04 00 	lea    0x444f3(%rip),%r14        # 1400460e7 <.rdata+0x87>
   140001bf4:	89 cb                	mov    %ecx,%ebx
   140001bf6:	48 89 d1             	mov    %rdx,%rcx
   140001bf9:	48 89 d6             	mov    %rdx,%rsi
   140001bfc:	4c 89 c5             	mov    %r8,%rbp
   140001bff:	e8 84 1b 04 00       	call   140043788 <strlen>
   140001c04:	4c 89 74 24 28       	mov    %r14,0x28(%rsp)
   140001c09:	49 89 f1             	mov    %rsi,%r9
   140001c0c:	48 8d bc 24 a0 00 00 	lea    0xa0(%rsp),%rdi
   140001c13:	00 
   140001c14:	48 89 c2             	mov    %rax,%rdx
   140001c17:	b8 1a 00 00 00       	mov    $0x1a,%eax
   140001c1c:	48 8d b4 24 80 00 00 	lea    0x80(%rsp),%rsi
   140001c23:	00 
   140001c24:	48 89 f9             	mov    %rdi,%rcx
   140001c27:	29 d0                	sub    %edx,%eax
   140001c29:	83 fa 1b             	cmp    $0x1b,%edx
   140001c2c:	ba 00 00 00 00       	mov    $0x0,%edx
   140001c31:	0f 4d c2             	cmovge %edx,%eax
   140001c34:	4c 8d 05 a4 44 04 00 	lea    0x444a4(%rip),%r8        # 1400460df <.rdata+0x7f>
   140001c3b:	ba 30 00 00 00       	mov    $0x30,%edx
   140001c40:	89 44 24 20          	mov    %eax,0x20(%rsp)
   140001c44:	e8 a7 18 04 00       	call   1400434f0 <snprintf>
   140001c49:	49 89 e9             	mov    %rbp,%r9
   140001c4c:	ba 18 00 00 00       	mov    $0x18,%edx
   140001c51:	48 89 f1             	mov    %rsi,%rcx
   140001c54:	4c 8d 05 8d 44 04 00 	lea    0x4448d(%rip),%r8        # 1400460e8 <.rdata+0x88>
   140001c5b:	e8 90 18 04 00       	call   1400434f0 <snprintf>
   140001c60:	48 89 f9             	mov    %rdi,%rcx
   140001c63:	e8 20 1b 04 00       	call   140043788 <strlen>
   140001c68:	48 89 f1             	mov    %rsi,%rcx
   140001c6b:	48 89 c5             	mov    %rax,%rbp
   140001c6e:	e8 15 1b 04 00       	call   140043788 <strlen>
   140001c73:	48 8b 15 f6 33 04 00 	mov    0x433f6(%rip),%rdx        # 140045070 <C_RESET>
   140001c7a:	4c 89 74 24 68       	mov    %r14,0x68(%rsp)
   140001c7f:	44 0f be cb          	movsbl %bl,%r9d
   140001c83:	49 89 c0             	mov    %rax,%r8
   140001c86:	b8 37 00 00 00       	mov    $0x37,%eax
   140001c8b:	48 89 74 24 50       	mov    %rsi,0x50(%rsp)
   140001c90:	48 8b 0d d1 33 04 00 	mov    0x433d1(%rip),%rcx        # 140045068 <C_BORDER>
   140001c97:	29 e8                	sub    %ebp,%eax
   140001c99:	48 89 54 24 78       	mov    %rdx,0x78(%rsp)
   140001c9e:	44 29 c0             	sub    %r8d,%eax
   140001ca1:	41 b8 00 00 00 00    	mov    $0x0,%r8d
   140001ca7:	48 89 4c 24 70       	mov    %rcx,0x70(%rsp)
   140001cac:	41 0f 48 c0          	cmovs  %r8d,%eax
   140001cb0:	48 89 54 24 58       	mov    %rdx,0x58(%rsp)
   140001cb5:	4c 8b 05 84 33 04 00 	mov    0x43384(%rip),%r8        # 140045040 <C_ITEM>
   140001cbc:	48 89 54 24 40       	mov    %rdx,0x40(%rsp)
   140001cc1:	89 44 24 60          	mov    %eax,0x60(%rsp)
   140001cc5:	48 8b 05 4c 33 04 00 	mov    0x4334c(%rip),%rax        # 140045018 <C_MUTED>
   140001ccc:	48 89 54 24 28       	mov    %rdx,0x28(%rsp)
   140001cd1:	48 89 ca             	mov    %rcx,%rdx
   140001cd4:	48 89 44 24 48       	mov    %rax,0x48(%rsp)
   140001cd9:	48 8b 05 70 33 04 00 	mov    0x43370(%rip),%rax        # 140045050 <C_HEADING>
   140001ce0:	48 89 4c 24 20       	mov    %rcx,0x20(%rsp)
   140001ce5:	48 8d 0d 0c 44 04 00 	lea    0x4440c(%rip),%rcx        # 1400460f8 <.rdata+0x98>
   140001cec:	48 89 7c 24 38       	mov    %rdi,0x38(%rsp)
   140001cf1:	48 89 44 24 30       	mov    %rax,0x30(%rsp)
   140001cf6:	e8 65 18 04 00       	call   140043560 <printf>
   140001cfb:	90                   	nop
   140001cfc:	48 81 c4 d0 00 00 00 	add    $0xd0,%rsp
   140001d03:	5b                   	pop    %rbx
   140001d04:	5e                   	pop    %rsi
   140001d05:	5f                   	pop    %rdi
   140001d06:	5d                   	pop    %rbp
   140001d07:	41 5e                	pop    %r14
   140001d09:	c3                   	ret
   140001d0a:	66 0f 1f 44 00 00    	nopw   0x0(%rax,%rax,1)

0000000140001d10 <causal_push>:
   140001d10:	48 81 ec 18 01 00 00 	sub    $0x118,%rsp
   140001d17:	44 8b 0d 1a 3c 21 00 	mov    0x213c1a(%rip),%r9d        # 140215938 <g_turns>
   140001d1e:	4c 8d 05 05 44 04 00 	lea    0x44405(%rip),%r8        # 14004612a <.rdata+0xca>
   140001d25:	48 89 c8             	mov    %rcx,%rax
   140001d28:	48 89 54 24 28       	mov    %rdx,0x28(%rsp)
   140001d2d:	48 8d 4c 24 30       	lea    0x30(%rsp),%rcx
   140001d32:	ba e0 00 00 00       	mov    $0xe0,%edx
   140001d37:	48 89 44 24 20       	mov    %rax,0x20(%rsp)
   140001d3c:	e8 af 17 04 00       	call   1400434f0 <snprintf>
   140001d41:	48 63 0d a8 e6 20 00 	movslq 0x20e6a8(%rip),%rcx        # 1402103f0 <g_causal_head>
   140001d48:	66 0f 6f 44 24 30    	movdqa 0x30(%rsp),%xmm0
   140001d4e:	48 8d 05 ab e6 20 00 	lea    0x20e6ab(%rip),%rax        # 140210400 <g_causal_ring>
   140001d55:	66 0f 6f 4c 24 40    	movdqa 0x40(%rsp),%xmm1
   140001d5b:	66 0f 6f 54 24 50    	movdqa 0x50(%rsp),%xmm2
   140001d61:	c6 84 24 0f 01 00 00 	movb   $0x0,0x10f(%rsp)
   140001d68:	00 
   140001d69:	48 89 ca             	mov    %rcx,%rdx
   140001d6c:	48 69 c9 e0 00 00 00 	imul   $0xe0,%rcx,%rcx
   140001d73:	66 0f 6f 5c 24 60    	movdqa 0x60(%rsp),%xmm3
   140001d79:	66 0f 6f 64 24 70    	movdqa 0x70(%rsp),%xmm4
   140001d7f:	66 0f 6f ac 24 80 00 	movdqa 0x80(%rsp),%xmm5
   140001d86:	00 00 
   140001d88:	0f 29 04 08          	movaps %xmm0,(%rax,%rcx,1)
   140001d8c:	66 0f 6f 84 24 90 00 	movdqa 0x90(%rsp),%xmm0
   140001d93:	00 00 
   140001d95:	0f 29 4c 08 10       	movaps %xmm1,0x10(%rax,%rcx,1)
   140001d9a:	66 0f 6f 8c 24 a0 00 	movdqa 0xa0(%rsp),%xmm1
   140001da1:	00 00 
   140001da3:	0f 29 54 08 20       	movaps %xmm2,0x20(%rax,%rcx,1)
   140001da8:	66 0f 6f 94 24 b0 00 	movdqa 0xb0(%rsp),%xmm2
   140001daf:	00 00 
   140001db1:	0f 29 5c 08 30       	movaps %xmm3,0x30(%rax,%rcx,1)
   140001db6:	66 0f 6f 9c 24 c0 00 	movdqa 0xc0(%rsp),%xmm3
   140001dbd:	00 00 
   140001dbf:	0f 29 64 08 40       	movaps %xmm4,0x40(%rax,%rcx,1)
   140001dc4:	66 0f 6f a4 24 d0 00 	movdqa 0xd0(%rsp),%xmm4
   140001dcb:	00 00 
   140001dcd:	0f 29 6c 08 50       	movaps %xmm5,0x50(%rax,%rcx,1)
   140001dd2:	66 0f 6f ac 24 e0 00 	movdqa 0xe0(%rsp),%xmm5
   140001dd9:	00 00 
   140001ddb:	0f 29 44 08 60       	movaps %xmm0,0x60(%rax,%rcx,1)
   140001de0:	66 0f 6f 84 24 f0 00 	movdqa 0xf0(%rsp),%xmm0
   140001de7:	00 00 
   140001de9:	0f 29 4c 08 70       	movaps %xmm1,0x70(%rax,%rcx,1)
   140001dee:	66 0f 6f 8c 24 00 01 	movdqa 0x100(%rsp),%xmm1
   140001df5:	00 00 
   140001df7:	0f 29 94 08 80 00 00 	movaps %xmm2,0x80(%rax,%rcx,1)
   140001dfe:	00 
   140001dff:	0f 29 8c 08 d0 00 00 	movaps %xmm1,0xd0(%rax,%rcx,1)
   140001e06:	00 
   140001e07:	0f 29 9c 08 90 00 00 	movaps %xmm3,0x90(%rax,%rcx,1)
   140001e0e:	00 
   140001e0f:	c6 84 08 df 00 00 00 	movb   $0x0,0xdf(%rax,%rcx,1)
   140001e16:	00 
   140001e17:	0f 29 a4 08 a0 00 00 	movaps %xmm4,0xa0(%rax,%rcx,1)
   140001e1e:	00 
   140001e1f:	0f 29 ac 08 b0 00 00 	movaps %xmm5,0xb0(%rax,%rcx,1)
   140001e26:	00 
   140001e27:	0f 29 84 08 c0 00 00 	movaps %xmm0,0xc0(%rax,%rcx,1)
   140001e2e:	00 
   140001e2f:	8d 42 01             	lea    0x1(%rdx),%eax
   140001e32:	99                   	cltd
   140001e33:	c1 ea 1b             	shr    $0x1b,%edx
   140001e36:	01 d0                	add    %edx,%eax
   140001e38:	83 e0 1f             	and    $0x1f,%eax
   140001e3b:	29 d0                	sub    %edx,%eax
   140001e3d:	89 05 ad e5 20 00    	mov    %eax,0x20e5ad(%rip)        # 1402103f0 <g_causal_head>
   140001e43:	8b 05 a3 e5 20 00    	mov    0x20e5a3(%rip),%eax        # 1402103ec <g_causal_count>
   140001e49:	83 f8 1f             	cmp    $0x1f,%eax
   140001e4c:	7f 09                	jg     140001e57 <causal_push+0x147>
   140001e4e:	83 c0 01             	add    $0x1,%eax
   140001e51:	89 05 95 e5 20 00    	mov    %eax,0x20e595(%rip)        # 1402103ec <g_causal_count>
   140001e57:	48 81 c4 18 01 00 00 	add    $0x118,%rsp
   140001e5e:	c3                   	ret
   140001e5f:	90                   	nop

0000000140001e60 <strip_trailing_space>:
   140001e60:	57                   	push   %rdi
   140001e61:	56                   	push   %rsi
   140001e62:	53                   	push   %rbx
   140001e63:	48 83 ec 20          	sub    $0x20,%rsp
   140001e67:	48 89 ce             	mov    %rcx,%rsi
   140001e6a:	e8 19 19 04 00       	call   140043788 <strlen>
   140001e6f:	48 8b 3d 62 69 3a 00 	mov    0x3a6962(%rip),%rdi        # 1403a87d8 <__imp_isspace>
   140001e76:	48 8d 1c 06          	lea    (%rsi,%rax,1),%rbx
   140001e7a:	48 39 de             	cmp    %rbx,%rsi
   140001e7d:	72 15                	jb     140001e94 <strip_trailing_space+0x34>
   140001e7f:	eb 1d                	jmp    140001e9e <strip_trailing_space+0x3e>
   140001e81:	0f 1f 80 00 00 00 00 	nopl   0x0(%rax)
   140001e88:	48 83 eb 01          	sub    $0x1,%rbx
   140001e8c:	c6 03 00             	movb   $0x0,(%rbx)
   140001e8f:	48 39 de             	cmp    %rbx,%rsi
   140001e92:	74 0a                	je     140001e9e <strip_trailing_space+0x3e>
   140001e94:	0f b6 4b ff          	movzbl -0x1(%rbx),%ecx
   140001e98:	ff d7                	call   *%rdi
   140001e9a:	85 c0                	test   %eax,%eax
   140001e9c:	75 ea                	jne    140001e88 <strip_trailing_space+0x28>
   140001e9e:	48 83 c4 20          	add    $0x20,%rsp
   140001ea2:	5b                   	pop    %rbx
   140001ea3:	5e                   	pop    %rsi
   140001ea4:	5f                   	pop    %rdi
   140001ea5:	c3                   	ret
   140001ea6:	66 2e 0f 1f 84 00 00 	cs nopw 0x0(%rax,%rax,1)
   140001ead:	00 00 00 

0000000140001eb0 <squeeze_spaces>:
   140001eb0:	41 55                	push   %r13
   140001eb2:	41 54                	push   %r12
   140001eb4:	55                   	push   %rbp
   140001eb5:	57                   	push   %rdi
   140001eb6:	56                   	push   %rsi
   140001eb7:	53                   	push   %rbx
   140001eb8:	48 83 ec 28          	sub    $0x28,%rsp
   140001ebc:	0f b6 31             	movzbl (%rcx),%esi
   140001ebf:	48 89 cd             	mov    %rcx,%rbp
   140001ec2:	40 84 f6             	test   %sil,%sil
   140001ec5:	0f 84 85 00 00 00    	je     140001f50 <squeeze_spaces+0xa0>
   140001ecb:	4c 8b 2d 06 69 3a 00 	mov    0x3a6906(%rip),%r13        # 1403a87d8 <__imp_isspace>
   140001ed2:	48 89 cb             	mov    %rcx,%rbx
   140001ed5:	48 89 cf             	mov    %rcx,%rdi
   140001ed8:	41 bc 01 00 00 00    	mov    $0x1,%r12d
   140001ede:	eb 1a                	jmp    140001efa <squeeze_spaces+0x4a>
   140001ee0:	45 85 e4             	test   %r12d,%r12d
   140001ee3:	75 0d                	jne    140001ef2 <squeeze_spaces+0x42>
   140001ee5:	c6 03 20             	movb   $0x20,(%rbx)
   140001ee8:	41 bc 01 00 00 00    	mov    $0x1,%r12d
   140001eee:	48 83 c3 01          	add    $0x1,%rbx
   140001ef2:	0f b6 37             	movzbl (%rdi),%esi
   140001ef5:	40 84 f6             	test   %sil,%sil
   140001ef8:	74 21                	je     140001f1b <squeeze_spaces+0x6b>
   140001efa:	48 83 c7 01          	add    $0x1,%rdi
   140001efe:	40 0f b6 ce          	movzbl %sil,%ecx
   140001f02:	41 ff d5             	call   *%r13
   140001f05:	85 c0                	test   %eax,%eax
   140001f07:	75 d7                	jne    140001ee0 <squeeze_spaces+0x30>
   140001f09:	40 88 33             	mov    %sil,(%rbx)
   140001f0c:	0f b6 37             	movzbl (%rdi),%esi
   140001f0f:	45 31 e4             	xor    %r12d,%r12d
   140001f12:	48 83 c3 01          	add    $0x1,%rbx
   140001f16:	40 84 f6             	test   %sil,%sil
   140001f19:	75 df                	jne    140001efa <squeeze_spaces+0x4a>
   140001f1b:	48 39 dd             	cmp    %rbx,%rbp
   140001f1e:	72 19                	jb     140001f39 <squeeze_spaces+0x89>
   140001f20:	eb 1d                	jmp    140001f3f <squeeze_spaces+0x8f>
   140001f22:	0f 1f 00             	nopl   (%rax)
   140001f25:	66 66 2e 0f 1f 84 00 	data16 cs nopw 0x0(%rax,%rax,1)
   140001f2c:	00 00 00 00 
   140001f30:	48 83 eb 01          	sub    $0x1,%rbx
   140001f34:	48 39 dd             	cmp    %rbx,%rbp
   140001f37:	74 17                	je     140001f50 <squeeze_spaces+0xa0>
   140001f39:	80 7b ff 20          	cmpb   $0x20,-0x1(%rbx)
   140001f3d:	74 f1                	je     140001f30 <squeeze_spaces+0x80>
   140001f3f:	c6 03 00             	movb   $0x0,(%rbx)
   140001f42:	48 83 c4 28          	add    $0x28,%rsp
   140001f46:	5b                   	pop    %rbx
   140001f47:	5e                   	pop    %rsi
   140001f48:	5f                   	pop    %rdi
   140001f49:	5d                   	pop    %rbp
   140001f4a:	41 5c                	pop    %r12
   140001f4c:	41 5d                	pop    %r13
   140001f4e:	c3                   	ret
   140001f4f:	90                   	nop
   140001f50:	48 89 eb             	mov    %rbp,%rbx
   140001f53:	c6 03 00             	movb   $0x0,(%rbx)
   140001f56:	48 83 c4 28          	add    $0x28,%rsp
   140001f5a:	5b                   	pop    %rbx
   140001f5b:	5e                   	pop    %rsi
   140001f5c:	5f                   	pop    %rdi
   140001f5d:	5d                   	pop    %rbp
   140001f5e:	41 5c                	pop    %r12
   140001f60:	41 5d                	pop    %r13
   140001f62:	c3                   	ret
   140001f63:	66 90                	xchg   %ax,%ax
   140001f65:	66 66 2e 0f 1f 84 00 	data16 cs nopw 0x0(%rax,%rax,1)
   140001f6c:	00 00 00 00 

0000000140001f70 <write_save_file_path>:
   140001f70:	41 57                	push   %r15
   140001f72:	41 56                	push   %r14
   140001f74:	41 55                	push   %r13
   140001f76:	41 54                	push   %r12
   140001f78:	55                   	push   %rbp
   140001f79:	57                   	push   %rdi
   140001f7a:	56                   	push   %rsi
   140001f7b:	53                   	push   %rbx
   140001f7c:	48 83 ec 48          	sub    $0x48,%rsp
   140001f80:	48 8d 15 b1 41 04 00 	lea    0x441b1(%rip),%rdx        # 140046138 <.rdata+0xd8>
   140001f87:	e8 94 18 04 00       	call   140043820 <fopen>
   140001f8c:	48 89 c3             	mov    %rax,%rbx
   140001f8f:	48 85 c0             	test   %rax,%rax
   140001f92:	0f 84 30 05 00 00    	je     1400024c8 <write_save_file_path+0x558>
   140001f98:	49 89 c1             	mov    %rax,%r9
   140001f9b:	41 b8 0b 00 00 00    	mov    $0xb,%r8d
   140001fa1:	ba 01 00 00 00       	mov    $0x1,%edx
   140001fa6:	48 8d 0d 8d 41 04 00 	lea    0x4418d(%rip),%rcx        # 14004613a <.rdata+0xda>
   140001fad:	e8 9e 18 04 00       	call   140043850 <fwrite>
   140001fb2:	48 8b 05 37 af 07 00 	mov    0x7af37(%rip),%rax        # 14007cef0 <.refptr.WORLD_ROOM_COUNT>
   140001fb9:	48 8d 15 86 41 04 00 	lea    0x44186(%rip),%rdx        # 140046146 <.rdata+0xe6>
   140001fc0:	48 89 d9             	mov    %rbx,%rcx
   140001fc3:	8b 00                	mov    (%rax),%eax
   140001fc5:	41 89 c0             	mov    %eax,%r8d
   140001fc8:	89 44 24 3c          	mov    %eax,0x3c(%rsp)
   140001fcc:	e8 ff 15 04 00       	call   1400435d0 <fprintf>
   140001fd1:	44 8b 05 64 39 21 00 	mov    0x213964(%rip),%r8d        # 14021593c <g_room>
   140001fd8:	48 8d 15 74 41 04 00 	lea    0x44174(%rip),%rdx        # 140046153 <.rdata+0xf3>
   140001fdf:	48 89 d9             	mov    %rbx,%rcx
   140001fe2:	e8 e9 15 04 00       	call   1400435d0 <fprintf>
   140001fe7:	44 8b 05 4a 39 21 00 	mov    0x21394a(%rip),%r8d        # 140215938 <g_turns>
   140001fee:	48 8d 15 67 41 04 00 	lea    0x44167(%rip),%rdx        # 14004615c <.rdata+0xfc>
   140001ff5:	48 89 d9             	mov    %rbx,%rcx
   140001ff8:	e8 d3 15 04 00       	call   1400435d0 <fprintf>
   140001ffd:	44 8b 05 30 39 21 00 	mov    0x213930(%rip),%r8d        # 140215934 <g_score>
   140002004:	48 8d 15 5b 41 04 00 	lea    0x4415b(%rip),%rdx        # 140046166 <.rdata+0x106>
   14000200b:	48 89 d9             	mov    %rbx,%rcx
   14000200e:	e8 bd 15 04 00       	call   1400435d0 <fprintf>
   140002013:	44 8b 05 16 39 21 00 	mov    0x213916(%rip),%r8d        # 140215930 <g_coins>
   14000201a:	48 8d 15 4f 41 04 00 	lea    0x4414f(%rip),%rdx        # 140046170 <.rdata+0x110>
   140002021:	48 89 d9             	mov    %rbx,%rcx
   140002024:	e8 a7 15 04 00       	call   1400435d0 <fprintf>
   140002029:	44 8b 05 fc 38 21 00 	mov    0x2138fc(%rip),%r8d        # 14021592c <g_health>
   140002030:	48 8d 15 43 41 04 00 	lea    0x44143(%rip),%rdx        # 14004617a <.rdata+0x11a>
   140002037:	48 89 d9             	mov    %rbx,%rcx
   14000203a:	e8 91 15 04 00       	call   1400435d0 <fprintf>
   14000203f:	44 8b 05 e2 38 21 00 	mov    0x2138e2(%rip),%r8d        # 140215928 <g_max_health>
   140002046:	48 8d 15 34 41 04 00 	lea    0x44134(%rip),%rdx        # 140046181 <.rdata+0x121>
   14000204d:	48 89 d9             	mov    %rbx,%rcx
   140002050:	e8 7b 15 04 00       	call   1400435d0 <fprintf>
   140002055:	44 8b 05 c8 38 21 00 	mov    0x2138c8(%rip),%r8d        # 140215924 <g_front_unlocked>
   14000205c:	48 8d 15 28 41 04 00 	lea    0x44128(%rip),%rdx        # 14004618b <.rdata+0x12b>
   140002063:	48 89 d9             	mov    %rbx,%rcx
   140002066:	e8 65 15 04 00       	call   1400435d0 <fprintf>
   14000206b:	44 8b 05 ae 38 21 00 	mov    0x2138ae(%rip),%r8d        # 140215920 <g_shed_unlocked>
   140002072:	48 8d 15 1c 41 04 00 	lea    0x4411c(%rip),%rdx        # 140046195 <.rdata+0x135>
   140002079:	48 89 d9             	mov    %rbx,%rcx
   14000207c:	e8 4f 15 04 00       	call   1400435d0 <fprintf>
   140002081:	44 8b 05 98 13 21 00 	mov    0x211398(%rip),%r8d        # 140213420 <g_verbose_room>
   140002088:	48 8d 15 0f 41 04 00 	lea    0x4410f(%rip),%rdx        # 14004619e <.rdata+0x13e>
   14000208f:	48 89 d9             	mov    %rbx,%rcx
   140002092:	e8 39 15 04 00       	call   1400435d0 <fprintf>
   140002097:	44 8b 05 72 2f 04 00 	mov    0x42f72(%rip),%r8d        # 140045010 <g_craft_proficiency>
   14000209e:	48 8d 15 03 41 04 00 	lea    0x44103(%rip),%rdx        # 1400461a8 <.rdata+0x148>
   1400020a5:	48 89 d9             	mov    %rbx,%rcx
   1400020a8:	e8 23 15 04 00       	call   1400435d0 <fprintf>
   1400020ad:	44 8b 05 cc 37 21 00 	mov    0x2137cc(%rip),%r8d        # 140215880 <g_hist_n>
   1400020b4:	48 8d 15 fb 40 04 00 	lea    0x440fb(%rip),%rdx        # 1400461b6 <.rdata+0x156>
   1400020bb:	48 89 d9             	mov    %rbx,%rcx
   1400020be:	e8 0d 15 04 00       	call   1400435d0 <fprintf>
   1400020c3:	44 8b 1d b6 37 21 00 	mov    0x2137b6(%rip),%r11d        # 140215880 <g_hist_n>
   1400020ca:	45 85 db             	test   %r11d,%r11d
   1400020cd:	7e 30                	jle    1400020ff <write_save_file_path+0x18f>
   1400020cf:	31 f6                	xor    %esi,%esi
   1400020d1:	48 8d 3d c8 37 21 00 	lea    0x2137c8(%rip),%rdi        # 1402158a0 <g_hist>
   1400020d8:	0f 1f 84 00 00 00 00 	nopl   0x0(%rax,%rax,1)
   1400020df:	00 
   1400020e0:	44 8b 04 b7          	mov    (%rdi,%rsi,4),%r8d
   1400020e4:	48 8d 15 d5 40 04 00 	lea    0x440d5(%rip),%rdx        # 1400461c0 <.rdata+0x160>
   1400020eb:	48 89 d9             	mov    %rbx,%rcx
   1400020ee:	48 83 c6 01          	add    $0x1,%rsi
   1400020f2:	e8 d9 14 04 00       	call   1400435d0 <fprintf>
   1400020f7:	39 35 83 37 21 00    	cmp    %esi,0x213783(%rip)        # 140215880 <g_hist_n>
   1400020fd:	7f e1                	jg     1400020e0 <write_save_file_path+0x170>
   1400020ff:	8b 44 24 3c          	mov    0x3c(%rsp),%eax
   140002103:	85 c0                	test   %eax,%eax
   140002105:	0f 8e c1 03 00 00    	jle    1400024cc <write_save_file_path+0x55c>
   14000210b:	48 8d 35 6e 36 21 00 	lea    0x21366e(%rip),%rsi        # 140215780 <g_visited>
   140002112:	48 63 f8             	movslq %eax,%rdi
   140002115:	48 01 f7             	add    %rsi,%rdi
   140002118:	0f 1f 84 00 00 00 00 	nopl   0x0(%rax,%rax,1)
   14000211f:	00 
   140002120:	80 3e 01             	cmpb   $0x1,(%rsi)
   140002123:	b9 30 00 00 00       	mov    $0x30,%ecx
   140002128:	48 89 da             	mov    %rbx,%rdx
   14000212b:	83 d9 ff             	sbb    $0xffffffff,%ecx
   14000212e:	48 83 c6 01          	add    $0x1,%rsi
   140002132:	e8 f1 16 04 00       	call   140043828 <fputc>
   140002137:	48 39 fe             	cmp    %rdi,%rsi
   14000213a:	75 e4                	jne    140002120 <write_save_file_path+0x1b0>
   14000213c:	48 89 da             	mov    %rbx,%rdx
   14000213f:	b9 0a 00 00 00       	mov    $0xa,%ecx
   140002144:	e8 df 16 04 00       	call   140043828 <fputc>
   140002149:	44 8b 05 f0 37 21 00 	mov    0x2137f0(%rip),%r8d        # 140215940 <g_inv_n>
   140002150:	48 8d 15 6d 40 04 00 	lea    0x4406d(%rip),%rdx        # 1400461c4 <.rdata+0x164>
   140002157:	48 89 d9             	mov    %rbx,%rcx
   14000215a:	e8 71 14 04 00       	call   1400435d0 <fprintf>
   14000215f:	44 8b 15 da 37 21 00 	mov    0x2137da(%rip),%r10d        # 140215940 <g_inv_n>
   140002166:	45 85 d2             	test   %r10d,%r10d
   140002169:	0f 8e b4 03 00 00    	jle    140002523 <write_save_file_path+0x5b3>
   14000216f:	48 8d 2d ea 37 21 00 	lea    0x2137ea(%rip),%rbp        # 140215960 <g_inv>
   140002176:	31 ff                	xor    %edi,%edi
   140002178:	48 8d 35 4e 40 04 00 	lea    0x4404e(%rip),%rsi        # 1400461cd <.rdata+0x16d>
   14000217f:	90                   	nop
   140002180:	49 89 e8             	mov    %rbp,%r8
   140002183:	48 89 f2             	mov    %rsi,%rdx
   140002186:	48 89 d9             	mov    %rbx,%rcx
   140002189:	83 c7 01             	add    $0x1,%edi
   14000218c:	e8 3f 14 04 00       	call   1400435d0 <fprintf>
   140002191:	48 83 c5 30          	add    $0x30,%rbp
   140002195:	39 3d a5 37 21 00    	cmp    %edi,0x2137a5(%rip)        # 140215940 <g_inv_n>
   14000219b:	7f e3                	jg     140002180 <write_save_file_path+0x210>
   14000219d:	49 89 d9             	mov    %rbx,%r9
   1400021a0:	41 b8 06 00 00 00    	mov    $0x6,%r8d
   1400021a6:	ba 01 00 00 00       	mov    $0x1,%edx
   1400021ab:	48 8d 0d 1f 40 04 00 	lea    0x4401f(%rip),%rcx        # 1400461d1 <.rdata+0x171>
   1400021b2:	e8 99 16 04 00       	call   140043850 <fwrite>
   1400021b7:	44 8b 4c 24 3c       	mov    0x3c(%rsp),%r9d
   1400021bc:	45 85 c9             	test   %r9d,%r9d
   1400021bf:	0f 8e d5 00 00 00    	jle    14000229a <write_save_file_path+0x32a>
   1400021c5:	48 8d 2d 94 4f 21 00 	lea    0x214f94(%rip),%rbp        # 140217160 <g_hidden_n>
   1400021cc:	48 8d 3d 8d 53 2d 00 	lea    0x2d538d(%rip),%rdi        # 1402d7560 <g_room_item_n>
   1400021d3:	45 31 ed             	xor    %r13d,%r13d
   1400021d6:	45 31 e4             	xor    %r12d,%r12d
   1400021d9:	0f 1f 80 00 00 00 00 	nopl   0x0(%rax)
   1400021e0:	8b 45 00             	mov    0x0(%rbp),%eax
   1400021e3:	45 89 e0             	mov    %r12d,%r8d
   1400021e6:	48 8d 15 eb 3f 04 00 	lea    0x43feb(%rip),%rdx        # 1400461d8 <.rdata+0x178>
   1400021ed:	48 89 d9             	mov    %rbx,%rcx
   1400021f0:	89 44 24 20          	mov    %eax,0x20(%rsp)
   1400021f4:	44 8b 0f             	mov    (%rdi),%r9d
   1400021f7:	e8 d4 13 04 00       	call   1400435d0 <fprintf>
   1400021fc:	44 8b 07             	mov    (%rdi),%r8d
   1400021ff:	45 85 c0             	test   %r8d,%r8d
   140002202:	7e 37                	jle    14000223b <write_save_file_path+0x2cb>
   140002204:	48 8d 05 55 57 2d 00 	lea    0x2d5755(%rip),%rax        # 1402d7960 <g_room_items>
   14000220b:	45 31 f6             	xor    %r14d,%r14d
   14000220e:	4d 8d 7c 05 00       	lea    0x0(%r13,%rax,1),%r15
   140002213:	66 90                	xchg   %ax,%ax
   140002215:	66 66 2e 0f 1f 84 00 	data16 cs nopw 0x0(%rax,%rax,1)
   14000221c:	00 00 00 00 
   140002220:	4d 89 f8             	mov    %r15,%r8
   140002223:	48 89 f2             	mov    %rsi,%rdx
   140002226:	48 89 d9             	mov    %rbx,%rcx
   140002229:	41 83 c6 01          	add    $0x1,%r14d
   14000222d:	e8 9e 13 04 00       	call   1400435d0 <fprintf>
   140002232:	49 83 c7 30          	add    $0x30,%r15
   140002236:	44 39 37             	cmp    %r14d,(%rdi)
   140002239:	7f e5                	jg     140002220 <write_save_file_path+0x2b0>
   14000223b:	8b 4d 00             	mov    0x0(%rbp),%ecx
   14000223e:	85 c9                	test   %ecx,%ecx
   140002240:	7e 3a                	jle    14000227c <write_save_file_path+0x30c>
   140002242:	48 8d 05 17 53 21 00 	lea    0x215317(%rip),%rax        # 140217560 <g_hidden_items>
   140002249:	45 31 ff             	xor    %r15d,%r15d
   14000224c:	4d 8d 74 05 00       	lea    0x0(%r13,%rax,1),%r14
   140002251:	0f 1f 40 00          	nopl   0x0(%rax)
   140002255:	66 66 2e 0f 1f 84 00 	data16 cs nopw 0x0(%rax,%rax,1)
   14000225c:	00 00 00 00 
   140002260:	4d 89 f0             	mov    %r14,%r8
   140002263:	48 89 f2             	mov    %rsi,%rdx
   140002266:	48 89 d9             	mov    %rbx,%rcx
   140002269:	41 83 c7 01          	add    $0x1,%r15d
   14000226d:	e8 5e 13 04 00       	call   1400435d0 <fprintf>
   140002272:	49 83 c6 30          	add    $0x30,%r14
   140002276:	44 39 7d 00          	cmp    %r15d,0x0(%rbp)
   14000227a:	7f e4                	jg     140002260 <write_save_file_path+0x2f0>
   14000227c:	41 83 c4 01          	add    $0x1,%r12d
   140002280:	48 83 c5 04          	add    $0x4,%rbp
   140002284:	48 83 c7 04          	add    $0x4,%rdi
   140002288:	49 81 c5 00 0c 00 00 	add    $0xc00,%r13
   14000228f:	44 39 64 24 3c       	cmp    %r12d,0x3c(%rsp)
   140002294:	0f 85 46 ff ff ff    	jne    1400021e0 <write_save_file_path+0x270>
   14000229a:	44 8b 05 1f 12 21 00 	mov    0x21121f(%rip),%r8d        # 1402134c0 <g_note_n>
   1400022a1:	48 8d 15 3c 3f 04 00 	lea    0x43f3c(%rip),%rdx        # 1400461e4 <.rdata+0x184>
   1400022a8:	48 89 d9             	mov    %rbx,%rcx
   1400022ab:	e8 20 13 04 00       	call   1400435d0 <fprintf>
   1400022b0:	8b 15 0a 12 21 00    	mov    0x21120a(%rip),%edx        # 1402134c0 <g_note_n>
   1400022b6:	85 d2                	test   %edx,%edx
   1400022b8:	7e 36                	jle    1400022f0 <write_save_file_path+0x380>
   1400022ba:	48 8d 2d 1f 12 21 00 	lea    0x21121f(%rip),%rbp        # 1402134e0 <g_notes>
   1400022c1:	31 ff                	xor    %edi,%edi
   1400022c3:	66 90                	xchg   %ax,%ax
   1400022c5:	66 66 2e 0f 1f 84 00 	data16 cs nopw 0x0(%rax,%rax,1)
   1400022cc:	00 00 00 00 
   1400022d0:	49 89 e8             	mov    %rbp,%r8
   1400022d3:	48 89 f2             	mov    %rsi,%rdx
   1400022d6:	48 89 d9             	mov    %rbx,%rcx
   1400022d9:	83 c7 01             	add    $0x1,%edi
   1400022dc:	e8 ef 12 04 00       	call   1400435d0 <fprintf>
   1400022e1:	48 81 c5 c0 00 00 00 	add    $0xc0,%rbp
   1400022e8:	39 3d d2 11 21 00    	cmp    %edi,0x2111d2(%rip)        # 1402134c0 <g_note_n>
   1400022ee:	7f e0                	jg     1400022d0 <write_save_file_path+0x360>
   1400022f0:	41 b8 08 00 00 00    	mov    $0x8,%r8d
   1400022f6:	49 89 d9             	mov    %rbx,%r9
   1400022f9:	ba 01 00 00 00       	mov    $0x1,%edx
   1400022fe:	48 8d 0d e9 3e 04 00 	lea    0x43ee9(%rip),%rcx        # 1400461ee <.rdata+0x18e>
   140002305:	e8 46 15 04 00       	call   140043850 <fwrite>
   14000230a:	80 3d af 32 21 00 00 	cmpb   $0x0,0x2132af(%rip)        # 1402155c0 <g_ready_item>
   140002311:	4c 8d 05 cf 3d 04 00 	lea    0x43dcf(%rip),%r8        # 1400460e7 <.rdata+0x87>
   140002318:	0f 85 96 01 00 00    	jne    1400024b4 <write_save_file_path+0x544>
   14000231e:	48 89 f2             	mov    %rsi,%rdx
   140002321:	48 89 d9             	mov    %rbx,%rcx
   140002324:	48 8d 3d 15 31 21 00 	lea    0x213115(%rip),%rdi        # 140215440 <g_eq_slots>
   14000232b:	e8 a0 12 04 00       	call   1400435d0 <fprintf>
   140002330:	49 89 d9             	mov    %rbx,%r9
   140002333:	41 b8 06 00 00 00    	mov    $0x6,%r8d
   140002339:	ba 01 00 00 00       	mov    $0x1,%edx
   14000233e:	48 8d 0d b2 3e 04 00 	lea    0x43eb2(%rip),%rcx        # 1400461f7 <.rdata+0x197>
   140002345:	4c 8d a7 80 01 00 00 	lea    0x180(%rdi),%r12
   14000234c:	e8 ff 14 04 00       	call   140043850 <fwrite>
   140002351:	48 8d 2d 8f 3d 04 00 	lea    0x43d8f(%rip),%rbp        # 1400460e7 <.rdata+0x87>
   140002358:	0f 1f 84 00 00 00 00 	nopl   0x0(%rax,%rax,1)
   14000235f:	00 
   140002360:	80 3f 00             	cmpb   $0x0,(%rdi)
   140002363:	49 89 e8             	mov    %rbp,%r8
   140002366:	48 89 f2             	mov    %rsi,%rdx
   140002369:	48 89 d9             	mov    %rbx,%rcx
   14000236c:	4c 0f 45 c7          	cmovne %rdi,%r8
   140002370:	48 83 c7 30          	add    $0x30,%rdi
   140002374:	e8 57 12 04 00       	call   1400435d0 <fprintf>
   140002379:	4c 39 e7             	cmp    %r12,%rdi
   14000237c:	75 e2                	jne    140002360 <write_save_file_path+0x3f0>
   14000237e:	e8 ad 35 03 00       	call   140035930 <aet_merchant_count>
   140002383:	49 89 d9             	mov    %rbx,%r9
   140002386:	41 b8 03 00 00 00    	mov    $0x3,%r8d
   14000238c:	ba 01 00 00 00       	mov    $0x1,%edx
   140002391:	89 c5                	mov    %eax,%ebp
   140002393:	48 8d 0d 64 3e 04 00 	lea    0x43e64(%rip),%rcx        # 1400461fe <.rdata+0x19e>
   14000239a:	e8 b1 14 04 00       	call   140043850 <fwrite>
   14000239f:	85 ed                	test   %ebp,%ebp
   1400023a1:	7e 4b                	jle    1400023ee <write_save_file_path+0x47e>
   1400023a3:	b8 20 00 00 00       	mov    $0x20,%eax
   1400023a8:	4c 8d 25 91 10 21 00 	lea    0x211091(%rip),%r12        # 140213440 <g_merchant_rep>
   1400023af:	39 c5                	cmp    %eax,%ebp
   1400023b1:	0f 4f e8             	cmovg  %eax,%ebp
   1400023b4:	31 ff                	xor    %edi,%edi
   1400023b6:	66 2e 0f 1f 84 00 00 	cs nopw 0x0(%rax,%rax,1)
   1400023bd:	00 00 00 
   1400023c0:	41 8b 04 bc          	mov    (%r12,%rdi,4),%eax
   1400023c4:	ba dc 00 00 00       	mov    $0xdc,%edx
   1400023c9:	48 89 d9             	mov    %rbx,%rcx
   1400023cc:	39 d0                	cmp    %edx,%eax
   1400023ce:	0f 4f c2             	cmovg  %edx,%eax
   1400023d1:	45 31 c0             	xor    %r8d,%r8d
   1400023d4:	48 8d 15 27 3e 04 00 	lea    0x43e27(%rip),%rdx        # 140046202 <.rdata+0x1a2>
   1400023db:	85 c0                	test   %eax,%eax
   1400023dd:	44 0f 49 c0          	cmovns %eax,%r8d
   1400023e1:	48 83 c7 01          	add    $0x1,%rdi
   1400023e5:	e8 e6 11 04 00       	call   1400435d0 <fprintf>
   1400023ea:	39 fd                	cmp    %edi,%ebp
   1400023ec:	7f d2                	jg     1400023c0 <write_save_file_path+0x450>
   1400023ee:	48 89 da             	mov    %rbx,%rdx
   1400023f1:	b9 0a 00 00 00       	mov    $0xa,%ecx
   1400023f6:	e8 2d 14 04 00       	call   140043828 <fputc>
   1400023fb:	48 89 d9             	mov    %rbx,%rcx
   1400023fe:	e8 2d 49 03 00       	call   140036d30 <pc_write_save>
   140002403:	41 b8 06 00 00 00    	mov    $0x6,%r8d
   140002409:	49 89 d9             	mov    %rbx,%r9
   14000240c:	ba 01 00 00 00       	mov    $0x1,%edx
   140002411:	48 8d 0d ee 3d 04 00 	lea    0x43dee(%rip),%rcx        # 140046206 <.rdata+0x1a6>
   140002418:	e8 33 14 04 00       	call   140043850 <fwrite>
   14000241d:	80 3d 1c 33 21 00 00 	cmpb   $0x0,0x21331c(%rip)        # 140215740 <g_last_focus>
   140002424:	4c 8d 05 bc 3c 04 00 	lea    0x43cbc(%rip),%r8        # 1400460e7 <.rdata+0x87>
   14000242b:	74 07                	je     140002434 <write_save_file_path+0x4c4>
   14000242d:	4c 8d 05 0c 33 21 00 	lea    0x21330c(%rip),%r8        # 140215740 <g_last_focus>
   140002434:	48 89 f2             	mov    %rsi,%rdx
   140002437:	48 89 d9             	mov    %rbx,%rcx
   14000243a:	e8 91 11 04 00       	call   1400435d0 <fprintf>
   14000243f:	41 b8 06 00 00 00    	mov    $0x6,%r8d
   140002445:	49 89 d9             	mov    %rbx,%r9
   140002448:	ba 01 00 00 00       	mov    $0x1,%edx
   14000244d:	48 8d 0d b9 3d 04 00 	lea    0x43db9(%rip),%rcx        # 14004620d <.rdata+0x1ad>
   140002454:	e8 f7 13 04 00       	call   140043850 <fwrite>
   140002459:	80 3d a0 31 21 00 00 	cmpb   $0x0,0x2131a0(%rip)        # 140215600 <g_last_topic>
   140002460:	4c 8d 05 80 3c 04 00 	lea    0x43c80(%rip),%r8        # 1400460e7 <.rdata+0x87>
   140002467:	74 07                	je     140002470 <write_save_file_path+0x500>
   140002469:	4c 8d 05 90 31 21 00 	lea    0x213190(%rip),%r8        # 140215600 <g_last_topic>
   140002470:	48 89 d9             	mov    %rbx,%rcx
   140002473:	48 89 f2             	mov    %rsi,%rdx
   140002476:	e8 55 11 04 00       	call   1400435d0 <fprintf>
   14000247b:	48 89 d9             	mov    %rbx,%rcx
   14000247e:	e8 8d 13 04 00       	call   140043810 <fflush>
   140002483:	85 c0                	test   %eax,%eax
   140002485:	75 39                	jne    1400024c0 <write_save_file_path+0x550>
   140002487:	48 89 d9             	mov    %rbx,%rcx
   14000248a:	e8 79 13 04 00       	call   140043808 <ferror>
   14000248f:	85 c0                	test   %eax,%eax
   140002491:	75 2d                	jne    1400024c0 <write_save_file_path+0x550>
   140002493:	48 89 d9             	mov    %rbx,%rcx
   140002496:	e8 65 13 04 00       	call   140043800 <fclose>
   14000249b:	85 c0                	test   %eax,%eax
   14000249d:	0f 94 c0             	sete   %al
   1400024a0:	0f b6 c0             	movzbl %al,%eax
   1400024a3:	48 83 c4 48          	add    $0x48,%rsp
   1400024a7:	5b                   	pop    %rbx
   1400024a8:	5e                   	pop    %rsi
   1400024a9:	5f                   	pop    %rdi
   1400024aa:	5d                   	pop    %rbp
   1400024ab:	41 5c                	pop    %r12
   1400024ad:	41 5d                	pop    %r13
   1400024af:	41 5e                	pop    %r14
   1400024b1:	41 5f                	pop    %r15
   1400024b3:	c3                   	ret
   1400024b4:	4c 8d 05 05 31 21 00 	lea    0x213105(%rip),%r8        # 1402155c0 <g_ready_item>
   1400024bb:	e9 5e fe ff ff       	jmp    14000231e <write_save_file_path+0x3ae>
   1400024c0:	48 89 d9             	mov    %rbx,%rcx
   1400024c3:	e8 38 13 04 00       	call   140043800 <fclose>
   1400024c8:	31 c0                	xor    %eax,%eax
   1400024ca:	eb d7                	jmp    1400024a3 <write_save_file_path+0x533>
   1400024cc:	48 89 da             	mov    %rbx,%rdx
   1400024cf:	b9 0a 00 00 00       	mov    $0xa,%ecx
   1400024d4:	e8 4f 13 04 00       	call   140043828 <fputc>
   1400024d9:	44 8b 05 60 34 21 00 	mov    0x213460(%rip),%r8d        # 140215940 <g_inv_n>
   1400024e0:	48 8d 15 dd 3c 04 00 	lea    0x43cdd(%rip),%rdx        # 1400461c4 <.rdata+0x164>
   1400024e7:	48 89 d9             	mov    %rbx,%rcx
   1400024ea:	e8 e1 10 04 00       	call   1400435d0 <fprintf>
   1400024ef:	8b 05 4b 34 21 00    	mov    0x21344b(%rip),%eax        # 140215940 <g_inv_n>
   1400024f5:	85 c0                	test   %eax,%eax
   1400024f7:	0f 8f 72 fc ff ff    	jg     14000216f <write_save_file_path+0x1ff>
   1400024fd:	49 89 d9             	mov    %rbx,%r9
   140002500:	41 b8 06 00 00 00    	mov    $0x6,%r8d
   140002506:	ba 01 00 00 00       	mov    $0x1,%edx
   14000250b:	48 8d 0d bf 3c 04 00 	lea    0x43cbf(%rip),%rcx        # 1400461d1 <.rdata+0x171>
   140002512:	48 8d 35 b4 3c 04 00 	lea    0x43cb4(%rip),%rsi        # 1400461cd <.rdata+0x16d>
   140002519:	e8 32 13 04 00       	call   140043850 <fwrite>
   14000251e:	e9 77 fd ff ff       	jmp    14000229a <write_save_file_path+0x32a>
   140002523:	49 89 d9             	mov    %rbx,%r9
   140002526:	41 b8 06 00 00 00    	mov    $0x6,%r8d
   14000252c:	ba 01 00 00 00       	mov    $0x1,%edx
   140002531:	48 8d 0d 99 3c 04 00 	lea    0x43c99(%rip),%rcx        # 1400461d1 <.rdata+0x171>
   140002538:	48 8d 35 8e 3c 04 00 	lea    0x43c8e(%rip),%rsi        # 1400461cd <.rdata+0x16d>
   14000253f:	e8 0c 13 04 00       	call   140043850 <fwrite>
   140002544:	e9 7c fc ff ff       	jmp    1400021c5 <write_save_file_path+0x255>
   140002549:	0f 1f 80 00 00 00 00 	nopl   0x0(%rax)

0000000140002550 <notes_add_line>:
   140002550:	57                   	push   %rdi
   140002551:	56                   	push   %rsi
   140002552:	53                   	push   %rbx
   140002553:	48 83 ec 20          	sub    $0x20,%rsp
   140002557:	8b 1d 63 0f 21 00    	mov    0x210f63(%rip),%ebx        # 1402134c0 <g_note_n>
   14000255d:	31 c0                	xor    %eax,%eax
   14000255f:	48 89 ce             	mov    %rcx,%rsi
   140002562:	83 fb 1f             	cmp    $0x1f,%ebx
   140002565:	7e 0d                	jle    140002574 <notes_add_line+0x24>
   140002567:	e9 a8 00 00 00       	jmp    140002614 <notes_add_line+0xc4>
   14000256c:	0f 1f 40 00          	nopl   0x0(%rax)
   140002570:	48 83 c6 01          	add    $0x1,%rsi
   140002574:	80 3e 20             	cmpb   $0x20,(%rsi)
   140002577:	74 f7                	je     140002570 <notes_add_line+0x20>
   140002579:	41 b8 04 00 00 00    	mov    $0x4,%r8d
   14000257f:	48 8d 15 8e 3c 04 00 	lea    0x43c8e(%rip),%rdx        # 140046214 <.rdata+0x1b4>
   140002586:	48 89 f1             	mov    %rsi,%rcx
   140002589:	e8 0a 12 04 00       	call   140043798 <strncmp>
   14000258e:	85 c0                	test   %eax,%eax
   140002590:	0f 85 8a 00 00 00    	jne    140002620 <notes_add_line+0xd0>
   140002596:	48 83 c6 04          	add    $0x4,%rsi
   14000259a:	48 89 f1             	mov    %rsi,%rcx
   14000259d:	e8 e6 11 04 00       	call   140043788 <strlen>
   1400025a2:	ba bf 00 00 00       	mov    $0xbf,%edx
   1400025a7:	4c 63 d3             	movslq %ebx,%r10
   1400025aa:	4c 8d 0d 2f 0f 21 00 	lea    0x210f2f(%rip),%r9        # 1402134e0 <g_notes>
   1400025b1:	4c 8d 40 04          	lea    0x4(%rax),%r8
   1400025b5:	49 81 f8 bf 00 00 00 	cmp    $0xbf,%r8
   1400025bc:	4c 0f 47 c2          	cmova  %rdx,%r8
   1400025c0:	ba bb 00 00 00       	mov    $0xbb,%edx
   1400025c5:	48 0f 46 d0          	cmovbe %rax,%rdx
   1400025c9:	4b 8d 04 52          	lea    (%r10,%r10,2),%rax
   1400025cd:	48 c1 e0 06          	shl    $0x6,%rax
   1400025d1:	4c 01 c8             	add    %r9,%rax
   1400025d4:	89 d1                	mov    %edx,%ecx
   1400025d6:	c7 00 5b 20 5d 20    	movl   $0x205d205b,(%rax)
   1400025dc:	4c 8d 58 04          	lea    0x4(%rax),%r11
   1400025e0:	83 fa 08             	cmp    $0x8,%edx
   1400025e3:	73 63                	jae    140002648 <notes_add_line+0xf8>
   1400025e5:	f6 c2 04             	test   $0x4,%dl
   1400025e8:	0f 85 b3 00 00 00    	jne    1400026a1 <notes_add_line+0x151>
   1400025ee:	85 d2                	test   %edx,%edx
   1400025f0:	0f 85 8a 00 00 00    	jne    140002680 <notes_add_line+0x130>
   1400025f6:	4b 8d 04 52          	lea    (%r10,%r10,2),%rax
   1400025fa:	83 c3 01             	add    $0x1,%ebx
   1400025fd:	48 c1 e0 06          	shl    $0x6,%rax
   140002601:	89 1d b9 0e 21 00    	mov    %ebx,0x210eb9(%rip)        # 1402134c0 <g_note_n>
   140002607:	49 01 c1             	add    %rax,%r9
   14000260a:	b8 01 00 00 00       	mov    $0x1,%eax
   14000260f:	43 c6 04 01 00       	movb   $0x0,(%r9,%r8,1)
   140002614:	48 83 c4 20          	add    $0x20,%rsp
   140002618:	5b                   	pop    %rbx
   140002619:	5e                   	pop    %rsi
   14000261a:	5f                   	pop    %rdi
   14000261b:	c3                   	ret
   14000261c:	0f 1f 40 00          	nopl   0x0(%rax)
   140002620:	41 b8 04 00 00 00    	mov    $0x4,%r8d
   140002626:	48 8d 15 ec 3b 04 00 	lea    0x43bec(%rip),%rdx        # 140046219 <.rdata+0x1b9>
   14000262d:	48 89 f1             	mov    %rsi,%rcx
   140002630:	e8 63 11 04 00       	call   140043798 <strncmp>
   140002635:	85 c0                	test   %eax,%eax
   140002637:	0f 85 5d ff ff ff    	jne    14000259a <notes_add_line+0x4a>
   14000263d:	e9 54 ff ff ff       	jmp    140002596 <notes_add_line+0x46>
   140002642:	66 0f 1f 44 00 00    	nopw   0x0(%rax,%rax,1)
   140002648:	48 8b 0e             	mov    (%rsi),%rcx
   14000264b:	48 83 c0 0c          	add    $0xc,%rax
   14000264f:	48 89 48 f8          	mov    %rcx,-0x8(%rax)
   140002653:	89 d1                	mov    %edx,%ecx
   140002655:	48 83 e0 f8          	and    $0xfffffffffffffff8,%rax
   140002659:	48 8b 7c 0e f8       	mov    -0x8(%rsi,%rcx,1),%rdi
   14000265e:	49 89 7c 0b f8       	mov    %rdi,-0x8(%r11,%rcx,1)
   140002663:	49 29 c3             	sub    %rax,%r11
   140002666:	48 89 c7             	mov    %rax,%rdi
   140002669:	42 8d 0c 1a          	lea    (%rdx,%r11,1),%ecx
   14000266d:	4c 29 de             	sub    %r11,%rsi
   140002670:	c1 e9 03             	shr    $0x3,%ecx
   140002673:	f3 48 a5             	rep movsq (%rsi),(%rdi)
   140002676:	e9 7b ff ff ff       	jmp    1400025f6 <notes_add_line+0xa6>
   14000267b:	0f 1f 44 00 00       	nopl   0x0(%rax,%rax,1)
   140002680:	0f b6 0e             	movzbl (%rsi),%ecx
   140002683:	88 48 04             	mov    %cl,0x4(%rax)
   140002686:	f6 c2 02             	test   $0x2,%dl
   140002689:	0f 84 67 ff ff ff    	je     1400025f6 <notes_add_line+0xa6>
   14000268f:	89 d2                	mov    %edx,%edx
   140002691:	0f b7 44 16 fe       	movzwl -0x2(%rsi,%rdx,1),%eax
   140002696:	66 41 89 44 13 fe    	mov    %ax,-0x2(%r11,%rdx,1)
   14000269c:	e9 55 ff ff ff       	jmp    1400025f6 <notes_add_line+0xa6>
   1400026a1:	8b 16                	mov    (%rsi),%edx
   1400026a3:	89 50 04             	mov    %edx,0x4(%rax)
   1400026a6:	8b 44 0e fc          	mov    -0x4(%rsi,%rcx,1),%eax
   1400026aa:	41 89 44 0b fc       	mov    %eax,-0x4(%r11,%rcx,1)
   1400026af:	e9 42 ff ff ff       	jmp    1400025f6 <notes_add_line+0xa6>
   1400026b4:	90                   	nop
   1400026b5:	66 66 2e 0f 1f 84 00 	data16 cs nopw 0x0(%rax,%rax,1)
   1400026bc:	00 00 00 00 

00000001400026c0 <parse_save_slot>:
   1400026c0:	53                   	push   %rbx
   1400026c1:	48 83 ec 40          	sub    $0x40,%rsp
   1400026c5:	48 89 54 24 58       	mov    %rdx,0x58(%rsp)
   1400026ca:	48 89 cb             	mov    %rcx,%rbx
   1400026cd:	48 c7 44 24 38 00 00 	movq   $0x0,0x38(%rsp)
   1400026d4:	00 00 
   1400026d6:	80 39 20             	cmpb   $0x20,(%rcx)
   1400026d9:	75 0e                	jne    1400026e9 <parse_save_slot+0x29>
   1400026db:	0f 1f 44 00 00       	nopl   0x0(%rax,%rax,1)
   1400026e0:	48 83 c3 01          	add    $0x1,%rbx
   1400026e4:	80 3b 20             	cmpb   $0x20,(%rbx)
   1400026e7:	74 f7                	je     1400026e0 <parse_save_slot+0x20>
   1400026e9:	41 b8 05 00 00 00    	mov    $0x5,%r8d
   1400026ef:	48 8d 15 28 3b 04 00 	lea    0x43b28(%rip),%rdx        # 14004621e <.rdata+0x1be>
   1400026f6:	48 89 d9             	mov    %rbx,%rcx
   1400026f9:	e8 9a 10 04 00       	call   140043798 <strncmp>
   1400026fe:	85 c0                	test   %eax,%eax
   140002700:	75 2e                	jne    140002730 <parse_save_slot+0x70>
   140002702:	0f b6 43 05          	movzbl 0x5(%rbx),%eax
   140002706:	48 8d 4b 05          	lea    0x5(%rbx),%rcx
   14000270a:	3c 20                	cmp    $0x20,%al
   14000270c:	75 0e                	jne    14000271c <parse_save_slot+0x5c>
   14000270e:	66 90                	xchg   %ax,%ax
   140002710:	0f b6 41 01          	movzbl 0x1(%rcx),%eax
   140002714:	48 83 c1 01          	add    $0x1,%rcx
   140002718:	3c 20                	cmp    $0x20,%al
   14000271a:	74 f4                	je     140002710 <parse_save_slot+0x50>
   14000271c:	84 c0                	test   %al,%al
   14000271e:	75 1a                	jne    14000273a <parse_save_slot+0x7a>
   140002720:	31 c0                	xor    %eax,%eax
   140002722:	48 83 c4 40          	add    $0x40,%rsp
   140002726:	5b                   	pop    %rbx
   140002727:	c3                   	ret
   140002728:	0f 1f 84 00 00 00 00 	nopl   0x0(%rax,%rax,1)
   14000272f:	00 
   140002730:	0f b6 03             	movzbl (%rbx),%eax
   140002733:	48 89 d9             	mov    %rbx,%rcx
   140002736:	84 c0                	test   %al,%al
   140002738:	74 e6                	je     140002720 <parse_save_slot+0x60>
   14000273a:	41 b8 0a 00 00 00    	mov    $0xa,%r8d
   140002740:	48 8d 54 24 38       	lea    0x38(%rsp),%rdx
   140002745:	48 89 4c 24 28       	mov    %rcx,0x28(%rsp)
   14000274a:	e8 59 12 04 00       	call   1400439a8 <strtol>
   14000274f:	4c 8b 44 24 38       	mov    0x38(%rsp),%r8
   140002754:	41 89 c1             	mov    %eax,%r9d
   140002757:	4d 85 c0             	test   %r8,%r8
   14000275a:	74 c4                	je     140002720 <parse_save_slot+0x60>
   14000275c:	41 0f b6 10          	movzbl (%r8),%edx
   140002760:	48 8b 4c 24 28       	mov    0x28(%rsp),%rcx
   140002765:	80 fa 20             	cmp    $0x20,%dl
   140002768:	75 2a                	jne    140002794 <parse_save_slot+0xd4>
   14000276a:	49 8d 40 01          	lea    0x1(%r8),%rax
   14000276e:	0f 1f 80 00 00 00 00 	nopl   0x0(%rax)
   140002775:	66 66 2e 0f 1f 84 00 	data16 cs nopw 0x0(%rax,%rax,1)
   14000277c:	00 00 00 00 
   140002780:	48 89 44 24 38       	mov    %rax,0x38(%rsp)
   140002785:	49 89 c0             	mov    %rax,%r8
   140002788:	0f b6 10             	movzbl (%rax),%edx
   14000278b:	48 83 c0 01          	add    $0x1,%rax
   14000278f:	80 fa 20             	cmp    $0x20,%dl
   140002792:	74 ec                	je     140002780 <parse_save_slot+0xc0>
   140002794:	49 39 c8             	cmp    %rcx,%r8
   140002797:	74 87                	je     140002720 <parse_save_slot+0x60>
   140002799:	84 d2                	test   %dl,%dl
   14000279b:	75 83                	jne    140002720 <parse_save_slot+0x60>
   14000279d:	41 8d 41 ff          	lea    -0x1(%r9),%eax
   1400027a1:	83 f8 09             	cmp    $0x9,%eax
   1400027a4:	0f 87 76 ff ff ff    	ja     140002720 <parse_save_slot+0x60>
   1400027aa:	48 8b 44 24 58       	mov    0x58(%rsp),%rax
   1400027af:	44 89 08             	mov    %r9d,(%rax)
   1400027b2:	b8 01 00 00 00       	mov    $0x1,%eax
   1400027b7:	48 83 c4 40          	add    $0x40,%rsp
   1400027bb:	5b                   	pop    %rbx
   1400027bc:	c3                   	ret
   1400027bd:	0f 1f 00             	nopl   (%rax)

00000001400027c0 <remember_npc_here>:
   1400027c0:	48 83 ec 38          	sub    $0x38,%rsp
   1400027c4:	8b 0d 72 31 21 00    	mov    0x213172(%rip),%ecx        # 14021593c <g_room>
   1400027ca:	e8 d1 32 03 00       	call   140035aa0 <world_room_entity>
   1400027cf:	48 85 c0             	test   %rax,%rax
   1400027d2:	74 05                	je     1400027d9 <remember_npc_here+0x19>
   1400027d4:	80 38 00             	cmpb   $0x0,(%rax)
   1400027d7:	75 07                	jne    1400027e0 <remember_npc_here+0x20>
   1400027d9:	48 83 c4 38          	add    $0x38,%rsp
   1400027dd:	c3                   	ret
   1400027de:	66 90                	xchg   %ax,%ax
   1400027e0:	48 89 c1             	mov    %rax,%rcx
   1400027e3:	48 89 44 24 28       	mov    %rax,0x28(%rsp)
   1400027e8:	e8 9b 0f 04 00       	call   140043788 <strlen>
   1400027ed:	b9 2f 00 00 00       	mov    $0x2f,%ecx
   1400027f2:	48 8b 54 24 28       	mov    0x28(%rsp),%rdx
   1400027f7:	4c 8d 05 02 2f 21 00 	lea    0x212f02(%rip),%r8        # 140215700 <g_last_npc>
   1400027fe:	48 39 c8             	cmp    %rcx,%rax
   140002801:	4d 89 c1             	mov    %r8,%r9
   140002804:	48 0f 47 c1          	cmova  %rcx,%rax
   140002808:	48 89 d1             	mov    %rdx,%rcx
   14000280b:	83 f8 08             	cmp    $0x8,%eax
   14000280e:	73 60                	jae    140002870 <remember_npc_here+0xb0>
   140002810:	31 d2                	xor    %edx,%edx
   140002812:	a8 04                	test   $0x4,%al
   140002814:	75 42                	jne    140002858 <remember_npc_here+0x98>
   140002816:	a8 02                	test   $0x2,%al
   140002818:	75 26                	jne    140002840 <remember_npc_here+0x80>
   14000281a:	a8 01                	test   $0x1,%al
   14000281c:	75 12                	jne    140002830 <remember_npc_here+0x70>
   14000281e:	41 c6 04 00 00       	movb   $0x0,(%r8,%rax,1)
   140002823:	48 83 c4 38          	add    $0x38,%rsp
   140002827:	c3                   	ret
   140002828:	0f 1f 84 00 00 00 00 	nopl   0x0(%rax,%rax,1)
   14000282f:	00 
   140002830:	0f b6 0c 11          	movzbl (%rcx,%rdx,1),%ecx
   140002834:	41 88 0c 11          	mov    %cl,(%r9,%rdx,1)
   140002838:	41 c6 04 00 00       	movb   $0x0,(%r8,%rax,1)
   14000283d:	eb e4                	jmp    140002823 <remember_npc_here+0x63>
   14000283f:	90                   	nop
   140002840:	44 0f b7 14 11       	movzwl (%rcx,%rdx,1),%r10d
   140002845:	66 45 89 14 11       	mov    %r10w,(%r9,%rdx,1)
   14000284a:	48 83 c2 02          	add    $0x2,%rdx
   14000284e:	a8 01                	test   $0x1,%al
   140002850:	74 cc                	je     14000281e <remember_npc_here+0x5e>
   140002852:	eb dc                	jmp    140002830 <remember_npc_here+0x70>
   140002854:	0f 1f 40 00          	nopl   0x0(%rax)
   140002858:	8b 11                	mov    (%rcx),%edx
   14000285a:	41 89 11             	mov    %edx,(%r9)
   14000285d:	ba 04 00 00 00       	mov    $0x4,%edx
   140002862:	a8 02                	test   $0x2,%al
   140002864:	74 b4                	je     14000281a <remember_npc_here+0x5a>
   140002866:	eb d8                	jmp    140002840 <remember_npc_here+0x80>
   140002868:	0f 1f 84 00 00 00 00 	nopl   0x0(%rax,%rax,1)
   14000286f:	00 
   140002870:	41 89 c2             	mov    %eax,%r10d
   140002873:	31 c9                	xor    %ecx,%ecx
   140002875:	41 83 e2 f8          	and    $0xfffffff8,%r10d
   140002879:	41 89 c9             	mov    %ecx,%r9d
   14000287c:	83 c1 08             	add    $0x8,%ecx
   14000287f:	4e 8b 1c 0a          	mov    (%rdx,%r9,1),%r11
   140002883:	4f 89 1c 08          	mov    %r11,(%r8,%r9,1)
   140002887:	44 39 d1             	cmp    %r10d,%ecx
   14000288a:	72 ed                	jb     140002879 <remember_npc_here+0xb9>
   14000288c:	4d 8d 0c 08          	lea    (%r8,%rcx,1),%r9
   140002890:	48 01 d1             	add    %rdx,%rcx
   140002893:	e9 78 ff ff ff       	jmp    140002810 <remember_npc_here+0x50>
   140002898:	0f 1f 84 00 00 00 00 	nopl   0x0(%rax,%rax,1)
   14000289f:	00 

00000001400028a0 <count_adjacent_npcs>:
   1400028a0:	56                   	push   %rsi
   1400028a1:	53                   	push   %rbx
   1400028a2:	48 83 ec 28          	sub    $0x28,%rsp
   1400028a6:	31 f6                	xor    %esi,%esi
   1400028a8:	31 db                	xor    %ebx,%ebx
   1400028aa:	66 0f 1f 44 00 00    	nopw   0x0(%rax,%rax,1)
   1400028b0:	8b 0d 86 30 21 00    	mov    0x213086(%rip),%ecx        # 14021593c <g_room>
   1400028b6:	89 da                	mov    %ebx,%edx
   1400028b8:	e8 03 32 03 00       	call   140035ac0 <world_exit>
   1400028bd:	0f bf c8             	movswl %ax,%ecx
   1400028c0:	85 c9                	test   %ecx,%ecx
   1400028c2:	78 10                	js     1400028d4 <count_adjacent_npcs+0x34>
   1400028c4:	e8 d7 31 03 00       	call   140035aa0 <world_room_entity>
   1400028c9:	48 85 c0             	test   %rax,%rax
   1400028cc:	74 06                	je     1400028d4 <count_adjacent_npcs+0x34>
   1400028ce:	80 38 01             	cmpb   $0x1,(%rax)
   1400028d1:	83 de ff             	sbb    $0xffffffff,%esi
   1400028d4:	83 c3 01             	add    $0x1,%ebx
   1400028d7:	83 fb 13             	cmp    $0x13,%ebx
   1400028da:	75 d4                	jne    1400028b0 <count_adjacent_npcs+0x10>
   1400028dc:	89 f0                	mov    %esi,%eax
   1400028de:	48 83 c4 28          	add    $0x28,%rsp
   1400028e2:	5b                   	pop    %rbx
   1400028e3:	5e                   	pop    %rsi
   1400028e4:	c3                   	ret
   1400028e5:	66 66 2e 0f 1f 84 00 	data16 cs nopw 0x0(%rax,%rax,1)
   1400028ec:	00 00 00 00 

00000001400028f0 <exit_dir_from_to>:
   1400028f0:	57                   	push   %rdi
   1400028f1:	56                   	push   %rsi
   1400028f2:	53                   	push   %rbx
   1400028f3:	48 83 ec 20          	sub    $0x20,%rsp
   1400028f7:	89 c8                	mov    %ecx,%eax
   1400028f9:	89 ce                	mov    %ecx,%esi
   1400028fb:	89 d7                	mov    %edx,%edi
   1400028fd:	09 d0                	or     %edx,%eax
   1400028ff:	78 3f                	js     140002940 <exit_dir_from_to+0x50>
   140002901:	39 d1                	cmp    %edx,%ecx
   140002903:	89 d0                	mov    %edx,%eax
   140002905:	48 8b 15 e4 a5 07 00 	mov    0x7a5e4(%rip),%rdx        # 14007cef0 <.refptr.WORLD_ROOM_COUNT>
   14000290c:	0f 4d c1             	cmovge %ecx,%eax
   14000290f:	39 02                	cmp    %eax,(%rdx)
   140002911:	7e 2d                	jle    140002940 <exit_dir_from_to+0x50>
   140002913:	31 db                	xor    %ebx,%ebx
   140002915:	eb 11                	jmp    140002928 <exit_dir_from_to+0x38>
   140002917:	66 0f 1f 84 00 00 00 	nopw   0x0(%rax,%rax,1)
   14000291e:	00 00 
   140002920:	83 c3 01             	add    $0x1,%ebx
   140002923:	83 fb 13             	cmp    $0x13,%ebx
   140002926:	74 18                	je     140002940 <exit_dir_from_to+0x50>
   140002928:	89 da                	mov    %ebx,%edx
   14000292a:	89 f1                	mov    %esi,%ecx
   14000292c:	e8 8f 31 03 00       	call   140035ac0 <world_exit>
   140002931:	98                   	cwtl
   140002932:	39 f8                	cmp    %edi,%eax
   140002934:	75 ea                	jne    140002920 <exit_dir_from_to+0x30>
   140002936:	89 d8                	mov    %ebx,%eax
   140002938:	48 83 c4 20          	add    $0x20,%rsp
   14000293c:	5b                   	pop    %rbx
   14000293d:	5e                   	pop    %rsi
   14000293e:	5f                   	pop    %rdi
   14000293f:	c3                   	ret
   140002940:	bb ff ff ff ff       	mov    $0xffffffff,%ebx
   140002945:	89 d8                	mov    %ebx,%eax
   140002947:	48 83 c4 20          	add    $0x20,%rsp
   14000294b:	5b                   	pop    %rbx
   14000294c:	5e                   	pop    %rsi
   14000294d:	5f                   	pop    %rdi
   14000294e:	c3                   	ret
   14000294f:	90                   	nop

0000000140002950 <resolve_world_title>:
   140002950:	48 83 ec 38          	sub    $0x38,%rsp
   140002954:	89 4c 24 2c          	mov    %ecx,0x2c(%rsp)
   140002958:	e8 33 08 03 00       	call   140033190 <aet_mods_room_title>
   14000295d:	8b 4c 24 2c          	mov    0x2c(%rsp),%ecx
   140002961:	48 85 c0             	test   %rax,%rax
   140002964:	74 05                	je     14000296b <resolve_world_title+0x1b>
   140002966:	80 38 00             	cmpb   $0x0,(%rax)
   140002969:	75 0d                	jne    140002978 <resolve_world_title+0x28>
   14000296b:	48 83 c4 38          	add    $0x38,%rsp
   14000296f:	e9 ac 30 03 00       	jmp    140035a20 <world_title>
   140002974:	0f 1f 40 00          	nopl   0x0(%rax)
   140002978:	48 83 c4 38          	add    $0x38,%rsp
   14000297c:	c3                   	ret
   14000297d:	0f 1f 00             	nopl   (%rax)

0000000140002980 <strip_natural_prefixes>:
   140002980:	57                   	push   %rdi
   140002981:	56                   	push   %rsi
   140002982:	53                   	push   %rbx
   140002983:	48 83 ec 20          	sub    $0x20,%rsp
   140002987:	bf 0a 00 00 00       	mov    $0xa,%edi
   14000298c:	48 89 cb             	mov    %rcx,%rbx
   14000298f:	eb 20                	jmp    1400029b1 <strip_natural_prefixes+0x31>
   140002991:	0f 1f 80 00 00 00 00 	nopl   0x0(%rax)
   140002998:	48 8d 4b 01          	lea    0x1(%rbx),%rcx
   14000299c:	e8 e7 0d 04 00       	call   140043788 <strlen>
   1400029a1:	48 8d 53 01          	lea    0x1(%rbx),%rdx
   1400029a5:	48 89 d9             	mov    %rbx,%rcx
   1400029a8:	4c 8d 40 01          	lea    0x1(%rax),%r8
   1400029ac:	e8 5f 0f 04 00       	call   140043910 <memmove>
   1400029b1:	80 3b 20             	cmpb   $0x20,(%rbx)
   1400029b4:	74 e2                	je     140002998 <strip_natural_prefixes+0x18>
   1400029b6:	41 b8 10 00 00 00    	mov    $0x10,%r8d
   1400029bc:	48 8d 15 61 38 04 00 	lea    0x43861(%rip),%rdx        # 140046224 <.rdata+0x1c4>
   1400029c3:	48 89 d9             	mov    %rbx,%rcx
   1400029c6:	e8 cd 0d 04 00       	call   140043798 <strncmp>
   1400029cb:	85 c0                	test   %eax,%eax
   1400029cd:	0f 84 75 02 00 00    	je     140002c48 <strip_natural_prefixes+0x2c8>
   1400029d3:	41 b8 0c 00 00 00    	mov    $0xc,%r8d
   1400029d9:	48 8d 15 55 38 04 00 	lea    0x43855(%rip),%rdx        # 140046235 <.rdata+0x1d5>
   1400029e0:	48 89 d9             	mov    %rbx,%rcx
   1400029e3:	e8 b0 0d 04 00       	call   140043798 <strncmp>
   1400029e8:	85 c0                	test   %eax,%eax
   1400029ea:	0f 84 98 02 00 00    	je     140002c88 <strip_natural_prefixes+0x308>
   1400029f0:	41 b8 0e 00 00 00    	mov    $0xe,%r8d
   1400029f6:	48 8d 15 45 38 04 00 	lea    0x43845(%rip),%rdx        # 140046242 <.rdata+0x1e2>
   1400029fd:	48 89 d9             	mov    %rbx,%rcx
   140002a00:	e8 93 0d 04 00       	call   140043798 <strncmp>
   140002a05:	85 c0                	test   %eax,%eax
   140002a07:	0f 84 fb 01 00 00    	je     140002c08 <strip_natural_prefixes+0x288>
   140002a0d:	41 b8 0d 00 00 00    	mov    $0xd,%r8d
   140002a13:	48 8d 15 37 38 04 00 	lea    0x43837(%rip),%rdx        # 140046251 <.rdata+0x1f1>
   140002a1a:	48 89 d9             	mov    %rbx,%rcx
   140002a1d:	e8 76 0d 04 00       	call   140043798 <strncmp>
   140002a22:	85 c0                	test   %eax,%eax
   140002a24:	0f 84 7e 02 00 00    	je     140002ca8 <strip_natural_prefixes+0x328>
   140002a2a:	41 b8 0a 00 00 00    	mov    $0xa,%r8d
   140002a30:	48 8d 15 28 38 04 00 	lea    0x43828(%rip),%rdx        # 14004625f <.rdata+0x1ff>
   140002a37:	48 89 d9             	mov    %rbx,%rcx
   140002a3a:	e8 59 0d 04 00       	call   140043798 <strncmp>
   140002a3f:	85 c0                	test   %eax,%eax
   140002a41:	0f 84 21 02 00 00    	je     140002c68 <strip_natural_prefixes+0x2e8>
   140002a47:	41 b8 11 00 00 00    	mov    $0x11,%r8d
   140002a4d:	48 8d 15 16 38 04 00 	lea    0x43816(%rip),%rdx        # 14004626a <.rdata+0x20a>
   140002a54:	48 89 d9             	mov    %rbx,%rcx
   140002a57:	e8 3c 0d 04 00       	call   140043798 <strncmp>
   140002a5c:	85 c0                	test   %eax,%eax
   140002a5e:	0f 84 6c 02 00 00    	je     140002cd0 <strip_natural_prefixes+0x350>
   140002a64:	41 b8 11 00 00 00    	mov    $0x11,%r8d
   140002a6a:	48 8d 15 0b 38 04 00 	lea    0x4380b(%rip),%rdx        # 14004627c <.rdata+0x21c>
   140002a71:	48 89 d9             	mov    %rbx,%rcx
   140002a74:	e8 1f 0d 04 00       	call   140043798 <strncmp>
   140002a79:	85 c0                	test   %eax,%eax
   140002a7b:	0f 84 4f 02 00 00    	je     140002cd0 <strip_natural_prefixes+0x350>
   140002a81:	41 b8 0a 00 00 00    	mov    $0xa,%r8d
   140002a87:	48 8d 15 00 38 04 00 	lea    0x43800(%rip),%rdx        # 14004628e <.rdata+0x22e>
   140002a8e:	48 89 d9             	mov    %rbx,%rcx
   140002a91:	e8 02 0d 04 00       	call   140043798 <strncmp>
   140002a96:	85 c0                	test   %eax,%eax
   140002a98:	0f 84 ca 01 00 00    	je     140002c68 <strip_natural_prefixes+0x2e8>
   140002a9e:	41 b8 0a 00 00 00    	mov    $0xa,%r8d
   140002aa4:	48 8d 15 ee 37 04 00 	lea    0x437ee(%rip),%rdx        # 140046299 <.rdata+0x239>
   140002aab:	48 89 d9             	mov    %rbx,%rcx
   140002aae:	e8 e5 0c 04 00       	call   140043798 <strncmp>
   140002ab3:	85 c0                	test   %eax,%eax
   140002ab5:	0f 84 ad 01 00 00    	je     140002c68 <strip_natural_prefixes+0x2e8>
   140002abb:	41 b8 0f 00 00 00    	mov    $0xf,%r8d
   140002ac1:	48 8d 15 dc 37 04 00 	lea    0x437dc(%rip),%rdx        # 1400462a4 <.rdata+0x244>
   140002ac8:	48 89 d9             	mov    %rbx,%rcx
   140002acb:	e8 c8 0c 04 00       	call   140043798 <strncmp>
   140002ad0:	85 c0                	test   %eax,%eax
   140002ad2:	0f 84 16 02 00 00    	je     140002cee <strip_natural_prefixes+0x36e>
   140002ad8:	41 b8 08 00 00 00    	mov    $0x8,%r8d
   140002ade:	48 8d 15 cf 37 04 00 	lea    0x437cf(%rip),%rdx        # 1400462b4 <.rdata+0x254>
   140002ae5:	48 89 d9             	mov    %rbx,%rcx
   140002ae8:	e8 ab 0c 04 00       	call   140043798 <strncmp>
   140002aed:	85 c0                	test   %eax,%eax
   140002aef:	0f 84 17 02 00 00    	je     140002d0c <strip_natural_prefixes+0x38c>
   140002af5:	41 b8 0d 00 00 00    	mov    $0xd,%r8d
   140002afb:	48 8d 15 bb 37 04 00 	lea    0x437bb(%rip),%rdx        # 1400462bd <.rdata+0x25d>
   140002b02:	48 89 d9             	mov    %rbx,%rcx
   140002b05:	e8 8e 0c 04 00       	call   140043798 <strncmp>
   140002b0a:	85 c0                	test   %eax,%eax
   140002b0c:	0f 84 96 01 00 00    	je     140002ca8 <strip_natural_prefixes+0x328>
   140002b12:	41 b8 06 00 00 00    	mov    $0x6,%r8d
   140002b18:	48 8d 15 ac 37 04 00 	lea    0x437ac(%rip),%rdx        # 1400462cb <.rdata+0x26b>
   140002b1f:	48 89 d9             	mov    %rbx,%rcx
   140002b22:	e8 71 0c 04 00       	call   140043798 <strncmp>
   140002b27:	85 c0                	test   %eax,%eax
   140002b29:	0f 84 19 02 00 00    	je     140002d48 <strip_natural_prefixes+0x3c8>
   140002b2f:	41 b8 0e 00 00 00    	mov    $0xe,%r8d
   140002b35:	48 8d 15 96 37 04 00 	lea    0x43796(%rip),%rdx        # 1400462d2 <.rdata+0x272>
   140002b3c:	48 89 d9             	mov    %rbx,%rcx
   140002b3f:	e8 54 0c 04 00       	call   140043798 <strncmp>
   140002b44:	85 c0                	test   %eax,%eax
   140002b46:	0f 84 bc 00 00 00    	je     140002c08 <strip_natural_prefixes+0x288>
   140002b4c:	41 b8 07 00 00 00    	mov    $0x7,%r8d
   140002b52:	48 8d 15 88 37 04 00 	lea    0x43788(%rip),%rdx        # 1400462e1 <.rdata+0x281>
   140002b59:	48 89 d9             	mov    %rbx,%rcx
   140002b5c:	e8 37 0c 04 00       	call   140043798 <strncmp>
   140002b61:	85 c0                	test   %eax,%eax
   140002b63:	0f 84 c1 01 00 00    	je     140002d2a <strip_natural_prefixes+0x3aa>
   140002b69:	41 b8 07 00 00 00    	mov    $0x7,%r8d
   140002b6f:	48 8d 15 73 37 04 00 	lea    0x43773(%rip),%rdx        # 1400462e9 <.rdata+0x289>
   140002b76:	48 89 d9             	mov    %rbx,%rcx
   140002b79:	e8 1a 0c 04 00       	call   140043798 <strncmp>
   140002b7e:	85 c0                	test   %eax,%eax
   140002b80:	0f 84 a4 01 00 00    	je     140002d2a <strip_natural_prefixes+0x3aa>
   140002b86:	41 b8 0a 00 00 00    	mov    $0xa,%r8d
   140002b8c:	48 8d 15 5e 37 04 00 	lea    0x4375e(%rip),%rdx        # 1400462f1 <.rdata+0x291>
   140002b93:	48 89 d9             	mov    %rbx,%rcx
   140002b96:	e8 fd 0b 04 00       	call   140043798 <strncmp>
   140002b9b:	85 c0                	test   %eax,%eax
   140002b9d:	0f 84 c5 00 00 00    	je     140002c68 <strip_natural_prefixes+0x2e8>
   140002ba3:	41 b8 09 00 00 00    	mov    $0x9,%r8d
   140002ba9:	48 8d 15 4c 37 04 00 	lea    0x4374c(%rip),%rdx        # 1400462fc <.rdata+0x29c>
   140002bb0:	48 89 d9             	mov    %rbx,%rcx
   140002bb3:	e8 e0 0b 04 00       	call   140043798 <strncmp>
   140002bb8:	85 c0                	test   %eax,%eax
   140002bba:	0f 84 a6 01 00 00    	je     140002d66 <strip_natural_prefixes+0x3e6>
   140002bc0:	41 b8 07 00 00 00    	mov    $0x7,%r8d
   140002bc6:	48 8d 15 39 37 04 00 	lea    0x43739(%rip),%rdx        # 140046306 <.rdata+0x2a6>
   140002bcd:	48 89 d9             	mov    %rbx,%rcx
   140002bd0:	e8 c3 0b 04 00       	call   140043798 <strncmp>
   140002bd5:	85 c0                	test   %eax,%eax
   140002bd7:	0f 84 4d 01 00 00    	je     140002d2a <strip_natural_prefixes+0x3aa>
   140002bdd:	41 b8 08 00 00 00    	mov    $0x8,%r8d
   140002be3:	48 8d 15 24 37 04 00 	lea    0x43724(%rip),%rdx        # 14004630e <.rdata+0x2ae>
   140002bea:	48 89 d9             	mov    %rbx,%rcx
   140002bed:	e8 a6 0b 04 00       	call   140043798 <strncmp>
   140002bf2:	85 c0                	test   %eax,%eax
   140002bf4:	0f 84 12 01 00 00    	je     140002d0c <strip_natural_prefixes+0x38c>
   140002bfa:	48 83 c4 20          	add    $0x20,%rsp
   140002bfe:	5b                   	pop    %rbx
   140002bff:	5e                   	pop    %rsi
   140002c00:	5f                   	pop    %rdi
   140002c01:	c3                   	ret
   140002c02:	66 0f 1f 44 00 00    	nopw   0x0(%rax,%rax,1)
   140002c08:	48 8d 4b 0e          	lea    0xe(%rbx),%rcx
   140002c0c:	e8 77 0b 04 00       	call   140043788 <strlen>
   140002c11:	48 8d 53 0e          	lea    0xe(%rbx),%rdx
   140002c15:	48 89 d9             	mov    %rbx,%rcx
   140002c18:	4c 8d 40 01          	lea    0x1(%rax),%r8
   140002c1c:	e8 ef 0c 04 00       	call   140043910 <memmove>
   140002c21:	0f 1f 40 00          	nopl   0x0(%rax)
   140002c25:	66 66 2e 0f 1f 84 00 	data16 cs nopw 0x0(%rax,%rax,1)
   140002c2c:	00 00 00 00 
   140002c30:	83 ef 01             	sub    $0x1,%edi
   140002c33:	0f 85 78 fd ff ff    	jne    1400029b1 <strip_natural_prefixes+0x31>
   140002c39:	48 83 c4 20          	add    $0x20,%rsp
   140002c3d:	5b                   	pop    %rbx
   140002c3e:	5e                   	pop    %rsi
   140002c3f:	5f                   	pop    %rdi
   140002c40:	c3                   	ret
   140002c41:	0f 1f 80 00 00 00 00 	nopl   0x0(%rax)
   140002c48:	48 8d 4b 10          	lea    0x10(%rbx),%rcx
   140002c4c:	e8 37 0b 04 00       	call   140043788 <strlen>
   140002c51:	48 8d 53 10          	lea    0x10(%rbx),%rdx
   140002c55:	48 89 d9             	mov    %rbx,%rcx
   140002c58:	4c 8d 40 01          	lea    0x1(%rax),%r8
   140002c5c:	e8 af 0c 04 00       	call   140043910 <memmove>
   140002c61:	eb cd                	jmp    140002c30 <strip_natural_prefixes+0x2b0>
   140002c63:	0f 1f 44 00 00       	nopl   0x0(%rax,%rax,1)
   140002c68:	48 8d 4b 0a          	lea    0xa(%rbx),%rcx
   140002c6c:	e8 17 0b 04 00       	call   140043788 <strlen>
   140002c71:	48 8d 53 0a          	lea    0xa(%rbx),%rdx
   140002c75:	48 89 d9             	mov    %rbx,%rcx
   140002c78:	4c 8d 40 01          	lea    0x1(%rax),%r8
   140002c7c:	e8 8f 0c 04 00       	call   140043910 <memmove>
   140002c81:	eb ad                	jmp    140002c30 <strip_natural_prefixes+0x2b0>
   140002c83:	0f 1f 44 00 00       	nopl   0x0(%rax,%rax,1)
   140002c88:	48 8d 4b 0c          	lea    0xc(%rbx),%rcx
   140002c8c:	e8 f7 0a 04 00       	call   140043788 <strlen>
   140002c91:	48 8d 53 0c          	lea    0xc(%rbx),%rdx
   140002c95:	48 89 d9             	mov    %rbx,%rcx
   140002c98:	4c 8d 40 01          	lea    0x1(%rax),%r8
   140002c9c:	e8 6f 0c 04 00       	call   140043910 <memmove>
   140002ca1:	eb 8d                	jmp    140002c30 <strip_natural_prefixes+0x2b0>
   140002ca3:	0f 1f 44 00 00       	nopl   0x0(%rax,%rax,1)
   140002ca8:	48 8d 4b 0d          	lea    0xd(%rbx),%rcx
   140002cac:	e8 d7 0a 04 00       	call   140043788 <strlen>
   140002cb1:	48 8d 53 0d          	lea    0xd(%rbx),%rdx
   140002cb5:	48 89 d9             	mov    %rbx,%rcx
   140002cb8:	4c 8d 40 01          	lea    0x1(%rax),%r8
   140002cbc:	e8 4f 0c 04 00       	call   140043910 <memmove>
   140002cc1:	e9 6a ff ff ff       	jmp    140002c30 <strip_natural_prefixes+0x2b0>
   140002cc6:	66 2e 0f 1f 84 00 00 	cs nopw 0x0(%rax,%rax,1)
   140002ccd:	00 00 00 
   140002cd0:	48 8d 4b 11          	lea    0x11(%rbx),%rcx
   140002cd4:	e8 af 0a 04 00       	call   140043788 <strlen>
   140002cd9:	48 8d 53 11          	lea    0x11(%rbx),%rdx
   140002cdd:	48 89 d9             	mov    %rbx,%rcx
   140002ce0:	4c 8d 40 01          	lea    0x1(%rax),%r8
   140002ce4:	e8 27 0c 04 00       	call   140043910 <memmove>
   140002ce9:	e9 42 ff ff ff       	jmp    140002c30 <strip_natural_prefixes+0x2b0>
   140002cee:	48 8d 4b 0f          	lea    0xf(%rbx),%rcx
   140002cf2:	e8 91 0a 04 00       	call   140043788 <strlen>
   140002cf7:	48 8d 53 0f          	lea    0xf(%rbx),%rdx
   140002cfb:	48 89 d9             	mov    %rbx,%rcx
   140002cfe:	4c 8d 40 01          	lea    0x1(%rax),%r8
   140002d02:	e8 09 0c 04 00       	call   140043910 <memmove>
   140002d07:	e9 24 ff ff ff       	jmp    140002c30 <strip_natural_prefixes+0x2b0>
   140002d0c:	48 8d 4b 08          	lea    0x8(%rbx),%rcx
   140002d10:	e8 73 0a 04 00       	call   140043788 <strlen>
   140002d15:	48 8d 53 08          	lea    0x8(%rbx),%rdx
   140002d19:	48 89 d9             	mov    %rbx,%rcx
   140002d1c:	4c 8d 40 01          	lea    0x1(%rax),%r8
   140002d20:	e8 eb 0b 04 00       	call   140043910 <memmove>
   140002d25:	e9 06 ff ff ff       	jmp    140002c30 <strip_natural_prefixes+0x2b0>
   140002d2a:	48 8d 4b 07          	lea    0x7(%rbx),%rcx
   140002d2e:	e8 55 0a 04 00       	call   140043788 <strlen>
   140002d33:	48 8d 53 07          	lea    0x7(%rbx),%rdx
   140002d37:	48 89 d9             	mov    %rbx,%rcx
   140002d3a:	4c 8d 40 01          	lea    0x1(%rax),%r8
   140002d3e:	e8 cd 0b 04 00       	call   140043910 <memmove>
   140002d43:	e9 e8 fe ff ff       	jmp    140002c30 <strip_natural_prefixes+0x2b0>
   140002d48:	48 8d 4b 06          	lea    0x6(%rbx),%rcx
   140002d4c:	e8 37 0a 04 00       	call   140043788 <strlen>
   140002d51:	48 8d 53 06          	lea    0x6(%rbx),%rdx
   140002d55:	48 89 d9             	mov    %rbx,%rcx
   140002d58:	4c 8d 40 01          	lea    0x1(%rax),%r8
   140002d5c:	e8 af 0b 04 00       	call   140043910 <memmove>
   140002d61:	e9 ca fe ff ff       	jmp    140002c30 <strip_natural_prefixes+0x2b0>
   140002d66:	48 8d 4b 09          	lea    0x9(%rbx),%rcx
   140002d6a:	e8 19 0a 04 00       	call   140043788 <strlen>
   140002d6f:	48 8d 53 09          	lea    0x9(%rbx),%rdx
   140002d73:	48 89 d9             	mov    %rbx,%rcx
   140002d76:	4c 8d 40 01          	lea    0x1(%rax),%r8
   140002d7a:	e8 91 0b 04 00       	call   140043910 <memmove>
   140002d7f:	e9 ac fe ff ff       	jmp    140002c30 <strip_natural_prefixes+0x2b0>
   140002d84:	90                   	nop
   140002d85:	66 66 2e 0f 1f 84 00 	data16 cs nopw 0x0(%rax,%rax,1)
   140002d8c:	00 00 00 00 

0000000140002d90 <strip_terminal_punctuation>:
   140002d90:	56                   	push   %rsi
   140002d91:	53                   	push   %rbx
   140002d92:	48 83 ec 28          	sub    $0x28,%rsp
   140002d96:	48 89 cb             	mov    %rcx,%rbx
   140002d99:	e8 12 f1 ff ff       	call   140001eb0 <squeeze_spaces>
   140002d9e:	48 89 d9             	mov    %rbx,%rcx
   140002da1:	e8 e2 09 04 00       	call   140043788 <strlen>
   140002da6:	b9 43 20 00 40       	mov    $0x40002043,%ecx
   140002dab:	48 85 c0             	test   %rax,%rax
   140002dae:	74 49                	je     140002df9 <strip_terminal_punctuation+0x69>
   140002db0:	48 83 e8 01          	sub    $0x1,%rax
   140002db4:	0f b6 34 03          	movzbl (%rbx,%rax,1),%esi
   140002db8:	8d 56 df             	lea    -0x21(%rsi),%edx
   140002dbb:	80 fa 1e             	cmp    $0x1e,%dl
   140002dbe:	77 39                	ja     140002df9 <strip_terminal_punctuation+0x69>
   140002dc0:	48 0f a3 d1          	bt     %rdx,%rcx
   140002dc4:	73 33                	jae    140002df9 <strip_terminal_punctuation+0x69>
   140002dc6:	c6 04 03 00          	movb   $0x0,(%rbx,%rax,1)
   140002dca:	48 85 c0             	test   %rax,%rax
   140002dcd:	75 e1                	jne    140002db0 <strip_terminal_punctuation+0x20>
   140002dcf:	0f b6 03             	movzbl (%rbx),%eax
   140002dd2:	3c 22                	cmp    $0x22,%al
   140002dd4:	75 2a                	jne    140002e00 <strip_terminal_punctuation+0x70>
   140002dd6:	66 2e 0f 1f 84 00 00 	cs nopw 0x0(%rax,%rax,1)
   140002ddd:	00 00 00 
   140002de0:	48 8d 4b 01          	lea    0x1(%rbx),%rcx
   140002de4:	e8 9f 09 04 00       	call   140043788 <strlen>
   140002de9:	48 8d 53 01          	lea    0x1(%rbx),%rdx
   140002ded:	48 89 d9             	mov    %rbx,%rcx
   140002df0:	4c 8d 40 01          	lea    0x1(%rax),%r8
   140002df4:	e8 17 0b 04 00       	call   140043910 <memmove>
   140002df9:	0f b6 03             	movzbl (%rbx),%eax
   140002dfc:	3c 22                	cmp    $0x22,%al
   140002dfe:	74 e0                	je     140002de0 <strip_terminal_punctuation+0x50>
   140002e00:	3c 27                	cmp    $0x27,%al
   140002e02:	74 dc                	je     140002de0 <strip_terminal_punctuation+0x50>
   140002e04:	48 89 d9             	mov    %rbx,%rcx
   140002e07:	48 83 c4 28          	add    $0x28,%rsp
   140002e0b:	5b                   	pop    %rbx
   140002e0c:	5e                   	pop    %rsi
   140002e0d:	e9 9e f0 ff ff       	jmp    140001eb0 <squeeze_spaces>
   140002e12:	0f 1f 00             	nopl   (%rax)
   140002e15:	66 66 2e 0f 1f 84 00 	data16 cs nopw 0x0(%rax,%rax,1)
   140002e1c:	00 00 00 00 

0000000140002e20 <rewrite_command>:
   140002e20:	56                   	push   %rsi
   140002e21:	53                   	push   %rbx
   140002e22:	48 81 ec 38 02 00 00 	sub    $0x238,%rsp
   140002e29:	41 0f b6 00          	movzbl (%r8),%eax
   140002e2d:	48 89 cb             	mov    %rcx,%rbx
   140002e30:	49 89 d1             	mov    %rdx,%r9
   140002e33:	3c 20                	cmp    $0x20,%al
   140002e35:	75 16                	jne    140002e4d <rewrite_command+0x2d>
   140002e37:	66 0f 1f 84 00 00 00 	nopw   0x0(%rax,%rax,1)
   140002e3e:	00 00 
   140002e40:	41 0f b6 40 01       	movzbl 0x1(%r8),%eax
   140002e45:	49 83 c0 01          	add    $0x1,%r8
   140002e49:	3c 20                	cmp    $0x20,%al
   140002e4b:	74 f3                	je     140002e40 <rewrite_command+0x20>
   140002e4d:	48 8d 74 24 30       	lea    0x30(%rsp),%rsi
   140002e52:	84 c0                	test   %al,%al
   140002e54:	74 52                	je     140002ea8 <rewrite_command+0x88>
   140002e56:	4c 89 44 24 28       	mov    %r8,0x28(%rsp)
   140002e5b:	ba 00 02 00 00       	mov    $0x200,%edx
   140002e60:	48 89 f1             	mov    %rsi,%rcx
   140002e63:	4c 8d 05 ad 34 04 00 	lea    0x434ad(%rip),%r8        # 140046317 <.rdata+0x2b7>
   140002e6a:	c7 44 24 20 c0 01 00 	movl   $0x1c0,0x20(%rsp)
   140002e71:	00 
   140002e72:	e8 79 06 04 00       	call   1400434f0 <snprintf>
   140002e77:	41 b8 ff 01 00 00    	mov    $0x1ff,%r8d
   140002e7d:	48 89 f2             	mov    %rsi,%rdx
   140002e80:	48 89 d9             	mov    %rbx,%rcx
   140002e83:	e8 18 09 04 00       	call   1400437a0 <strncpy>
   140002e88:	c6 83 ff 01 00 00 00 	movb   $0x0,0x1ff(%rbx)
   140002e8f:	48 89 d9             	mov    %rbx,%rcx
   140002e92:	e8 f9 fe ff ff       	call   140002d90 <strip_terminal_punctuation>
   140002e97:	90                   	nop
   140002e98:	48 81 c4 38 02 00 00 	add    $0x238,%rsp
   140002e9f:	5b                   	pop    %rbx
   140002ea0:	5e                   	pop    %rsi
   140002ea1:	c3                   	ret
   140002ea2:	66 0f 1f 44 00 00    	nopw   0x0(%rax,%rax,1)
   140002ea8:	4c 8d 05 70 34 04 00 	lea    0x43470(%rip),%r8        # 14004631f <.rdata+0x2bf>
   140002eaf:	ba 00 02 00 00       	mov    $0x200,%edx
   140002eb4:	48 89 f1             	mov    %rsi,%rcx
   140002eb7:	e8 34 06 04 00       	call   1400434f0 <snprintf>
   140002ebc:	eb b9                	jmp    140002e77 <rewrite_command+0x57>
   140002ebe:	66 90                	xchg   %ax,%ax

0000000140002ec0 <strip_leading_articles>:
   140002ec0:	55                   	push   %rbp
   140002ec1:	57                   	push   %rdi
   140002ec2:	56                   	push   %rsi
   140002ec3:	53                   	push   %rbx
   140002ec4:	48 83 ec 28          	sub    $0x28,%rsp
   140002ec8:	48 89 cb             	mov    %rcx,%rbx
   140002ecb:	48 8d 69 02          	lea    0x2(%rcx),%rbp
   140002ecf:	90                   	nop
   140002ed0:	41 b8 04 00 00 00    	mov    $0x4,%r8d
   140002ed6:	48 8d 15 45 34 04 00 	lea    0x43445(%rip),%rdx        # 140046322 <.rdata+0x2c2>
   140002edd:	48 89 d9             	mov    %rbx,%rcx
   140002ee0:	e8 b3 08 04 00       	call   140043798 <strncmp>
   140002ee5:	85 c0                	test   %eax,%eax
   140002ee7:	74 37                	je     140002f20 <strip_leading_articles+0x60>
   140002ee9:	80 3b 61             	cmpb   $0x61,(%rbx)
   140002eec:	75 22                	jne    140002f10 <strip_leading_articles+0x50>
   140002eee:	80 7b 01 20          	cmpb   $0x20,0x1(%rbx)
   140002ef2:	75 1c                	jne    140002f10 <strip_leading_articles+0x50>
   140002ef4:	48 89 e9             	mov    %rbp,%rcx
   140002ef7:	e8 8c 08 04 00       	call   140043788 <strlen>
   140002efc:	48 89 ea             	mov    %rbp,%rdx
   140002eff:	48 89 d9             	mov    %rbx,%rcx
   140002f02:	4c 8d 40 01          	lea    0x1(%rax),%r8
   140002f06:	e8 05 0a 04 00       	call   140043910 <memmove>
   140002f0b:	eb c3                	jmp    140002ed0 <strip_leading_articles+0x10>
   140002f0d:	0f 1f 00             	nopl   (%rax)
   140002f10:	80 3b 61             	cmpb   $0x61,(%rbx)
   140002f13:	74 2b                	je     140002f40 <strip_leading_articles+0x80>
   140002f15:	48 83 c4 28          	add    $0x28,%rsp
   140002f19:	5b                   	pop    %rbx
   140002f1a:	5e                   	pop    %rsi
   140002f1b:	5f                   	pop    %rdi
   140002f1c:	5d                   	pop    %rbp
   140002f1d:	c3                   	ret
   140002f1e:	66 90                	xchg   %ax,%ax
   140002f20:	48 8d 4b 04          	lea    0x4(%rbx),%rcx
   140002f24:	e8 5f 08 04 00       	call   140043788 <strlen>
   140002f29:	48 8d 53 04          	lea    0x4(%rbx),%rdx
   140002f2d:	48 89 d9             	mov    %rbx,%rcx
   140002f30:	4c 8d 40 01          	lea    0x1(%rax),%r8
   140002f34:	e8 d7 09 04 00       	call   140043910 <memmove>
   140002f39:	eb 95                	jmp    140002ed0 <strip_leading_articles+0x10>
   140002f3b:	0f 1f 44 00 00       	nopl   0x0(%rax,%rax,1)
   140002f40:	80 7b 01 6e          	cmpb   $0x6e,0x1(%rbx)
   140002f44:	75 cf                	jne    140002f15 <strip_leading_articles+0x55>
   140002f46:	80 7b 02 20          	cmpb   $0x20,0x2(%rbx)
   140002f4a:	75 c9                	jne    140002f15 <strip_leading_articles+0x55>
   140002f4c:	48 8d 4b 03          	lea    0x3(%rbx),%rcx
   140002f50:	e8 33 08 04 00       	call   140043788 <strlen>
   140002f55:	48 8d 53 03          	lea    0x3(%rbx),%rdx
   140002f59:	48 89 d9             	mov    %rbx,%rcx
   140002f5c:	4c 8d 40 01          	lea    0x1(%rax),%r8
   140002f60:	e8 ab 09 04 00       	call   140043910 <memmove>
   140002f65:	e9 66 ff ff ff       	jmp    140002ed0 <strip_leading_articles+0x10>
   140002f6a:	66 0f 1f 44 00 00    	nopw   0x0(%rax,%rax,1)

0000000140002f70 <causal_latest_row_matching>:
   140002f70:	41 54                	push   %r12
   140002f72:	55                   	push   %rbp
   140002f73:	57                   	push   %rdi
   140002f74:	56                   	push   %rsi
   140002f75:	53                   	push   %rbx
   140002f76:	48 83 ec 20          	sub    $0x20,%rsp
   140002f7a:	48 89 cd             	mov    %rcx,%rbp
   140002f7d:	80 39 00             	cmpb   $0x0,(%rcx)
   140002f80:	0f 84 a2 00 00 00    	je     140003028 <causal_latest_row_matching+0xb8>
   140002f86:	8b 0d 60 d4 20 00    	mov    0x20d460(%rip),%ecx        # 1402103ec <g_causal_count>
   140002f8c:	85 c9                	test   %ecx,%ecx
   140002f8e:	0f 8e 94 00 00 00    	jle    140003028 <causal_latest_row_matching+0xb8>
   140002f94:	8b 05 56 d4 20 00    	mov    0x20d456(%rip),%eax        # 1402103f0 <g_causal_head>
   140002f9a:	48 8d 3d 5f d4 20 00 	lea    0x20d45f(%rip),%rdi        # 140210400 <g_causal_ring>
   140002fa1:	29 c8                	sub    %ecx,%eax
   140002fa3:	83 c0 20             	add    $0x20,%eax
   140002fa6:	99                   	cltd
   140002fa7:	c1 ea 1b             	shr    $0x1b,%edx
   140002faa:	8d 34 10             	lea    (%rax,%rdx,1),%esi
   140002fad:	83 e6 1f             	and    $0x1f,%esi
   140002fb0:	29 d6                	sub    %edx,%esi
   140002fb2:	44 8d 64 31 ff       	lea    -0x1(%rcx,%rsi,1),%r12d
   140002fb7:	44 89 e0             	mov    %r12d,%eax
   140002fba:	48 89 ea             	mov    %rbp,%rdx
   140002fbd:	c1 f8 1f             	sar    $0x1f,%eax
   140002fc0:	c1 e8 1b             	shr    $0x1b,%eax
   140002fc3:	41 8d 1c 04          	lea    (%r12,%rax,1),%ebx
   140002fc7:	83 e3 1f             	and    $0x1f,%ebx
   140002fca:	29 c3                	sub    %eax,%ebx
   140002fcc:	48 63 db             	movslq %ebx,%rbx
   140002fcf:	48 69 db e0 00 00 00 	imul   $0xe0,%rbx,%rbx
   140002fd6:	48 8d 0c 3b          	lea    (%rbx,%rdi,1),%rcx
   140002fda:	e8 49 09 04 00       	call   140043928 <strstr>
   140002fdf:	48 85 c0             	test   %rax,%rax
   140002fe2:	74 34                	je     140003018 <causal_latest_row_matching+0xa8>
   140002fe4:	4c 8d 0c 3b          	lea    (%rbx,%rdi,1),%r9
   140002fe8:	4c 8d 05 30 33 04 00 	lea    0x43330(%rip),%r8        # 14004631f <.rdata+0x2bf>
   140002fef:	ba e0 00 00 00       	mov    $0xe0,%edx
   140002ff4:	48 8d 0d 85 00 08 00 	lea    0x80085(%rip),%rcx        # 140083080 <hit.4>
   140002ffb:	e8 f0 04 04 00       	call   1400434f0 <snprintf>
   140003000:	48 8d 05 79 00 08 00 	lea    0x80079(%rip),%rax        # 140083080 <hit.4>
   140003007:	48 83 c4 20          	add    $0x20,%rsp
   14000300b:	5b                   	pop    %rbx
   14000300c:	5e                   	pop    %rsi
   14000300d:	5f                   	pop    %rdi
   14000300e:	5d                   	pop    %rbp
   14000300f:	41 5c                	pop    %r12
   140003011:	c3                   	ret
   140003012:	66 0f 1f 44 00 00    	nopw   0x0(%rax,%rax,1)
   140003018:	44 39 e6             	cmp    %r12d,%esi
   14000301b:	74 ea                	je     140003007 <causal_latest_row_matching+0x97>
   14000301d:	41 83 ec 01          	sub    $0x1,%r12d
   140003021:	eb 94                	jmp    140002fb7 <causal_latest_row_matching+0x47>
   140003023:	0f 1f 44 00 00       	nopl   0x0(%rax,%rax,1)
   140003028:	31 c0                	xor    %eax,%eax
   14000302a:	48 83 c4 20          	add    $0x20,%rsp
   14000302e:	5b                   	pop    %rbx
   14000302f:	5e                   	pop    %rsi
   140003030:	5f                   	pop    %rdi
   140003031:	5d                   	pop    %rbp
   140003032:	41 5c                	pop    %r12
   140003034:	c3                   	ret
   140003035:	66 66 2e 0f 1f 84 00 	data16 cs nopw 0x0(%rax,%rax,1)
   14000303c:	00 00 00 00 

0000000140003040 <ui_line_append>:
   140003040:	4c 8b 09             	mov    (%rcx),%r9
   140003043:	4d 85 c9             	test   %r9,%r9
   140003046:	74 43                	je     14000308b <ui_line_append+0x4b>
   140003048:	48 83 79 08 01       	cmpq   $0x1,0x8(%rcx)
   14000304d:	77 2e                	ja     14000307d <ui_line_append+0x3d>
   14000304f:	eb 3a                	jmp    14000308b <ui_line_append+0x4b>
   140003051:	0f 1f 80 00 00 00 00 	nopl   0x0(%rax)
   140003058:	3b 41 10             	cmp    0x10(%rcx),%eax
   14000305b:	7d 29                	jge    140003086 <ui_line_append+0x46>
   14000305d:	44 8d 40 01          	lea    0x1(%rax),%r8d
   140003061:	4d 63 d0             	movslq %r8d,%r10
   140003064:	4c 3b 51 08          	cmp    0x8(%rcx),%r10
   140003068:	73 1c                	jae    140003086 <ui_line_append+0x46>
   14000306a:	44 89 41 14          	mov    %r8d,0x14(%rcx)
   14000306e:	44 0f b6 02          	movzbl (%rdx),%r8d
   140003072:	48 83 c2 01          	add    $0x1,%rdx
   140003076:	45 88 04 01          	mov    %r8b,(%r9,%rax,1)
   14000307a:	4c 8b 09             	mov    (%rcx),%r9
   14000307d:	80 3a 00             	cmpb   $0x0,(%rdx)
   140003080:	48 63 41 14          	movslq 0x14(%rcx),%rax
   140003084:	75 d2                	jne    140003058 <ui_line_append+0x18>
   140003086:	41 c6 04 01 00       	movb   $0x0,(%r9,%rax,1)
   14000308b:	c3                   	ret
   14000308c:	0f 1f 40 00          	nopl   0x0(%rax)

0000000140003090 <ui_print_panel_footer>:
   140003090:	53                   	push   %rbx
   140003091:	48 83 ec 20          	sub    $0x20,%rsp
   140003095:	4c 8b 0d d4 1f 04 00 	mov    0x41fd4(%rip),%r9        # 140045070 <C_RESET>
   14000309c:	48 8b 15 c5 1f 04 00 	mov    0x41fc5(%rip),%rdx        # 140045068 <C_BORDER>
   1400030a3:	4c 8d 05 b6 2f 04 00 	lea    0x42fb6(%rip),%r8        # 140046060 <.rdata>
   1400030aa:	48 89 cb             	mov    %rcx,%rbx
   1400030ad:	48 8d 0d 73 32 04 00 	lea    0x43273(%rip),%rcx        # 140046327 <.rdata+0x2c7>
   1400030b4:	e8 a7 04 04 00       	call   140043560 <printf>
   1400030b9:	80 3b 00             	cmpb   $0x0,(%rbx)
   1400030bc:	75 0a                	jne    1400030c8 <ui_print_panel_footer+0x38>
   1400030be:	48 83 c4 20          	add    $0x20,%rsp
   1400030c2:	5b                   	pop    %rbx
   1400030c3:	c3                   	ret
   1400030c4:	0f 1f 40 00          	nopl   0x0(%rax)
   1400030c8:	4c 8b 0d a1 1f 04 00 	mov    0x41fa1(%rip),%r9        # 140045070 <C_RESET>
   1400030cf:	48 8b 15 5a 1f 04 00 	mov    0x41f5a(%rip),%rdx        # 140045030 <C_PROMPT>
   1400030d6:	49 89 d8             	mov    %rbx,%r8
   1400030d9:	48 8d 0d d0 2f 04 00 	lea    0x42fd0(%rip),%rcx        # 1400460b0 <.rdata+0x50>
   1400030e0:	48 83 c4 20          	add    $0x20,%rsp
   1400030e4:	5b                   	pop    %rbx
   1400030e5:	e9 76 04 04 00       	jmp    140043560 <printf>
   1400030ea:	66 0f 1f 44 00 00    	nopw   0x0(%rax,%rax,1)

00000001400030f0 <parse_direction_token.part.0>:
   1400030f0:	57                   	push   %rdi
   1400030f1:	56                   	push   %rsi
   1400030f2:	53                   	push   %rbx
   1400030f3:	48 83 ec 30          	sub    $0x30,%rsp
   1400030f7:	0f b6 31             	movzbl (%rcx),%esi
   1400030fa:	48 89 cb             	mov    %rcx,%rbx
   1400030fd:	48 89 d7             	mov    %rdx,%rdi
   140003100:	83 fe 6e             	cmp    $0x6e,%esi
   140003103:	75 1b                	jne    140003120 <parse_direction_token.part.0+0x30>
   140003105:	80 79 01 00          	cmpb   $0x0,0x1(%rcx)
   140003109:	75 15                	jne    140003120 <parse_direction_token.part.0+0x30>
   14000310b:	c7 07 00 00 00 00    	movl   $0x0,(%rdi)
   140003111:	b8 01 00 00 00       	mov    $0x1,%eax
   140003116:	48 83 c4 30          	add    $0x30,%rsp
   14000311a:	5b                   	pop    %rbx
   14000311b:	5e                   	pop    %rsi
   14000311c:	5f                   	pop    %rdi
   14000311d:	c3                   	ret
   14000311e:	66 90                	xchg   %ax,%ax
   140003120:	48 8d 15 09 32 04 00 	lea    0x43209(%rip),%rdx        # 140046330 <.rdata+0x2d0>
   140003127:	48 89 d9             	mov    %rbx,%rcx
   14000312a:	e8 49 06 04 00       	call   140043778 <strcmp>
   14000312f:	85 c0                	test   %eax,%eax
   140003131:	74 d8                	je     14000310b <parse_direction_token.part.0+0x1b>
   140003133:	83 fe 73             	cmp    $0x73,%esi
   140003136:	75 18                	jne    140003150 <parse_direction_token.part.0+0x60>
   140003138:	80 7b 01 00          	cmpb   $0x0,0x1(%rbx)
   14000313c:	75 12                	jne    140003150 <parse_direction_token.part.0+0x60>
   14000313e:	c7 07 01 00 00 00    	movl   $0x1,(%rdi)
   140003144:	eb cb                	jmp    140003111 <parse_direction_token.part.0+0x21>
   140003146:	66 2e 0f 1f 84 00 00 	cs nopw 0x0(%rax,%rax,1)
   14000314d:	00 00 00 
   140003150:	48 8d 15 df 31 04 00 	lea    0x431df(%rip),%rdx        # 140046336 <.rdata+0x2d6>
   140003157:	48 89 d9             	mov    %rbx,%rcx
   14000315a:	e8 19 06 04 00       	call   140043778 <strcmp>
   14000315f:	85 c0                	test   %eax,%eax
   140003161:	74 db                	je     14000313e <parse_direction_token.part.0+0x4e>
   140003163:	83 fe 65             	cmp    $0x65,%esi
   140003166:	75 18                	jne    140003180 <parse_direction_token.part.0+0x90>
   140003168:	80 7b 01 00          	cmpb   $0x0,0x1(%rbx)
   14000316c:	75 12                	jne    140003180 <parse_direction_token.part.0+0x90>
   14000316e:	c7 07 02 00 00 00    	movl   $0x2,(%rdi)
   140003174:	eb 9b                	jmp    140003111 <parse_direction_token.part.0+0x21>
   140003176:	66 2e 0f 1f 84 00 00 	cs nopw 0x0(%rax,%rax,1)
   14000317d:	00 00 00 
   140003180:	48 8d 15 b5 31 04 00 	lea    0x431b5(%rip),%rdx        # 14004633c <.rdata+0x2dc>
   140003187:	48 89 d9             	mov    %rbx,%rcx
   14000318a:	e8 e9 05 04 00       	call   140043778 <strcmp>
   14000318f:	85 c0                	test   %eax,%eax
   140003191:	74 db                	je     14000316e <parse_direction_token.part.0+0x7e>
   140003193:	83 fe 77             	cmp    $0x77,%esi
   140003196:	75 18                	jne    1400031b0 <parse_direction_token.part.0+0xc0>
   140003198:	80 7b 01 00          	cmpb   $0x0,0x1(%rbx)
   14000319c:	75 12                	jne    1400031b0 <parse_direction_token.part.0+0xc0>
   14000319e:	c7 07 03 00 00 00    	movl   $0x3,(%rdi)
   1400031a4:	e9 68 ff ff ff       	jmp    140003111 <parse_direction_token.part.0+0x21>
   1400031a9:	0f 1f 80 00 00 00 00 	nopl   0x0(%rax)
   1400031b0:	48 8d 15 8a 31 04 00 	lea    0x4318a(%rip),%rdx        # 140046341 <.rdata+0x2e1>
   1400031b7:	48 89 d9             	mov    %rbx,%rcx
   1400031ba:	e8 b9 05 04 00       	call   140043778 <strcmp>
   1400031bf:	85 c0                	test   %eax,%eax
   1400031c1:	74 db                	je     14000319e <parse_direction_token.part.0+0xae>
   1400031c3:	83 fe 75             	cmp    $0x75,%esi
   1400031c6:	75 18                	jne    1400031e0 <parse_direction_token.part.0+0xf0>
   1400031c8:	80 7b 01 00          	cmpb   $0x0,0x1(%rbx)
   1400031cc:	75 12                	jne    1400031e0 <parse_direction_token.part.0+0xf0>
   1400031ce:	c7 07 04 00 00 00    	movl   $0x4,(%rdi)
   1400031d4:	e9 38 ff ff ff       	jmp    140003111 <parse_direction_token.part.0+0x21>
   1400031d9:	0f 1f 80 00 00 00 00 	nopl   0x0(%rax)
   1400031e0:	44 0f b6 03          	movzbl (%rbx),%r8d
   1400031e4:	41 83 f8 75          	cmp    $0x75,%r8d
   1400031e8:	75 16                	jne    140003200 <parse_direction_token.part.0+0x110>
   1400031ea:	80 7b 01 70          	cmpb   $0x70,0x1(%rbx)
   1400031ee:	75 10                	jne    140003200 <parse_direction_token.part.0+0x110>
   1400031f0:	80 7b 02 00          	cmpb   $0x0,0x2(%rbx)
   1400031f4:	74 d8                	je     1400031ce <parse_direction_token.part.0+0xde>
   1400031f6:	66 2e 0f 1f 84 00 00 	cs nopw 0x0(%rax,%rax,1)
   1400031fd:	00 00 00 
   140003200:	83 fe 64             	cmp    $0x64,%esi
   140003203:	75 1b                	jne    140003220 <parse_direction_token.part.0+0x130>
   140003205:	80 7b 01 00          	cmpb   $0x0,0x1(%rbx)
   140003209:	75 15                	jne    140003220 <parse_direction_token.part.0+0x130>
   14000320b:	c7 07 05 00 00 00    	movl   $0x5,(%rdi)
   140003211:	e9 fb fe ff ff       	jmp    140003111 <parse_direction_token.part.0+0x21>
   140003216:	66 2e 0f 1f 84 00 00 	cs nopw 0x0(%rax,%rax,1)
   14000321d:	00 00 00 
   140003220:	48 8d 15 1f 31 04 00 	lea    0x4311f(%rip),%rdx        # 140046346 <.rdata+0x2e6>
   140003227:	48 89 d9             	mov    %rbx,%rcx
   14000322a:	44 89 44 24 2c       	mov    %r8d,0x2c(%rsp)
   14000322f:	e8 44 05 04 00       	call   140043778 <strcmp>
   140003234:	44 8b 44 24 2c       	mov    0x2c(%rsp),%r8d
   140003239:	85 c0                	test   %eax,%eax
   14000323b:	74 ce                	je     14000320b <parse_direction_token.part.0+0x11b>
   14000323d:	41 83 f8 6e          	cmp    $0x6e,%r8d
   140003241:	75 17                	jne    14000325a <parse_direction_token.part.0+0x16a>
   140003243:	80 7b 01 65          	cmpb   $0x65,0x1(%rbx)
   140003247:	75 11                	jne    14000325a <parse_direction_token.part.0+0x16a>
   140003249:	80 7b 02 00          	cmpb   $0x0,0x2(%rbx)
   14000324d:	75 0b                	jne    14000325a <parse_direction_token.part.0+0x16a>
   14000324f:	c7 07 06 00 00 00    	movl   $0x6,(%rdi)
   140003255:	e9 b7 fe ff ff       	jmp    140003111 <parse_direction_token.part.0+0x21>
   14000325a:	48 8d 15 ea 30 04 00 	lea    0x430ea(%rip),%rdx        # 14004634b <.rdata+0x2eb>
   140003261:	48 89 d9             	mov    %rbx,%rcx
   140003264:	44 89 44 24 2c       	mov    %r8d,0x2c(%rsp)
   140003269:	e8 0a 05 04 00       	call   140043778 <strcmp>
   14000326e:	44 8b 44 24 2c       	mov    0x2c(%rsp),%r8d
   140003273:	85 c0                	test   %eax,%eax
   140003275:	74 d8                	je     14000324f <parse_direction_token.part.0+0x15f>
   140003277:	41 83 f8 6e          	cmp    $0x6e,%r8d
   14000327b:	75 17                	jne    140003294 <parse_direction_token.part.0+0x1a4>
   14000327d:	80 7b 01 77          	cmpb   $0x77,0x1(%rbx)
   140003281:	75 11                	jne    140003294 <parse_direction_token.part.0+0x1a4>
   140003283:	80 7b 02 00          	cmpb   $0x0,0x2(%rbx)
   140003287:	75 0b                	jne    140003294 <parse_direction_token.part.0+0x1a4>
   140003289:	c7 07 07 00 00 00    	movl   $0x7,(%rdi)
   14000328f:	e9 7d fe ff ff       	jmp    140003111 <parse_direction_token.part.0+0x21>
   140003294:	48 8d 15 ba 30 04 00 	lea    0x430ba(%rip),%rdx        # 140046355 <.rdata+0x2f5>
   14000329b:	48 89 d9             	mov    %rbx,%rcx
   14000329e:	44 89 44 24 2c       	mov    %r8d,0x2c(%rsp)
   1400032a3:	e8 d0 04 04 00       	call   140043778 <strcmp>
   1400032a8:	85 c0                	test   %eax,%eax
   1400032aa:	74 dd                	je     140003289 <parse_direction_token.part.0+0x199>
   1400032ac:	83 7c 24 2c 73       	cmpl   $0x73,0x2c(%rsp)
   1400032b1:	75 17                	jne    1400032ca <parse_direction_token.part.0+0x1da>
   1400032b3:	80 7b 01 65          	cmpb   $0x65,0x1(%rbx)
   1400032b7:	75 11                	jne    1400032ca <parse_direction_token.part.0+0x1da>
   1400032b9:	80 7b 02 00          	cmpb   $0x0,0x2(%rbx)
   1400032bd:	75 0b                	jne    1400032ca <parse_direction_token.part.0+0x1da>
   1400032bf:	c7 07 08 00 00 00    	movl   $0x8,(%rdi)
   1400032c5:	e9 47 fe ff ff       	jmp    140003111 <parse_direction_token.part.0+0x21>
   1400032ca:	48 8d 15 8e 30 04 00 	lea    0x4308e(%rip),%rdx        # 14004635f <.rdata+0x2ff>
   1400032d1:	48 89 d9             	mov    %rbx,%rcx
   1400032d4:	e8 9f 04 04 00       	call   140043778 <strcmp>
   1400032d9:	85 c0                	test   %eax,%eax
   1400032db:	74 e2                	je     1400032bf <parse_direction_token.part.0+0x1cf>
   1400032dd:	48 8d 15 85 30 04 00 	lea    0x43085(%rip),%rdx        # 140046369 <.rdata+0x309>
   1400032e4:	48 89 d9             	mov    %rbx,%rcx
   1400032e7:	e8 8c 04 04 00       	call   140043778 <strcmp>
   1400032ec:	85 c0                	test   %eax,%eax
   1400032ee:	0f 84 4a 01 00 00    	je     14000343e <parse_direction_token.part.0+0x34e>
   1400032f4:	48 8d 15 71 30 04 00 	lea    0x43071(%rip),%rdx        # 14004636c <.rdata+0x30c>
   1400032fb:	48 89 d9             	mov    %rbx,%rcx
   1400032fe:	e8 75 04 04 00       	call   140043778 <strcmp>
   140003303:	85 c0                	test   %eax,%eax
   140003305:	0f 84 33 01 00 00    	je     14000343e <parse_direction_token.part.0+0x34e>
   14000330b:	48 8d 15 64 30 04 00 	lea    0x43064(%rip),%rdx        # 140046376 <.rdata+0x316>
   140003312:	48 89 d9             	mov    %rbx,%rcx
   140003315:	e8 5e 04 04 00       	call   140043778 <strcmp>
   14000331a:	85 c0                	test   %eax,%eax
   14000331c:	0f 84 27 01 00 00    	je     140003449 <parse_direction_token.part.0+0x359>
   140003322:	48 8d 15 50 30 04 00 	lea    0x43050(%rip),%rdx        # 140046379 <.rdata+0x319>
   140003329:	48 89 d9             	mov    %rbx,%rcx
   14000332c:	e8 47 04 04 00       	call   140043778 <strcmp>
   140003331:	85 c0                	test   %eax,%eax
   140003333:	0f 84 10 01 00 00    	je     140003449 <parse_direction_token.part.0+0x359>
   140003339:	48 8d 15 40 30 04 00 	lea    0x43040(%rip),%rdx        # 140046380 <.rdata+0x320>
   140003340:	48 89 d9             	mov    %rbx,%rcx
   140003343:	e8 30 04 04 00       	call   140043778 <strcmp>
   140003348:	85 c0                	test   %eax,%eax
   14000334a:	0f 84 f9 00 00 00    	je     140003449 <parse_direction_token.part.0+0x359>
   140003350:	48 8d 15 2f 30 04 00 	lea    0x4302f(%rip),%rdx        # 140046386 <.rdata+0x326>
   140003357:	48 89 d9             	mov    %rbx,%rcx
   14000335a:	e8 19 04 04 00       	call   140043778 <strcmp>
   14000335f:	85 c0                	test   %eax,%eax
   140003361:	0f 84 ed 00 00 00    	je     140003454 <parse_direction_token.part.0+0x364>
   140003367:	48 8d 15 1c 30 04 00 	lea    0x4301c(%rip),%rdx        # 14004638a <.rdata+0x32a>
   14000336e:	48 89 d9             	mov    %rbx,%rcx
   140003371:	e8 02 04 04 00       	call   140043778 <strcmp>
   140003376:	85 c0                	test   %eax,%eax
   140003378:	0f 84 d6 00 00 00    	je     140003454 <parse_direction_token.part.0+0x364>
   14000337e:	48 8d 15 0d 30 04 00 	lea    0x4300d(%rip),%rdx        # 140046392 <.rdata+0x332>
   140003385:	48 89 d9             	mov    %rbx,%rcx
   140003388:	e8 eb 03 04 00       	call   140043778 <strcmp>
   14000338d:	85 c0                	test   %eax,%eax
   14000338f:	0f 84 bf 00 00 00    	je     140003454 <parse_direction_token.part.0+0x364>
   140003395:	48 8d 15 fc 2f 04 00 	lea    0x42ffc(%rip),%rdx        # 140046398 <.rdata+0x338>
   14000339c:	48 89 d9             	mov    %rbx,%rcx
   14000339f:	e8 d4 03 04 00       	call   140043778 <strcmp>
   1400033a4:	85 c0                	test   %eax,%eax
   1400033a6:	0f 84 be 00 00 00    	je     14000346a <parse_direction_token.part.0+0x37a>
   1400033ac:	48 8d 15 ec 2f 04 00 	lea    0x42fec(%rip),%rdx        # 14004639f <.rdata+0x33f>
   1400033b3:	48 89 d9             	mov    %rbx,%rcx
   1400033b6:	e8 bd 03 04 00       	call   140043778 <strcmp>
   1400033bb:	85 c0                	test   %eax,%eax
   1400033bd:	0f 84 9c 00 00 00    	je     14000345f <parse_direction_token.part.0+0x36f>
   1400033c3:	48 8d 15 de 2f 04 00 	lea    0x42fde(%rip),%rdx        # 1400463a8 <.rdata+0x348>
   1400033ca:	48 89 d9             	mov    %rbx,%rcx
   1400033cd:	e8 a6 03 04 00       	call   140043778 <strcmp>
   1400033d2:	85 c0                	test   %eax,%eax
   1400033d4:	0f 84 bc 00 00 00    	je     140003496 <parse_direction_token.part.0+0x3a6>
   1400033da:	48 8d 15 d2 2f 04 00 	lea    0x42fd2(%rip),%rdx        # 1400463b3 <.rdata+0x353>
   1400033e1:	48 89 d9             	mov    %rbx,%rcx
   1400033e4:	e8 8f 03 04 00       	call   140043778 <strcmp>
   1400033e9:	85 c0                	test   %eax,%eax
   1400033eb:	0f 84 9a 00 00 00    	je     14000348b <parse_direction_token.part.0+0x39b>
   1400033f1:	48 8d 15 c4 2f 04 00 	lea    0x42fc4(%rip),%rdx        # 1400463bc <.rdata+0x35c>
   1400033f8:	48 89 d9             	mov    %rbx,%rcx
   1400033fb:	e8 78 03 04 00       	call   140043778 <strcmp>
   140003400:	85 c0                	test   %eax,%eax
   140003402:	74 7c                	je     140003480 <parse_direction_token.part.0+0x390>
   140003404:	48 8d 15 b7 2f 04 00 	lea    0x42fb7(%rip),%rdx        # 1400463c2 <.rdata+0x362>
   14000340b:	48 89 d9             	mov    %rbx,%rcx
   14000340e:	e8 65 03 04 00       	call   140043778 <strcmp>
   140003413:	85 c0                	test   %eax,%eax
   140003415:	74 5e                	je     140003475 <parse_direction_token.part.0+0x385>
   140003417:	48 8d 15 aa 2f 04 00 	lea    0x42faa(%rip),%rdx        # 1400463c8 <.rdata+0x368>
   14000341e:	48 89 d9             	mov    %rbx,%rcx
   140003421:	e8 52 03 04 00       	call   140043778 <strcmp>
   140003426:	85 c0                	test   %eax,%eax
   140003428:	b8 00 00 00 00       	mov    $0x0,%eax
   14000342d:	0f 85 e3 fc ff ff    	jne    140003116 <parse_direction_token.part.0+0x26>
   140003433:	c7 07 12 00 00 00    	movl   $0x12,(%rdi)
   140003439:	e9 d3 fc ff ff       	jmp    140003111 <parse_direction_token.part.0+0x21>
   14000343e:	c7 07 09 00 00 00    	movl   $0x9,(%rdi)
   140003444:	e9 c8 fc ff ff       	jmp    140003111 <parse_direction_token.part.0+0x21>
   140003449:	c7 07 0a 00 00 00    	movl   $0xa,(%rdi)
   14000344f:	e9 bd fc ff ff       	jmp    140003111 <parse_direction_token.part.0+0x21>
   140003454:	c7 07 0b 00 00 00    	movl   $0xb,(%rdi)
   14000345a:	e9 b2 fc ff ff       	jmp    140003111 <parse_direction_token.part.0+0x21>
   14000345f:	c7 07 0d 00 00 00    	movl   $0xd,(%rdi)
   140003465:	e9 a7 fc ff ff       	jmp    140003111 <parse_direction_token.part.0+0x21>
   14000346a:	c7 07 0c 00 00 00    	movl   $0xc,(%rdi)
   140003470:	e9 9c fc ff ff       	jmp    140003111 <parse_direction_token.part.0+0x21>
   140003475:	c7 07 11 00 00 00    	movl   $0x11,(%rdi)
   14000347b:	e9 91 fc ff ff       	jmp    140003111 <parse_direction_token.part.0+0x21>
   140003480:	c7 07 10 00 00 00    	movl   $0x10,(%rdi)
   140003486:	e9 86 fc ff ff       	jmp    140003111 <parse_direction_token.part.0+0x21>
   14000348b:	c7 07 0f 00 00 00    	movl   $0xf,(%rdi)
   140003491:	e9 7b fc ff ff       	jmp    140003111 <parse_direction_token.part.0+0x21>
   140003496:	c7 07 0e 00 00 00    	movl   $0xe,(%rdi)
   14000349c:	e9 70 fc ff ff       	jmp    140003111 <parse_direction_token.part.0+0x21>
   1400034a1:	0f 1f 40 00          	nopl   0x0(%rax)
   1400034a5:	66 66 2e 0f 1f 84 00 	data16 cs nopw 0x0(%rax,%rax,1)
   1400034ac:	00 00 00 00 

00000001400034b0 <parse_direction_token>:
   1400034b0:	80 39 00             	cmpb   $0x0,(%rcx)
   1400034b3:	74 0b                	je     1400034c0 <parse_direction_token+0x10>
   1400034b5:	e9 36 fc ff ff       	jmp    1400030f0 <parse_direction_token.part.0>
   1400034ba:	66 0f 1f 44 00 00    	nopw   0x0(%rax,%rax,1)
   1400034c0:	31 c0                	xor    %eax,%eax
   1400034c2:	c3                   	ret
   1400034c3:	66 90                	xchg   %ax,%ax
   1400034c5:	66 66 2e 0f 1f 84 00 	data16 cs nopw 0x0(%rax,%rax,1)
   1400034cc:	00 00 00 00 

00000001400034d0 <str_ieq.part.0>:
   1400034d0:	41 54                	push   %r12
   1400034d2:	55                   	push   %rbp
   1400034d3:	57                   	push   %rdi
   1400034d4:	56                   	push   %rsi
   1400034d5:	53                   	push   %rbx
   1400034d6:	48 83 ec 20          	sub    $0x20,%rsp
   1400034da:	48 8b 2d 47 53 3a 00 	mov    0x3a5347(%rip),%rbp        # 1403a8828 <__imp_tolower>
   1400034e1:	48 89 ce             	mov    %rcx,%rsi
   1400034e4:	0f b6 09             	movzbl (%rcx),%ecx
   1400034e7:	48 89 d7             	mov    %rdx,%rdi
   1400034ea:	84 c9                	test   %cl,%cl
   1400034ec:	75 21                	jne    14000350f <str_ieq.part.0+0x3f>
   1400034ee:	eb 56                	jmp    140003546 <str_ieq.part.0+0x76>
   1400034f0:	ff d5                	call   *%rbp
   1400034f2:	0f b6 cb             	movzbl %bl,%ecx
   1400034f5:	41 89 c4             	mov    %eax,%r12d
   1400034f8:	ff d5                	call   *%rbp
   1400034fa:	41 39 c4             	cmp    %eax,%r12d
   1400034fd:	75 31                	jne    140003530 <str_ieq.part.0+0x60>
   1400034ff:	0f b6 4e 01          	movzbl 0x1(%rsi),%ecx
   140003503:	48 83 c6 01          	add    $0x1,%rsi
   140003507:	84 c9                	test   %cl,%cl
   140003509:	74 35                	je     140003540 <str_ieq.part.0+0x70>
   14000350b:	48 83 c7 01          	add    $0x1,%rdi
   14000350f:	0f b6 1f             	movzbl (%rdi),%ebx
   140003512:	84 db                	test   %bl,%bl
   140003514:	75 da                	jne    1400034f0 <str_ieq.part.0+0x20>
   140003516:	31 c0                	xor    %eax,%eax
   140003518:	38 d9                	cmp    %bl,%cl
   14000351a:	0f 94 c0             	sete   %al
   14000351d:	48 83 c4 20          	add    $0x20,%rsp
   140003521:	5b                   	pop    %rbx
   140003522:	5e                   	pop    %rsi
   140003523:	5f                   	pop    %rdi
   140003524:	5d                   	pop    %rbp
   140003525:	41 5c                	pop    %r12
   140003527:	c3                   	ret
   140003528:	0f 1f 84 00 00 00 00 	nopl   0x0(%rax,%rax,1)
   14000352f:	00 
   140003530:	31 c0                	xor    %eax,%eax
   140003532:	48 83 c4 20          	add    $0x20,%rsp
   140003536:	5b                   	pop    %rbx
   140003537:	5e                   	pop    %rsi
   140003538:	5f                   	pop    %rdi
   140003539:	5d                   	pop    %rbp
   14000353a:	41 5c                	pop    %r12
   14000353c:	c3                   	ret
   14000353d:	0f 1f 00             	nopl   (%rax)
   140003540:	0f b6 5f 01          	movzbl 0x1(%rdi),%ebx
   140003544:	eb d0                	jmp    140003516 <str_ieq.part.0+0x46>
   140003546:	0f b6 1a             	movzbl (%rdx),%ebx
   140003549:	eb cb                	jmp    140003516 <str_ieq.part.0+0x46>
   14000354b:	0f 1f 44 00 00       	nopl   0x0(%rax,%rax,1)

0000000140003550 <str_contains_ci.part.0>:
   140003550:	41 55                	push   %r13
   140003552:	41 54                	push   %r12
   140003554:	55                   	push   %rbp
   140003555:	57                   	push   %rdi
   140003556:	56                   	push   %rsi
   140003557:	53                   	push   %rbx
   140003558:	48 83 ec 28          	sub    $0x28,%rsp
   14000355c:	48 89 cf             	mov    %rcx,%rdi
   14000355f:	48 89 d5             	mov    %rdx,%rbp
   140003562:	80 39 00             	cmpb   $0x0,(%rcx)
   140003565:	74 43                	je     1400035aa <str_contains_ci.part.0+0x5a>
   140003567:	48 89 d1             	mov    %rdx,%rcx
   14000356a:	e8 19 02 04 00       	call   140043788 <strlen>
   14000356f:	49 89 c4             	mov    %rax,%r12
   140003572:	48 85 c0             	test   %rax,%rax
   140003575:	74 49                	je     1400035c0 <str_contains_ci.part.0+0x70>
   140003577:	48 8b 35 aa 52 3a 00 	mov    0x3a52aa(%rip),%rsi        # 1403a8828 <__imp_tolower>
   14000357e:	31 db                	xor    %ebx,%ebx
   140003580:	eb 20                	jmp    1400035a2 <str_contains_ci.part.0+0x52>
   140003582:	66 0f 1f 44 00 00    	nopw   0x0(%rax,%rax,1)
   140003588:	ff d6                	call   *%rsi
   14000358a:	0f b6 4c 1d 00       	movzbl 0x0(%rbp,%rbx,1),%ecx
   14000358f:	41 89 c5             	mov    %eax,%r13d
   140003592:	ff d6                	call   *%rsi
   140003594:	41 39 c5             	cmp    %eax,%r13d
   140003597:	75 3f                	jne    1400035d8 <str_contains_ci.part.0+0x88>
   140003599:	48 83 c3 01          	add    $0x1,%rbx
   14000359d:	49 39 dc             	cmp    %rbx,%r12
   1400035a0:	74 1e                	je     1400035c0 <str_contains_ci.part.0+0x70>
   1400035a2:	0f b6 0c 1f          	movzbl (%rdi,%rbx,1),%ecx
   1400035a6:	84 c9                	test   %cl,%cl
   1400035a8:	75 de                	jne    140003588 <str_contains_ci.part.0+0x38>
   1400035aa:	31 c0                	xor    %eax,%eax
   1400035ac:	48 83 c4 28          	add    $0x28,%rsp
   1400035b0:	5b                   	pop    %rbx
   1400035b1:	5e                   	pop    %rsi
   1400035b2:	5f                   	pop    %rdi
   1400035b3:	5d                   	pop    %rbp
   1400035b4:	41 5c                	pop    %r12
   1400035b6:	41 5d                	pop    %r13
   1400035b8:	c3                   	ret
   1400035b9:	0f 1f 80 00 00 00 00 	nopl   0x0(%rax)
   1400035c0:	b8 01 00 00 00       	mov    $0x1,%eax
   1400035c5:	48 83 c4 28          	add    $0x28,%rsp
   1400035c9:	5b                   	pop    %rbx
   1400035ca:	5e                   	pop    %rsi
   1400035cb:	5f                   	pop    %rdi
   1400035cc:	5d                   	pop    %rbp
   1400035cd:	41 5c                	pop    %r12
   1400035cf:	41 5d                	pop    %r13
   1400035d1:	c3                   	ret
   1400035d2:	66 0f 1f 44 00 00    	nopw   0x0(%rax,%rax,1)
   1400035d8:	49 39 dc             	cmp    %rbx,%r12
   1400035db:	74 e3                	je     1400035c0 <str_contains_ci.part.0+0x70>
   1400035dd:	48 83 c7 01          	add    $0x1,%rdi
   1400035e1:	80 3f 00             	cmpb   $0x0,(%rdi)
   1400035e4:	75 98                	jne    14000357e <str_contains_ci.part.0+0x2e>
   1400035e6:	eb c2                	jmp    1400035aa <str_contains_ci.part.0+0x5a>
   1400035e8:	0f 1f 84 00 00 00 00 	nopl   0x0(%rax,%rax,1)
   1400035ef:	00 

00000001400035f0 <str_contains_ci>:
   1400035f0:	48 85 c9             	test   %rcx,%rcx
   1400035f3:	74 13                	je     140003608 <str_contains_ci+0x18>
   1400035f5:	48 85 d2             	test   %rdx,%rdx
   1400035f8:	74 0e                	je     140003608 <str_contains_ci+0x18>
   1400035fa:	80 3a 00             	cmpb   $0x0,(%rdx)
   1400035fd:	74 09                	je     140003608 <str_contains_ci+0x18>
   1400035ff:	e9 4c ff ff ff       	jmp    140003550 <str_contains_ci.part.0>
   140003604:	0f 1f 40 00          	nopl   0x0(%rax)
   140003608:	31 c0                	xor    %eax,%eax
   14000360a:	c3                   	ret
   14000360b:	0f 1f 44 00 00       	nopl   0x0(%rax,%rax,1)

0000000140003610 <eq_sync_ready_item>:
   140003610:	80 3d 19 1f 21 00 00 	cmpb   $0x0,0x211f19(%rip)        # 140215530 <g_eq_slots+0xf0>
   140003617:	4c 8d 0d 12 1f 21 00 	lea    0x211f12(%rip),%r9        # 140215530 <g_eq_slots+0xf0>
   14000361e:	75 1f                	jne    14000363f <eq_sync_ready_item+0x2f>
   140003620:	80 3d 39 1f 21 00 00 	cmpb   $0x0,0x211f39(%rip)        # 140215560 <g_eq_slots+0x120>
   140003627:	75 0f                	jne    140003638 <eq_sync_ready_item+0x28>
   140003629:	c6 05 90 1f 21 00 00 	movb   $0x0,0x211f90(%rip)        # 1402155c0 <g_ready_item>
   140003630:	c3                   	ret
   140003631:	0f 1f 80 00 00 00 00 	nopl   0x0(%rax)
   140003638:	4c 8d 0d 21 1f 21 00 	lea    0x211f21(%rip),%r9        # 140215560 <g_eq_slots+0x120>
   14000363f:	4c 8d 05 d9 2c 04 00 	lea    0x42cd9(%rip),%r8        # 14004631f <.rdata+0x2bf>
   140003646:	ba 30 00 00 00       	mov    $0x30,%edx
   14000364b:	48 8d 0d 6e 1f 21 00 	lea    0x211f6e(%rip),%rcx        # 1402155c0 <g_ready_item>
   140003652:	e9 99 fe 03 00       	jmp    1400434f0 <snprintf>
   140003657:	66 0f 1f 84 00 00 00 	nopw   0x0(%rax,%rax,1)
   14000365e:	00 00 

0000000140003660 <notes_set_done_line.part.0>:
   140003660:	57                   	push   %rdi
   140003661:	56                   	push   %rsi
   140003662:	53                   	push   %rbx
   140003663:	48 81 ec e0 00 00 00 	sub    $0xe0,%rsp
   14000366a:	48 8d 05 6f fe 20 00 	lea    0x20fe6f(%rip),%rax        # 1402134e0 <g_notes>
   140003671:	41 b8 04 00 00 00    	mov    $0x4,%r8d
   140003677:	83 e9 01             	sub    $0x1,%ecx
   14000367a:	89 d7                	mov    %edx,%edi
   14000367c:	48 8d 15 91 2b 04 00 	lea    0x42b91(%rip),%rdx        # 140046214 <.rdata+0x1b4>
   140003683:	48 63 c9             	movslq %ecx,%rcx
   140003686:	48 8d 1c 49          	lea    (%rcx,%rcx,2),%rbx
   14000368a:	48 c1 e3 06          	shl    $0x6,%rbx
   14000368e:	48 01 c3             	add    %rax,%rbx
   140003691:	48 89 d9             	mov    %rbx,%rcx
   140003694:	e8 ff 00 04 00       	call   140043798 <strncmp>
   140003699:	85 c0                	test   %eax,%eax
   14000369b:	0f 84 67 01 00 00    	je     140003808 <notes_set_done_line.part.0+0x1a8>
   1400036a1:	41 b8 04 00 00 00    	mov    $0x4,%r8d
   1400036a7:	48 8d 15 6b 2b 04 00 	lea    0x42b6b(%rip),%rdx        # 140046219 <.rdata+0x1b9>
   1400036ae:	48 89 d9             	mov    %rbx,%rcx
   1400036b1:	48 89 de             	mov    %rbx,%rsi
   1400036b4:	e8 df 00 04 00       	call   140043798 <strncmp>
   1400036b9:	85 c0                	test   %eax,%eax
   1400036bb:	0f 84 47 01 00 00    	je     140003808 <notes_set_done_line.part.0+0x1a8>
   1400036c1:	48 89 f1             	mov    %rsi,%rcx
   1400036c4:	e8 bf 00 04 00       	call   140043788 <strlen>
   1400036c9:	4c 8d 40 04          	lea    0x4(%rax),%r8
   1400036cd:	48 89 c2             	mov    %rax,%rdx
   1400036d0:	b8 bf 00 00 00       	mov    $0xbf,%eax
   1400036d5:	49 81 f8 bf 00 00 00 	cmp    $0xbf,%r8
   1400036dc:	4c 0f 47 c0          	cmova  %rax,%r8
   1400036e0:	b8 bb 00 00 00       	mov    $0xbb,%eax
   1400036e5:	48 0f 46 c2          	cmovbe %rdx,%rax
   1400036e9:	83 ff 01             	cmp    $0x1,%edi
   1400036ec:	19 d2                	sbb    %edx,%edx
   1400036ee:	81 e2 00 a8 ff ff    	and    $0xffffa800,%edx
   1400036f4:	89 c1                	mov    %eax,%ecx
   1400036f6:	81 c2 5b 78 5d 20    	add    $0x205d785b,%edx
   1400036fc:	89 54 24 20          	mov    %edx,0x20(%rsp)
   140003700:	48 8d 54 24 24       	lea    0x24(%rsp),%rdx
   140003705:	83 f8 08             	cmp    $0x8,%eax
   140003708:	73 26                	jae    140003730 <notes_set_done_line.part.0+0xd0>
   14000370a:	a8 04                	test   $0x4,%al
   14000370c:	0f 85 06 01 00 00    	jne    140003818 <notes_set_done_line.part.0+0x1b8>
   140003712:	85 c0                	test   %eax,%eax
   140003714:	74 42                	je     140003758 <notes_set_done_line.part.0+0xf8>
   140003716:	0f b6 0e             	movzbl (%rsi),%ecx
   140003719:	88 4c 24 24          	mov    %cl,0x24(%rsp)
   14000371d:	a8 02                	test   $0x2,%al
   14000371f:	74 37                	je     140003758 <notes_set_done_line.part.0+0xf8>
   140003721:	89 c0                	mov    %eax,%eax
   140003723:	0f b7 4c 06 fe       	movzwl -0x2(%rsi,%rax,1),%ecx
   140003728:	66 89 4c 02 fe       	mov    %cx,-0x2(%rdx,%rax,1)
   14000372d:	eb 29                	jmp    140003758 <notes_set_done_line.part.0+0xf8>
   14000372f:	90                   	nop
   140003730:	48 8b 0e             	mov    (%rsi),%rcx
   140003733:	48 8d 7c 24 28       	lea    0x28(%rsp),%rdi
   140003738:	48 89 4c 24 24       	mov    %rcx,0x24(%rsp)
   14000373d:	89 c1                	mov    %eax,%ecx
   14000373f:	4c 8b 4c 0e f8       	mov    -0x8(%rsi,%rcx,1),%r9
   140003744:	4c 89 4c 0a f8       	mov    %r9,-0x8(%rdx,%rcx,1)
   140003749:	48 29 fa             	sub    %rdi,%rdx
   14000374c:	8d 0c 10             	lea    (%rax,%rdx,1),%ecx
   14000374f:	48 29 d6             	sub    %rdx,%rsi
   140003752:	c1 e9 03             	shr    $0x3,%ecx
   140003755:	f3 48 a5             	rep movsq (%rsi),(%rdi)
   140003758:	42 c6 44 04 20 00    	movb   $0x0,0x20(%rsp,%r8,1)
   14000375e:	66 0f 6f 44 24 20    	movdqa 0x20(%rsp),%xmm0
   140003764:	b8 01 00 00 00       	mov    $0x1,%eax
   140003769:	66 0f 6f 4c 24 30    	movdqa 0x30(%rsp),%xmm1
   14000376f:	66 0f 6f 54 24 40    	movdqa 0x40(%rsp),%xmm2
   140003775:	66 0f 6f 5c 24 50    	movdqa 0x50(%rsp),%xmm3
   14000377b:	66 0f 6f 64 24 60    	movdqa 0x60(%rsp),%xmm4
   140003781:	0f 29 03             	movaps %xmm0,(%rbx)
   140003784:	66 0f 6f 6c 24 70    	movdqa 0x70(%rsp),%xmm5
   14000378a:	0f 29 4b 10          	movaps %xmm1,0x10(%rbx)
   14000378e:	66 0f 6f 84 24 80 00 	movdqa 0x80(%rsp),%xmm0
   140003795:	00 00 
   140003797:	66 0f 6f 8c 24 90 00 	movdqa 0x90(%rsp),%xmm1
   14000379e:	00 00 
   1400037a0:	0f 29 53 20          	movaps %xmm2,0x20(%rbx)
   1400037a4:	66 0f 6f 94 24 a0 00 	movdqa 0xa0(%rsp),%xmm2
   1400037ab:	00 00 
   1400037ad:	0f 29 5b 30          	movaps %xmm3,0x30(%rbx)
   1400037b1:	66 0f 6f 9c 24 b0 00 	movdqa 0xb0(%rsp),%xmm3
   1400037b8:	00 00 
   1400037ba:	0f 29 63 40          	movaps %xmm4,0x40(%rbx)
   1400037be:	66 0f 6f a4 24 c0 00 	movdqa 0xc0(%rsp),%xmm4
   1400037c5:	00 00 
   1400037c7:	0f 29 6b 50          	movaps %xmm5,0x50(%rbx)
   1400037cb:	66 0f 6f ac 24 d0 00 	movdqa 0xd0(%rsp),%xmm5
   1400037d2:	00 00 
   1400037d4:	0f 29 43 60          	movaps %xmm0,0x60(%rbx)
   1400037d8:	0f 29 4b 70          	movaps %xmm1,0x70(%rbx)
   1400037dc:	0f 29 93 80 00 00 00 	movaps %xmm2,0x80(%rbx)
   1400037e3:	0f 29 9b 90 00 00 00 	movaps %xmm3,0x90(%rbx)
   1400037ea:	0f 29 a3 a0 00 00 00 	movaps %xmm4,0xa0(%rbx)
   1400037f1:	0f 29 ab b0 00 00 00 	movaps %xmm5,0xb0(%rbx)
   1400037f8:	48 81 c4 e0 00 00 00 	add    $0xe0,%rsp
   1400037ff:	5b                   	pop    %rbx
   140003800:	5e                   	pop    %rsi
   140003801:	5f                   	pop    %rdi
   140003802:	c3                   	ret
   140003803:	0f 1f 44 00 00       	nopl   0x0(%rax,%rax,1)
   140003808:	48 8d 73 04          	lea    0x4(%rbx),%rsi
   14000380c:	e9 b0 fe ff ff       	jmp    1400036c1 <notes_set_done_line.part.0+0x61>
   140003811:	0f 1f 80 00 00 00 00 	nopl   0x0(%rax)
   140003818:	8b 06                	mov    (%rsi),%eax
   14000381a:	89 44 24 24          	mov    %eax,0x24(%rsp)
   14000381e:	8b 44 0e fc          	mov    -0x4(%rsi,%rcx,1),%eax
   140003822:	89 44 0a fc          	mov    %eax,-0x4(%rdx,%rcx,1)
   140003826:	e9 2d ff ff ff       	jmp    140003758 <notes_set_done_line.part.0+0xf8>
   14000382b:	0f 1f 44 00 00       	nopl   0x0(%rax,%rax,1)

0000000140003830 <notes_set_done_line>:
   140003830:	39 0d 8a fc 20 00    	cmp    %ecx,0x20fc8a(%rip)        # 1402134c0 <g_note_n>
   140003836:	7c 08                	jl     140003840 <notes_set_done_line+0x10>
   140003838:	e9 23 fe ff ff       	jmp    140003660 <notes_set_done_line.part.0>
   14000383d:	0f 1f 00             	nopl   (%rax)
   140003840:	31 c0                	xor    %eax,%eax
   140003842:	c3                   	ret
   140003843:	66 90                	xchg   %ax,%ax
   140003845:	66 66 2e 0f 1f 84 00 	data16 cs nopw 0x0(%rax,%rax,1)
   14000384c:	00 00 00 00 

0000000140003850 <format_intent_suffix.part.0>:
   140003850:	57                   	push   %rdi
   140003851:	56                   	push   %rsi
   140003852:	53                   	push   %rbx
   140003853:	48 83 ec 20          	sub    $0x20,%rsp
   140003857:	c6 01 00             	movb   $0x0,(%rcx)
   14000385a:	48 89 cb             	mov    %rcx,%rbx
   14000385d:	4c 89 c7             	mov    %r8,%rdi
   140003860:	48 8d 72 ff          	lea    -0x1(%rdx),%rsi
   140003864:	e8 1f ff 03 00       	call   140043788 <strlen>
   140003869:	ba 3a 00 00 00       	mov    $0x3a,%edx
   14000386e:	48 b9 20 5b 49 6e 74 	movabs $0x746e65746e495b20,%rcx
   140003875:	65 6e 74 
   140003878:	48 89 0c 03          	mov    %rcx,(%rbx,%rax,1)
   14000387c:	48 89 d9             	mov    %rbx,%rcx
   14000387f:	66 89 54 03 08       	mov    %dx,0x8(%rbx,%rax,1)
   140003884:	e8 ff fe 03 00       	call   140043788 <strlen>
   140003889:	8b 4f 08             	mov    0x8(%rdi),%ecx
   14000388c:	49 89 f0             	mov    %rsi,%r8
   14000388f:	49 29 c0             	sub    %rax,%r8
   140003892:	85 c9                	test   %ecx,%ecx
   140003894:	0f 85 06 01 00 00    	jne    1400039a0 <format_intent_suffix.part.0+0x150>
   14000389a:	44 8b 4f 0c          	mov    0xc(%rdi),%r9d
   14000389e:	45 85 c9             	test   %r9d,%r9d
   1400038a1:	0f 85 91 00 00 00    	jne    140003938 <format_intent_suffix.part.0+0xe8>
   1400038a7:	44 8b 0f             	mov    (%rdi),%r9d
   1400038aa:	45 85 c9             	test   %r9d,%r9d
   1400038ad:	0f 84 4d 01 00 00    	je     140003a00 <format_intent_suffix.part.0+0x1b0>
   1400038b3:	48 8d 15 2c 2b 04 00 	lea    0x42b2c(%rip),%rdx        # 1400463e6 <.rdata+0x386>
   1400038ba:	48 89 d9             	mov    %rbx,%rcx
   1400038bd:	e8 ce fe 03 00       	call   140043790 <strncat>
   1400038c2:	8b 4f 04             	mov    0x4(%rdi),%ecx
   1400038c5:	85 c9                	test   %ecx,%ecx
   1400038c7:	0f 84 ae 00 00 00    	je     14000397b <format_intent_suffix.part.0+0x12b>
   1400038cd:	48 89 d9             	mov    %rbx,%rcx
   1400038d0:	e8 b3 fe 03 00       	call   140043788 <strlen>
   1400038d5:	49 89 f0             	mov    %rsi,%r8
   1400038d8:	48 8d 15 0e 2b 04 00 	lea    0x42b0e(%rip),%rdx        # 1400463ed <.rdata+0x38d>
   1400038df:	49 29 c0             	sub    %rax,%r8
   1400038e2:	48 89 d9             	mov    %rbx,%rcx
   1400038e5:	e8 a6 fe 03 00       	call   140043790 <strncat>
   1400038ea:	8b 47 10             	mov    0x10(%rdi),%eax
   1400038ed:	85 c0                	test   %eax,%eax
   1400038ef:	74 1d                	je     14000390e <format_intent_suffix.part.0+0xbe>
   1400038f1:	48 89 d9             	mov    %rbx,%rcx
   1400038f4:	e8 8f fe 03 00       	call   140043788 <strlen>
   1400038f9:	49 89 f0             	mov    %rsi,%r8
   1400038fc:	48 8d 15 f7 2a 04 00 	lea    0x42af7(%rip),%rdx        # 1400463fa <.rdata+0x39a>
   140003903:	49 29 c0             	sub    %rax,%r8
   140003906:	48 89 d9             	mov    %rbx,%rcx
   140003909:	e8 82 fe 03 00       	call   140043790 <strncat>
   14000390e:	48 89 d9             	mov    %rbx,%rcx
   140003911:	e8 72 fe 03 00       	call   140043788 <strlen>
   140003916:	48 8d 15 fa 2a 04 00 	lea    0x42afa(%rip),%rdx        # 140046417 <.rdata+0x3b7>
   14000391d:	48 89 d9             	mov    %rbx,%rcx
   140003920:	48 29 c6             	sub    %rax,%rsi
   140003923:	49 89 f0             	mov    %rsi,%r8
   140003926:	48 83 c4 20          	add    $0x20,%rsp
   14000392a:	5b                   	pop    %rbx
   14000392b:	5e                   	pop    %rsi
   14000392c:	5f                   	pop    %rdi
   14000392d:	e9 5e fe 03 00       	jmp    140043790 <strncat>
   140003932:	66 0f 1f 44 00 00    	nopw   0x0(%rax,%rax,1)
   140003938:	48 8d 15 90 2a 04 00 	lea    0x42a90(%rip),%rdx        # 1400463cf <.rdata+0x36f>
   14000393f:	48 89 d9             	mov    %rbx,%rcx
   140003942:	e8 49 fe 03 00       	call   140043790 <strncat>
   140003947:	44 8b 1f             	mov    (%rdi),%r11d
   14000394a:	48 89 d9             	mov    %rbx,%rcx
   14000394d:	45 85 db             	test   %r11d,%r11d
   140003950:	0f 84 82 00 00 00    	je     1400039d8 <format_intent_suffix.part.0+0x188>
   140003956:	e8 2d fe 03 00       	call   140043788 <strlen>
   14000395b:	49 89 f0             	mov    %rsi,%r8
   14000395e:	48 89 d9             	mov    %rbx,%rcx
   140003961:	48 8d 15 76 2a 04 00 	lea    0x42a76(%rip),%rdx        # 1400463de <.rdata+0x37e>
   140003968:	49 29 c0             	sub    %rax,%r8
   14000396b:	e8 20 fe 03 00       	call   140043790 <strncat>
   140003970:	8b 4f 04             	mov    0x4(%rdi),%ecx
   140003973:	85 c9                	test   %ecx,%ecx
   140003975:	0f 85 52 ff ff ff    	jne    1400038cd <format_intent_suffix.part.0+0x7d>
   14000397b:	8b 7f 10             	mov    0x10(%rdi),%edi
   14000397e:	85 ff                	test   %edi,%edi
   140003980:	74 8c                	je     14000390e <format_intent_suffix.part.0+0xbe>
   140003982:	48 89 d9             	mov    %rbx,%rcx
   140003985:	e8 fe fd 03 00       	call   140043788 <strlen>
   14000398a:	49 89 f0             	mov    %rsi,%r8
   14000398d:	49 29 c0             	sub    %rax,%r8
   140003990:	48 8d 15 63 2a 04 00 	lea    0x42a63(%rip),%rdx        # 1400463fa <.rdata+0x39a>
   140003997:	e9 6a ff ff ff       	jmp    140003906 <format_intent_suffix.part.0+0xb6>
   14000399c:	0f 1f 40 00          	nopl   0x0(%rax)
   1400039a0:	48 89 d9             	mov    %rbx,%rcx
   1400039a3:	48 8d 15 63 2a 04 00 	lea    0x42a63(%rip),%rdx        # 14004640d <.rdata+0x3ad>
   1400039aa:	e8 e1 fd 03 00       	call   140043790 <strncat>
   1400039af:	8b 47 0c             	mov    0xc(%rdi),%eax
   1400039b2:	48 89 d9             	mov    %rbx,%rcx
   1400039b5:	85 c0                	test   %eax,%eax
   1400039b7:	0f 84 a3 00 00 00    	je     140003a60 <format_intent_suffix.part.0+0x210>
   1400039bd:	e8 c6 fd 03 00       	call   140043788 <strlen>
   1400039c2:	49 89 f0             	mov    %rsi,%r8
   1400039c5:	48 8d 15 0a 2a 04 00 	lea    0x42a0a(%rip),%rdx        # 1400463d6 <.rdata+0x376>
   1400039cc:	49 29 c0             	sub    %rax,%r8
   1400039cf:	e9 6b ff ff ff       	jmp    14000393f <format_intent_suffix.part.0+0xef>
   1400039d4:	0f 1f 40 00          	nopl   0x0(%rax)
   1400039d8:	e8 ab fd 03 00       	call   140043788 <strlen>
   1400039dd:	8b 57 04             	mov    0x4(%rdi),%edx
   1400039e0:	85 d2                	test   %edx,%edx
   1400039e2:	74 5c                	je     140003a40 <format_intent_suffix.part.0+0x1f0>
   1400039e4:	49 89 f0             	mov    %rsi,%r8
   1400039e7:	48 8d 15 ff 29 04 00 	lea    0x429ff(%rip),%rdx        # 1400463ed <.rdata+0x38d>
   1400039ee:	49 29 c0             	sub    %rax,%r8
   1400039f1:	e9 ec fe ff ff       	jmp    1400038e2 <format_intent_suffix.part.0+0x92>
   1400039f6:	66 2e 0f 1f 84 00 00 	cs nopw 0x0(%rax,%rax,1)
   1400039fd:	00 00 00 
   140003a00:	8b 47 04             	mov    0x4(%rdi),%eax
   140003a03:	48 8d 15 ea 29 04 00 	lea    0x429ea(%rip),%rdx        # 1400463f4 <.rdata+0x394>
   140003a0a:	85 c0                	test   %eax,%eax
   140003a0c:	0f 85 d0 fe ff ff    	jne    1400038e2 <format_intent_suffix.part.0+0x92>
   140003a12:	48 89 d9             	mov    %rbx,%rcx
   140003a15:	e8 6e fd 03 00       	call   140043788 <strlen>
   140003a1a:	44 8b 5f 10          	mov    0x10(%rdi),%r11d
   140003a1e:	49 89 f0             	mov    %rsi,%r8
   140003a21:	49 29 c0             	sub    %rax,%r8
   140003a24:	45 85 db             	test   %r11d,%r11d
   140003a27:	0f 84 e1 fe ff ff    	je     14000390e <format_intent_suffix.part.0+0xbe>
   140003a2d:	48 8d 15 d0 29 04 00 	lea    0x429d0(%rip),%rdx        # 140046404 <.rdata+0x3a4>
   140003a34:	e9 cd fe ff ff       	jmp    140003906 <format_intent_suffix.part.0+0xb6>
   140003a39:	0f 1f 80 00 00 00 00 	nopl   0x0(%rax)
   140003a40:	8b 4f 10             	mov    0x10(%rdi),%ecx
   140003a43:	85 c9                	test   %ecx,%ecx
   140003a45:	0f 84 c3 fe ff ff    	je     14000390e <format_intent_suffix.part.0+0xbe>
   140003a4b:	49 89 f0             	mov    %rsi,%r8
   140003a4e:	49 29 c0             	sub    %rax,%r8
   140003a51:	e9 3a ff ff ff       	jmp    140003990 <format_intent_suffix.part.0+0x140>
   140003a56:	66 2e 0f 1f 84 00 00 	cs nopw 0x0(%rax,%rax,1)
   140003a5d:	00 00 00 
   140003a60:	e8 23 fd 03 00       	call   140043788 <strlen>
   140003a65:	44 8b 17             	mov    (%rdi),%r10d
   140003a68:	45 85 d2             	test   %r10d,%r10d
   140003a6b:	75 33                	jne    140003aa0 <format_intent_suffix.part.0+0x250>
   140003a6d:	8b 57 04             	mov    0x4(%rdi),%edx
   140003a70:	85 d2                	test   %edx,%edx
   140003a72:	0f 85 6c ff ff ff    	jne    1400039e4 <format_intent_suffix.part.0+0x194>
   140003a78:	48 89 d9             	mov    %rbx,%rcx
   140003a7b:	e8 08 fd 03 00       	call   140043788 <strlen>
   140003a80:	44 8b 57 10          	mov    0x10(%rdi),%r10d
   140003a84:	49 89 f0             	mov    %rsi,%r8
   140003a87:	49 29 c0             	sub    %rax,%r8
   140003a8a:	45 85 d2             	test   %r10d,%r10d
   140003a8d:	0f 85 fd fe ff ff    	jne    140003990 <format_intent_suffix.part.0+0x140>
   140003a93:	e9 76 fe ff ff       	jmp    14000390e <format_intent_suffix.part.0+0xbe>
   140003a98:	0f 1f 84 00 00 00 00 	nopl   0x0(%rax,%rax,1)
   140003a9f:	00 
   140003aa0:	49 89 f0             	mov    %rsi,%r8
   140003aa3:	48 8d 15 34 29 04 00 	lea    0x42934(%rip),%rdx        # 1400463de <.rdata+0x37e>
   140003aaa:	49 29 c0             	sub    %rax,%r8
   140003aad:	e9 08 fe ff ff       	jmp    1400038ba <format_intent_suffix.part.0+0x6a>
   140003ab2:	0f 1f 00             	nopl   (%rax)
   140003ab5:	66 66 2e 0f 1f 84 00 	data16 cs nopw 0x0(%rax,%rax,1)
   140003abc:	00 00 00 00 

0000000140003ac0 <item_est_heft.part.0>:
   140003ac0:	41 55                	push   %r13
   140003ac2:	41 54                	push   %r12
   140003ac4:	55                   	push   %rbp
   140003ac5:	57                   	push   %rdi
   140003ac6:	56                   	push   %rsi
   140003ac7:	53                   	push   %rbx
   140003ac8:	48 83 ec 58          	sub    $0x58,%rsp
   140003acc:	41 bc 2f 00 00 00    	mov    $0x2f,%r12d
   140003ad2:	48 89 cb             	mov    %rcx,%rbx
   140003ad5:	48 8d 6c 24 20       	lea    0x20(%rsp),%rbp
   140003ada:	e8 a9 fc 03 00       	call   140043788 <strlen>
   140003adf:	4c 39 e0             	cmp    %r12,%rax
   140003ae2:	4c 0f 46 e0          	cmovbe %rax,%r12
   140003ae6:	48 85 c0             	test   %rax,%rax
   140003ae9:	74 2c                	je     140003b17 <item_est_heft.part.0+0x57>
   140003aeb:	4c 8b 2d 36 4d 3a 00 	mov    0x3a4d36(%rip),%r13        # 1403a8828 <__imp_tolower>
   140003af2:	48 89 ef             	mov    %rbp,%rdi
   140003af5:	31 f6                	xor    %esi,%esi
   140003af7:	66 0f 1f 84 00 00 00 	nopw   0x0(%rax,%rax,1)
   140003afe:	00 00 
   140003b00:	0f b6 0c 33          	movzbl (%rbx,%rsi,1),%ecx
   140003b04:	48 83 c6 01          	add    $0x1,%rsi
   140003b08:	48 83 c7 01          	add    $0x1,%rdi
   140003b0c:	41 ff d5             	call   *%r13
   140003b0f:	88 47 ff             	mov    %al,-0x1(%rdi)
   140003b12:	4c 39 e6             	cmp    %r12,%rsi
   140003b15:	72 e9                	jb     140003b00 <item_est_heft.part.0+0x40>
   140003b17:	0f b6 03             	movzbl (%rbx),%eax
   140003b1a:	42 c6 44 24 20 00    	movb   $0x0,0x20(%rsp,%r12,1)
   140003b20:	ba c5 9d 1c 81       	mov    $0x811c9dc5,%edx
   140003b25:	84 c0                	test   %al,%al
   140003b27:	0f 84 63 01 00 00    	je     140003c90 <item_est_heft.part.0+0x1d0>
   140003b2d:	0f 1f 84 00 00 00 00 	nopl   0x0(%rax,%rax,1)
   140003b34:	00 
   140003b35:	66 66 2e 0f 1f 84 00 	data16 cs nopw 0x0(%rax,%rax,1)
   140003b3c:	00 00 00 00 
   140003b40:	48 83 c3 01          	add    $0x1,%rbx
   140003b44:	31 c2                	xor    %eax,%edx
   140003b46:	0f b6 03             	movzbl (%rbx),%eax
   140003b49:	69 d2 93 01 00 01    	imul   $0x1000193,%edx,%edx
   140003b4f:	84 c0                	test   %al,%al
   140003b51:	75 ed                	jne    140003b40 <item_est_heft.part.0+0x80>
   140003b53:	89 d3                	mov    %edx,%ebx
   140003b55:	d1 eb                	shr    $1,%ebx
   140003b57:	48 69 db 31 0c c3 30 	imul   $0x30c30c31,%rbx,%rbx
   140003b5e:	48 c1 eb 22          	shr    $0x22,%rbx
   140003b62:	6b c3 2a             	imul   $0x2a,%ebx,%eax
   140003b65:	29 c2                	sub    %eax,%edx
   140003b67:	89 d3                	mov    %edx,%ebx
   140003b69:	8d 72 04             	lea    0x4(%rdx),%esi
   140003b6c:	48 8d 15 a6 28 04 00 	lea    0x428a6(%rip),%rdx        # 140046419 <.rdata+0x3b9>
   140003b73:	48 89 e9             	mov    %rbp,%rcx
   140003b76:	e8 ad fd 03 00       	call   140043928 <strstr>
   140003b7b:	48 85 c0             	test   %rax,%rax
   140003b7e:	74 50                	je     140003bd0 <item_est_heft.part.0+0x110>
   140003b80:	8d 73 20             	lea    0x20(%rbx),%esi
   140003b83:	48 8d 15 a2 28 04 00 	lea    0x428a2(%rip),%rdx        # 14004642c <.rdata+0x3cc>
   140003b8a:	48 89 e9             	mov    %rbp,%rcx
   140003b8d:	e8 96 fd 03 00       	call   140043928 <strstr>
   140003b92:	48 8d 15 9a 28 04 00 	lea    0x4289a(%rip),%rdx        # 140046433 <.rdata+0x3d3>
   140003b99:	48 89 e9             	mov    %rbp,%rcx
   140003b9c:	48 89 c7             	mov    %rax,%rdi
   140003b9f:	e8 84 fd 03 00       	call   140043928 <strstr>
   140003ba4:	48 89 c3             	mov    %rax,%rbx
   140003ba7:	48 85 ff             	test   %rdi,%rdi
   140003baa:	74 54                	je     140003c00 <item_est_heft.part.0+0x140>
   140003bac:	83 c6 0e             	add    $0xe,%esi
   140003baf:	48 85 db             	test   %rbx,%rbx
   140003bb2:	0f 84 a0 00 00 00    	je     140003c58 <item_est_heft.part.0+0x198>
   140003bb8:	83 ee 0a             	sub    $0xa,%esi
   140003bbb:	89 f0                	mov    %esi,%eax
   140003bbd:	48 83 c4 58          	add    $0x58,%rsp
   140003bc1:	5b                   	pop    %rbx
   140003bc2:	5e                   	pop    %rsi
   140003bc3:	5f                   	pop    %rdi
   140003bc4:	5d                   	pop    %rbp
   140003bc5:	41 5c                	pop    %r12
   140003bc7:	41 5d                	pop    %r13
   140003bc9:	c3                   	ret
   140003bca:	66 0f 1f 44 00 00    	nopw   0x0(%rax,%rax,1)
   140003bd0:	48 8d 15 49 28 04 00 	lea    0x42849(%rip),%rdx        # 140046420 <.rdata+0x3c0>
   140003bd7:	48 89 e9             	mov    %rbp,%rcx
   140003bda:	e8 49 fd 03 00       	call   140043928 <strstr>
   140003bdf:	48 85 c0             	test   %rax,%rax
   140003be2:	75 9c                	jne    140003b80 <item_est_heft.part.0+0xc0>
   140003be4:	48 8d 15 3b 28 04 00 	lea    0x4283b(%rip),%rdx        # 140046426 <.rdata+0x3c6>
   140003beb:	48 89 e9             	mov    %rbp,%rcx
   140003bee:	e8 35 fd 03 00       	call   140043928 <strstr>
   140003bf3:	48 85 c0             	test   %rax,%rax
   140003bf6:	75 88                	jne    140003b80 <item_est_heft.part.0+0xc0>
   140003bf8:	eb 89                	jmp    140003b83 <item_est_heft.part.0+0xc3>
   140003bfa:	66 0f 1f 44 00 00    	nopw   0x0(%rax,%rax,1)
   140003c00:	48 8d 15 34 28 04 00 	lea    0x42834(%rip),%rdx        # 14004643b <.rdata+0x3db>
   140003c07:	48 89 e9             	mov    %rbp,%rcx
   140003c0a:	e8 19 fd 03 00       	call   140043928 <strstr>
   140003c0f:	48 85 c0             	test   %rax,%rax
   140003c12:	75 98                	jne    140003bac <item_est_heft.part.0+0xec>
   140003c14:	48 8d 15 26 28 04 00 	lea    0x42826(%rip),%rdx        # 140046441 <.rdata+0x3e1>
   140003c1b:	48 89 e9             	mov    %rbp,%rcx
   140003c1e:	e8 05 fd 03 00       	call   140043928 <strstr>
   140003c23:	48 85 c0             	test   %rax,%rax
   140003c26:	75 84                	jne    140003bac <item_est_heft.part.0+0xec>
   140003c28:	48 8d 15 18 28 04 00 	lea    0x42818(%rip),%rdx        # 140046447 <.rdata+0x3e7>
   140003c2f:	48 89 e9             	mov    %rbp,%rcx
   140003c32:	e8 f1 fc 03 00       	call   140043928 <strstr>
   140003c37:	48 85 c0             	test   %rax,%rax
   140003c3a:	0f 85 6c ff ff ff    	jne    140003bac <item_est_heft.part.0+0xec>
   140003c40:	48 85 db             	test   %rbx,%rbx
   140003c43:	74 5a                	je     140003c9f <item_est_heft.part.0+0x1df>
   140003c45:	83 fe 0c             	cmp    $0xc,%esi
   140003c48:	0f 86 6d ff ff ff    	jbe    140003bbb <item_est_heft.part.0+0xfb>
   140003c4e:	e9 65 ff ff ff       	jmp    140003bb8 <item_est_heft.part.0+0xf8>
   140003c53:	0f 1f 44 00 00       	nopl   0x0(%rax,%rax,1)
   140003c58:	48 8d 15 ee 27 04 00 	lea    0x427ee(%rip),%rdx        # 14004644d <.rdata+0x3ed>
   140003c5f:	48 89 e9             	mov    %rbp,%rcx
   140003c62:	e8 c1 fc 03 00       	call   140043928 <strstr>
   140003c67:	48 85 c0             	test   %rax,%rax
   140003c6a:	0f 85 48 ff ff ff    	jne    140003bb8 <item_est_heft.part.0+0xf8>
   140003c70:	48 8d 15 db 27 04 00 	lea    0x427db(%rip),%rdx        # 140046452 <.rdata+0x3f2>
   140003c77:	48 89 e9             	mov    %rbp,%rcx
   140003c7a:	e8 a9 fc 03 00       	call   140043928 <strstr>
   140003c7f:	48 85 c0             	test   %rax,%rax
   140003c82:	0f 84 33 ff ff ff    	je     140003bbb <item_est_heft.part.0+0xfb>
   140003c88:	e9 2b ff ff ff       	jmp    140003bb8 <item_est_heft.part.0+0xf8>
   140003c8d:	0f 1f 00             	nopl   (%rax)
   140003c90:	be 29 00 00 00       	mov    $0x29,%esi
   140003c95:	bb 25 00 00 00       	mov    $0x25,%ebx
   140003c9a:	e9 cd fe ff ff       	jmp    140003b6c <item_est_heft.part.0+0xac>
   140003c9f:	48 8d 15 a7 27 04 00 	lea    0x427a7(%rip),%rdx        # 14004644d <.rdata+0x3ed>
   140003ca6:	48 89 e9             	mov    %rbp,%rcx
   140003ca9:	e8 7a fc 03 00       	call   140043928 <strstr>
   140003cae:	48 85 c0             	test   %rax,%rax
   140003cb1:	75 92                	jne    140003c45 <item_est_heft.part.0+0x185>
   140003cb3:	48 8d 15 98 27 04 00 	lea    0x42798(%rip),%rdx        # 140046452 <.rdata+0x3f2>
   140003cba:	48 89 e9             	mov    %rbp,%rcx
   140003cbd:	e8 66 fc 03 00       	call   140043928 <strstr>
   140003cc2:	48 85 c0             	test   %rax,%rax
   140003cc5:	0f 85 7a ff ff ff    	jne    140003c45 <item_est_heft.part.0+0x185>
   140003ccb:	e9 eb fe ff ff       	jmp    140003bbb <item_est_heft.part.0+0xfb>

0000000140003cd0 <item_est_value.part.0>:
   140003cd0:	41 55                	push   %r13
   140003cd2:	41 54                	push   %r12
   140003cd4:	55                   	push   %rbp
   140003cd5:	57                   	push   %rdi
   140003cd6:	56                   	push   %rsi
   140003cd7:	53                   	push   %rbx
   140003cd8:	48 83 ec 58          	sub    $0x58,%rsp
   140003cdc:	41 bc 2f 00 00 00    	mov    $0x2f,%r12d
   140003ce2:	48 89 cb             	mov    %rcx,%rbx
   140003ce5:	48 8d 6c 24 20       	lea    0x20(%rsp),%rbp
   140003cea:	e8 99 fa 03 00       	call   140043788 <strlen>
   140003cef:	4c 39 e0             	cmp    %r12,%rax
   140003cf2:	4c 0f 46 e0          	cmovbe %rax,%r12
   140003cf6:	48 85 c0             	test   %rax,%rax
   140003cf9:	74 2c                	je     140003d27 <item_est_value.part.0+0x57>
   140003cfb:	4c 8b 2d 26 4b 3a 00 	mov    0x3a4b26(%rip),%r13        # 1403a8828 <__imp_tolower>
   140003d02:	48 89 ef             	mov    %rbp,%rdi
   140003d05:	31 f6                	xor    %esi,%esi
   140003d07:	66 0f 1f 84 00 00 00 	nopw   0x0(%rax,%rax,1)
   140003d0e:	00 00 
   140003d10:	0f b6 0c 33          	movzbl (%rbx,%rsi,1),%ecx
   140003d14:	48 83 c6 01          	add    $0x1,%rsi
   140003d18:	48 83 c7 01          	add    $0x1,%rdi
   140003d1c:	41 ff d5             	call   *%r13
   140003d1f:	88 47 ff             	mov    %al,-0x1(%rdi)
   140003d22:	4c 39 e6             	cmp    %r12,%rsi
   140003d25:	72 e9                	jb     140003d10 <item_est_value.part.0+0x40>
   140003d27:	0f b6 13             	movzbl (%rbx),%edx
   140003d2a:	42 c6 44 24 20 00    	movb   $0x0,0x20(%rsp,%r12,1)
   140003d30:	b8 05 15 00 00       	mov    $0x1505,%eax
   140003d35:	84 d2                	test   %dl,%dl
   140003d37:	0f 84 4b 01 00 00    	je     140003e88 <item_est_value.part.0+0x1b8>
   140003d3d:	0f 1f 00             	nopl   (%rax)
   140003d40:	89 c1                	mov    %eax,%ecx
   140003d42:	48 83 c3 01          	add    $0x1,%rbx
   140003d46:	c1 e1 05             	shl    $0x5,%ecx
   140003d49:	01 c8                	add    %ecx,%eax
   140003d4b:	01 d0                	add    %edx,%eax
   140003d4d:	0f b6 13             	movzbl (%rbx),%edx
   140003d50:	84 d2                	test   %dl,%dl
   140003d52:	75 ec                	jne    140003d40 <item_est_value.part.0+0x70>
   140003d54:	89 c6                	mov    %eax,%esi
   140003d56:	ba cd cc cc cc       	mov    $0xcccccccd,%edx
   140003d5b:	48 0f af f2          	imul   %rdx,%rsi
   140003d5f:	48 c1 ee 27          	shr    $0x27,%rsi
   140003d63:	8d 14 b6             	lea    (%rsi,%rsi,4),%edx
   140003d66:	c1 e2 05             	shl    $0x5,%edx
   140003d69:	29 d0                	sub    %edx,%eax
   140003d6b:	89 c6                	mov    %eax,%esi
   140003d6d:	8d 58 0c             	lea    0xc(%rax),%ebx
   140003d70:	48 8d 15 df 26 04 00 	lea    0x426df(%rip),%rdx        # 140046456 <.rdata+0x3f6>
   140003d77:	48 89 e9             	mov    %rbp,%rcx
   140003d7a:	e8 a9 fb 03 00       	call   140043928 <strstr>
   140003d7f:	48 85 c0             	test   %rax,%rax
   140003d82:	74 7c                	je     140003e00 <item_est_value.part.0+0x130>
   140003d84:	8d 5e 3c             	lea    0x3c(%rsi),%ebx
   140003d87:	48 8d 15 e1 26 04 00 	lea    0x426e1(%rip),%rdx        # 14004646f <.rdata+0x40f>
   140003d8e:	48 89 e9             	mov    %rbp,%rcx
   140003d91:	e8 92 fb 03 00       	call   140043928 <strstr>
   140003d96:	48 89 e9             	mov    %rbp,%rcx
   140003d99:	48 89 c2             	mov    %rax,%rdx
   140003d9c:	8d 43 1c             	lea    0x1c(%rbx),%eax
   140003d9f:	48 85 d2             	test   %rdx,%rdx
   140003da2:	48 8d 15 a9 26 04 00 	lea    0x426a9(%rip),%rdx        # 140046452 <.rdata+0x3f2>
   140003da9:	0f 45 d8             	cmovne %eax,%ebx
   140003dac:	e8 77 fb 03 00       	call   140043928 <strstr>
   140003db1:	48 89 e9             	mov    %rbp,%rcx
   140003db4:	48 89 c2             	mov    %rax,%rdx
   140003db7:	8d 43 12             	lea    0x12(%rbx),%eax
   140003dba:	48 85 d2             	test   %rdx,%rdx
   140003dbd:	48 8d 15 b2 26 04 00 	lea    0x426b2(%rip),%rdx        # 140046476 <.rdata+0x416>
   140003dc4:	0f 45 d8             	cmovne %eax,%ebx
   140003dc7:	e8 5c fb 03 00       	call   140043928 <strstr>
   140003dcc:	48 89 e9             	mov    %rbp,%rcx
   140003dcf:	48 89 c2             	mov    %rax,%rdx
   140003dd2:	8d 43 14             	lea    0x14(%rbx),%eax
   140003dd5:	48 85 d2             	test   %rdx,%rdx
   140003dd8:	48 8d 15 a0 26 04 00 	lea    0x426a0(%rip),%rdx        # 14004647f <.rdata+0x41f>
   140003ddf:	0f 45 d8             	cmovne %eax,%ebx
   140003de2:	e8 41 fb 03 00       	call   140043928 <strstr>
   140003de7:	48 85 c0             	test   %rax,%rax
   140003dea:	74 7c                	je     140003e68 <item_est_value.part.0+0x198>
   140003dec:	83 c3 0a             	add    $0xa,%ebx
   140003def:	89 d8                	mov    %ebx,%eax
   140003df1:	48 83 c4 58          	add    $0x58,%rsp
   140003df5:	5b                   	pop    %rbx
   140003df6:	5e                   	pop    %rsi
   140003df7:	5f                   	pop    %rdi
   140003df8:	5d                   	pop    %rbp
   140003df9:	41 5c                	pop    %r12
   140003dfb:	41 5d                	pop    %r13
   140003dfd:	c3                   	ret
   140003dfe:	66 90                	xchg   %ax,%ax
   140003e00:	48 8d 15 54 26 04 00 	lea    0x42654(%rip),%rdx        # 14004645b <.rdata+0x3fb>
   140003e07:	48 89 e9             	mov    %rbp,%rcx
   140003e0a:	e8 19 fb 03 00       	call   140043928 <strstr>
   140003e0f:	48 85 c0             	test   %rax,%rax
   140003e12:	0f 85 6c ff ff ff    	jne    140003d84 <item_est_value.part.0+0xb4>
   140003e18:	48 8d 15 41 26 04 00 	lea    0x42641(%rip),%rdx        # 140046460 <.rdata+0x400>
   140003e1f:	48 89 e9             	mov    %rbp,%rcx
   140003e22:	e8 01 fb 03 00       	call   140043928 <strstr>
   140003e27:	48 85 c0             	test   %rax,%rax
   140003e2a:	0f 85 54 ff ff ff    	jne    140003d84 <item_est_value.part.0+0xb4>
   140003e30:	48 8d 15 2e 26 04 00 	lea    0x4262e(%rip),%rdx        # 140046465 <.rdata+0x405>
   140003e37:	48 89 e9             	mov    %rbp,%rcx
   140003e3a:	e8 e9 fa 03 00       	call   140043928 <strstr>
   140003e3f:	48 85 c0             	test   %rax,%rax
   140003e42:	0f 85 3c ff ff ff    	jne    140003d84 <item_est_value.part.0+0xb4>
   140003e48:	48 8d 15 1a 26 04 00 	lea    0x4261a(%rip),%rdx        # 140046469 <.rdata+0x409>
   140003e4f:	48 89 e9             	mov    %rbp,%rcx
   140003e52:	e8 d1 fa 03 00       	call   140043928 <strstr>
   140003e57:	48 85 c0             	test   %rax,%rax
   140003e5a:	0f 85 24 ff ff ff    	jne    140003d84 <item_est_value.part.0+0xb4>
   140003e60:	e9 22 ff ff ff       	jmp    140003d87 <item_est_value.part.0+0xb7>
   140003e65:	0f 1f 00             	nopl   (%rax)
   140003e68:	48 8d 15 14 26 04 00 	lea    0x42614(%rip),%rdx        # 140046483 <.rdata+0x423>
   140003e6f:	48 89 e9             	mov    %rbp,%rcx
   140003e72:	e8 b1 fa 03 00       	call   140043928 <strstr>
   140003e77:	48 85 c0             	test   %rax,%rax
   140003e7a:	0f 85 6c ff ff ff    	jne    140003dec <item_est_value.part.0+0x11c>
   140003e80:	e9 6a ff ff ff       	jmp    140003def <item_est_value.part.0+0x11f>
   140003e85:	0f 1f 00             	nopl   (%rax)
   140003e88:	bb 71 00 00 00       	mov    $0x71,%ebx
   140003e8d:	be 65 00 00 00       	mov    $0x65,%esi
   140003e92:	e9 d9 fe ff ff       	jmp    140003d70 <item_est_value.part.0+0xa0>
   140003e97:	66 0f 1f 84 00 00 00 	nopw   0x0(%rax,%rax,1)
   140003e9e:	00 00 

0000000140003ea0 <merchant_rep_bump_slug.part.0>:
   140003ea0:	53                   	push   %rbx
   140003ea1:	48 83 ec 20          	sub    $0x20,%rsp
   140003ea5:	89 d3                	mov    %edx,%ebx
   140003ea7:	e8 c4 1a 03 00       	call   140035970 <aet_merchant_index>
   140003eac:	83 f8 1f             	cmp    $0x1f,%eax
   140003eaf:	77 1d                	ja     140003ece <merchant_rep_bump_slug.part.0+0x2e>
   140003eb1:	48 8d 15 88 f5 20 00 	lea    0x20f588(%rip),%rdx        # 140213440 <g_merchant_rep>
   140003eb8:	48 98                	cltq
   140003eba:	03 1c 82             	add    (%rdx,%rax,4),%ebx
   140003ebd:	78 19                	js     140003ed8 <merchant_rep_bump_slug.part.0+0x38>
   140003ebf:	81 fb dc 00 00 00    	cmp    $0xdc,%ebx
   140003ec5:	7e 13                	jle    140003eda <merchant_rep_bump_slug.part.0+0x3a>
   140003ec7:	c7 04 82 dc 00 00 00 	movl   $0xdc,(%rdx,%rax,4)
   140003ece:	48 83 c4 20          	add    $0x20,%rsp
   140003ed2:	5b                   	pop    %rbx
   140003ed3:	c3                   	ret
   140003ed4:	0f 1f 40 00          	nopl   0x0(%rax)
   140003ed8:	31 db                	xor    %ebx,%ebx
   140003eda:	89 1c 82             	mov    %ebx,(%rdx,%rax,4)
   140003edd:	48 83 c4 20          	add    $0x20,%rsp
   140003ee1:	5b                   	pop    %rbx
   140003ee2:	c3                   	ret
   140003ee3:	66 90                	xchg   %ax,%ax
   140003ee5:	66 66 2e 0f 1f 84 00 	data16 cs nopw 0x0(%rax,%rax,1)
   140003eec:	00 00 00 00 

0000000140003ef0 <sensory_append_pc.constprop.0>:
   140003ef0:	57                   	push   %rdi
   140003ef1:	56                   	push   %rsi
   140003ef2:	53                   	push   %rbx
   140003ef3:	48 81 ec d0 02 00 00 	sub    $0x2d0,%rsp
   140003efa:	48 89 cb             	mov    %rcx,%rbx
   140003efd:	48 8d 4c 24 20       	lea    0x20(%rsp),%rcx
   140003f02:	89 d6                	mov    %edx,%esi
   140003f04:	e8 b7 1e 03 00       	call   140035dc0 <pc_capture>
   140003f09:	48 8d 4c 24 20       	lea    0x20(%rsp),%rcx
   140003f0e:	e8 3d 1f 03 00       	call   140035e50 <pc_fill_narrative_defaults>
   140003f13:	48 89 d9             	mov    %rbx,%rcx
   140003f16:	e8 6d f8 03 00       	call   140043788 <strlen>
   140003f1b:	48 8d 50 0c          	lea    0xc(%rax),%rdx
   140003f1f:	48 81 fa ff 05 00 00 	cmp    $0x5ff,%rdx
   140003f26:	77 23                	ja     140003f4b <sensory_append_pc.constprop.0+0x5b>
   140003f28:	85 f6                	test   %esi,%esi
   140003f2a:	74 34                	je     140003f60 <sensory_append_pc.constprop.0+0x70>
   140003f2c:	8b 94 24 e8 01 00 00 	mov    0x1e8(%rsp),%edx
   140003f33:	83 fa 0f             	cmp    $0xf,%edx
   140003f36:	7f 78                	jg     140003fb0 <sensory_append_pc.constprop.0+0xc0>
   140003f38:	83 fa 0c             	cmp    $0xc,%edx
   140003f3b:	7f 53                	jg     140003f90 <sensory_append_pc.constprop.0+0xa0>
   140003f3d:	83 bc 24 d8 01 00 00 	cmpl   $0xe,0x1d8(%rsp)
   140003f44:	0e 
   140003f45:	0f 8f b5 00 00 00    	jg     140004000 <sensory_append_pc.constprop.0+0x110>
   140003f4b:	48 81 c4 d0 02 00 00 	add    $0x2d0,%rsp
   140003f52:	5b                   	pop    %rbx
   140003f53:	5e                   	pop    %rsi
   140003f54:	5f                   	pop    %rdi
   140003f55:	c3                   	ret
   140003f56:	66 2e 0f 1f 84 00 00 	cs nopw 0x0(%rax,%rax,1)
   140003f5d:	00 00 00 
   140003f60:	83 bc 24 d4 01 00 00 	cmpl   $0xf,0x1d4(%rsp)
   140003f67:	0f 
   140003f68:	7f 6e                	jg     140003fd8 <sensory_append_pc.constprop.0+0xe8>
   140003f6a:	83 bc 24 e8 01 00 00 	cmpl   $0xd,0x1e8(%rsp)
   140003f71:	0d 
   140003f72:	7e d7                	jle    140003f4b <sensory_append_pc.constprop.0+0x5b>
   140003f74:	ba 00 06 00 00       	mov    $0x600,%edx
   140003f79:	48 8d 0c 03          	lea    (%rbx,%rax,1),%rcx
   140003f7d:	4c 8d 05 e4 25 04 00 	lea    0x425e4(%rip),%r8        # 140046568 <.rdata+0x508>
   140003f84:	48 29 c2             	sub    %rax,%rdx
   140003f87:	e8 64 f5 03 00       	call   1400434f0 <snprintf>
   140003f8c:	eb bd                	jmp    140003f4b <sensory_append_pc.constprop.0+0x5b>
   140003f8e:	66 90                	xchg   %ax,%ax
   140003f90:	ba 00 06 00 00       	mov    $0x600,%edx
   140003f95:	48 8d 0c 03          	lea    (%rbx,%rax,1),%rcx
   140003f99:	4c 8d 05 18 25 04 00 	lea    0x42518(%rip),%r8        # 1400464b8 <.rdata+0x458>
   140003fa0:	48 29 c2             	sub    %rax,%rdx
   140003fa3:	e8 48 f5 03 00       	call   1400434f0 <snprintf>
   140003fa8:	eb a1                	jmp    140003f4b <sensory_append_pc.constprop.0+0x5b>
   140003faa:	66 0f 1f 44 00 00    	nopw   0x0(%rax,%rax,1)
   140003fb0:	ba 00 06 00 00       	mov    $0x600,%edx
   140003fb5:	48 8d 0c 03          	lea    (%rbx,%rax,1),%rcx
   140003fb9:	4c 8d 05 c8 24 04 00 	lea    0x424c8(%rip),%r8        # 140046488 <.rdata+0x428>
   140003fc0:	48 29 c2             	sub    %rax,%rdx
   140003fc3:	e8 28 f5 03 00       	call   1400434f0 <snprintf>
   140003fc8:	90                   	nop
   140003fc9:	48 81 c4 d0 02 00 00 	add    $0x2d0,%rsp
   140003fd0:	5b                   	pop    %rbx
   140003fd1:	5e                   	pop    %rsi
   140003fd2:	5f                   	pop    %rdi
   140003fd3:	c3                   	ret
   140003fd4:	0f 1f 40 00          	nopl   0x0(%rax)
   140003fd8:	ba 00 06 00 00       	mov    $0x600,%edx
   140003fdd:	48 8d 0c 03          	lea    (%rbx,%rax,1),%rcx
   140003fe1:	4c 8d 05 40 25 04 00 	lea    0x42540(%rip),%r8        # 140046528 <.rdata+0x4c8>
   140003fe8:	48 29 c2             	sub    %rax,%rdx
   140003feb:	e8 00 f5 03 00       	call   1400434f0 <snprintf>
   140003ff0:	90                   	nop
   140003ff1:	48 81 c4 d0 02 00 00 	add    $0x2d0,%rsp
   140003ff8:	5b                   	pop    %rbx
   140003ff9:	5e                   	pop    %rsi
   140003ffa:	5f                   	pop    %rdi
   140003ffb:	c3                   	ret
   140003ffc:	0f 1f 40 00          	nopl   0x0(%rax)
   140004000:	ba 00 06 00 00       	mov    $0x600,%edx
   140004005:	48 8d 0c 03          	lea    (%rbx,%rax,1),%rcx
   140004009:	4c 8d 05 e0 24 04 00 	lea    0x424e0(%rip),%r8        # 1400464f0 <.rdata+0x490>
   140004010:	48 29 c2             	sub    %rax,%rdx
   140004013:	e8 d8 f4 03 00       	call   1400434f0 <snprintf>
   140004018:	e9 2e ff ff ff       	jmp    140003f4b <sensory_append_pc.constprop.0+0x5b>
   14000401d:	0f 1f 00             	nopl   (%rax)

0000000140004020 <inv_take_out.constprop.0>:
   140004020:	55                   	push   %rbp
   140004021:	57                   	push   %rdi
   140004022:	56                   	push   %rsi
   140004023:	53                   	push   %rbx
   140004024:	48 83 ec 28          	sub    $0x28,%rsp
   140004028:	31 c0                	xor    %eax,%eax
   14000402a:	89 ce                	mov    %ecx,%esi
   14000402c:	3b 35 0e 19 21 00    	cmp    0x21190e(%rip),%esi        # 140215940 <g_inv_n>
   140004032:	48 89 d1             	mov    %rdx,%rcx
   140004035:	0f 8d b7 00 00 00    	jge    1400040f2 <inv_take_out.constprop.0+0xd2>
   14000403b:	48 63 fe             	movslq %esi,%rdi
   14000403e:	48 8d 2d 1b 19 21 00 	lea    0x21191b(%rip),%rbp        # 140215960 <g_inv>
   140004045:	41 b8 2f 00 00 00    	mov    $0x2f,%r8d
   14000404b:	48 8d 04 7f          	lea    (%rdi,%rdi,2),%rax
   14000404f:	48 c1 e0 04          	shl    $0x4,%rax
   140004053:	48 8d 1c 28          	lea    (%rax,%rbp,1),%rbx
   140004057:	48 89 da             	mov    %rbx,%rdx
   14000405a:	e8 41 f7 03 00       	call   1400437a0 <strncpy>
   14000405f:	8b 15 db 18 21 00    	mov    0x2118db(%rip),%edx        # 140215940 <g_inv_n>
   140004065:	c6 40 2f 00          	movb   $0x0,0x2f(%rax)
   140004069:	44 8d 42 ff          	lea    -0x1(%rdx),%r8d
   14000406d:	44 39 c6             	cmp    %r8d,%esi
   140004070:	7d 74                	jge    1400040e6 <inv_take_out.constprop.0+0xc6>
   140004072:	83 ea 02             	sub    $0x2,%edx
   140004075:	48 89 d8             	mov    %rbx,%rax
   140004078:	29 f2                	sub    %esi,%edx
   14000407a:	48 01 fa             	add    %rdi,%rdx
   14000407d:	48 8d 14 52          	lea    (%rdx,%rdx,2),%rdx
   140004081:	48 c1 e2 04          	shl    $0x4,%rdx
   140004085:	48 8d 4c 15 30       	lea    0x30(%rbp,%rdx,1),%rcx
   14000408a:	66 2e 0f 1f 84 00 00 	cs nopw 0x0(%rax,%rax,1)
   140004091:	00 00 00 
   140004094:	66 66 2e 0f 1f 84 00 	data16 cs nopw 0x0(%rax,%rax,1)
   14000409b:	00 00 00 00 
   14000409f:	66 66 2e 0f 1f 84 00 	data16 cs nopw 0x0(%rax,%rax,1)
   1400040a6:	00 00 00 00 
   1400040aa:	66 66 2e 0f 1f 84 00 	data16 cs nopw 0x0(%rax,%rax,1)
   1400040b1:	00 00 00 00 
   1400040b5:	66 66 2e 0f 1f 84 00 	data16 cs nopw 0x0(%rax,%rax,1)
   1400040bc:	00 00 00 00 
   1400040c0:	48 89 c2             	mov    %rax,%rdx
   1400040c3:	66 0f 6f 40 30       	movdqa 0x30(%rax),%xmm0
   1400040c8:	48 83 c0 30          	add    $0x30,%rax
   1400040cc:	0f 29 02             	movaps %xmm0,(%rdx)
   1400040cf:	66 0f 6f 48 10       	movdqa 0x10(%rax),%xmm1
   1400040d4:	0f 29 4a 10          	movaps %xmm1,0x10(%rdx)
   1400040d8:	66 0f 6f 50 20       	movdqa 0x20(%rax),%xmm2
   1400040dd:	0f 29 52 20          	movaps %xmm2,0x20(%rdx)
   1400040e1:	48 39 c8             	cmp    %rcx,%rax
   1400040e4:	75 da                	jne    1400040c0 <inv_take_out.constprop.0+0xa0>
   1400040e6:	44 89 05 53 18 21 00 	mov    %r8d,0x211853(%rip)        # 140215940 <g_inv_n>
   1400040ed:	b8 01 00 00 00       	mov    $0x1,%eax
   1400040f2:	48 83 c4 28          	add    $0x28,%rsp
   1400040f6:	5b                   	pop    %rbx
   1400040f7:	5e                   	pop    %rsi
   1400040f8:	5f                   	pop    %rdi
   1400040f9:	5d                   	pop    %rbp
   1400040fa:	c3                   	ret
   1400040fb:	0f 1f 44 00 00       	nopl   0x0(%rax,%rax,1)

0000000140004100 <format_item_choices.constprop.0>:
   140004100:	41 55                	push   %r13
   140004102:	41 54                	push   %r12
   140004104:	55                   	push   %rbp
   140004105:	57                   	push   %rdi
   140004106:	56                   	push   %rsi
   140004107:	53                   	push   %rbx
   140004108:	48 83 ec 28          	sub    $0x28,%rsp
   14000410c:	c6 01 00             	movb   $0x0,(%rcx)
   14000410f:	48 89 d6             	mov    %rdx,%rsi
   140004112:	48 89 cb             	mov    %rcx,%rbx
   140004115:	45 89 c5             	mov    %r8d,%r13d
   140004118:	e8 6b f6 03 00       	call   140043788 <strlen>
   14000411d:	48 8d 50 34          	lea    0x34(%rax),%rdx
   140004121:	48 81 fa ef 00 00 00 	cmp    $0xef,%rdx
   140004128:	77 7c                	ja     1400041a6 <format_item_choices.constprop.0+0xa6>
   14000412a:	bd 06 00 00 00       	mov    $0x6,%ebp
   14000412f:	48 89 f2             	mov    %rsi,%rdx
   140004132:	48 89 d9             	mov    %rbx,%rcx
   140004135:	bf 01 00 00 00       	mov    $0x1,%edi
   14000413a:	41 39 ed             	cmp    %ebp,%r13d
   14000413d:	41 b8 ef 00 00 00    	mov    $0xef,%r8d
   140004143:	41 0f 4e ed          	cmovle %r13d,%ebp
   140004147:	49 29 c0             	sub    %rax,%r8
   14000414a:	48 83 c6 30          	add    $0x30,%rsi
   14000414e:	e8 3d f6 03 00       	call   140043790 <strncat>
   140004153:	66 90                	xchg   %ax,%ax
   140004155:	66 66 2e 0f 1f 84 00 	data16 cs nopw 0x0(%rax,%rax,1)
   14000415c:	00 00 00 00 
   140004160:	48 89 d9             	mov    %rbx,%rcx
   140004163:	e8 20 f6 03 00       	call   140043788 <strlen>
   140004168:	48 8d 50 34          	lea    0x34(%rax),%rdx
   14000416c:	48 81 fa ef 00 00 00 	cmp    $0xef,%rdx
   140004173:	77 31                	ja     1400041a6 <format_item_choices.constprop.0+0xa6>
   140004175:	b9 2c 20 00 00       	mov    $0x202c,%ecx
   14000417a:	c6 44 03 02 00       	movb   $0x0,0x2(%rbx,%rax,1)
   14000417f:	48 89 f2             	mov    %rsi,%rdx
   140004182:	83 c7 01             	add    $0x1,%edi
   140004185:	66 89 0c 03          	mov    %cx,(%rbx,%rax,1)
   140004189:	48 83 c0 02          	add    $0x2,%rax
   14000418d:	48 89 d9             	mov    %rbx,%rcx
   140004190:	48 83 c6 30          	add    $0x30,%rsi
   140004194:	41 b8 ef 00 00 00    	mov    $0xef,%r8d
   14000419a:	49 29 c0             	sub    %rax,%r8
   14000419d:	e8 ee f5 03 00       	call   140043790 <strncat>
   1400041a2:	39 fd                	cmp    %edi,%ebp
   1400041a4:	75 ba                	jne    140004160 <format_item_choices.constprop.0+0x60>
   1400041a6:	41 83 fd 06          	cmp    $0x6,%r13d
   1400041aa:	7e 15                	jle    1400041c1 <format_item_choices.constprop.0+0xc1>
   1400041ac:	48 89 d9             	mov    %rbx,%rcx
   1400041af:	e8 d4 f5 03 00       	call   140043788 <strlen>
   1400041b4:	48 8d 50 10          	lea    0x10(%rax),%rdx
   1400041b8:	48 81 fa ef 00 00 00 	cmp    $0xef,%rdx
   1400041bf:	76 0f                	jbe    1400041d0 <format_item_choices.constprop.0+0xd0>
   1400041c1:	48 83 c4 28          	add    $0x28,%rsp
   1400041c5:	5b                   	pop    %rbx
   1400041c6:	5e                   	pop    %rsi
   1400041c7:	5f                   	pop    %rdi
   1400041c8:	5d                   	pop    %rbp
   1400041c9:	41 5c                	pop    %r12
   1400041cb:	41 5d                	pop    %r13
   1400041cd:	c3                   	ret
   1400041ce:	66 90                	xchg   %ax,%ax
   1400041d0:	ba 2e 00 00 00       	mov    $0x2e,%edx
   1400041d5:	c7 04 03 2c 20 2e 2e 	movl   $0x2e2e202c,(%rbx,%rax,1)
   1400041dc:	66 89 54 03 04       	mov    %dx,0x4(%rbx,%rax,1)
   1400041e1:	48 83 c4 28          	add    $0x28,%rsp
   1400041e5:	5b                   	pop    %rbx
   1400041e6:	5e                   	pop    %rsi
   1400041e7:	5f                   	pop    %rdi
   1400041e8:	5d                   	pop    %rbp
   1400041e9:	41 5c                	pop    %r12
   1400041eb:	41 5d                	pop    %r13
   1400041ed:	c3                   	ret
   1400041ee:	66 90                	xchg   %ax,%ax

00000001400041f0 <exit_lock_info.constprop.0>:
   1400041f0:	56                   	push   %rsi
   1400041f1:	53                   	push   %rbx
   1400041f2:	48 83 ec 28          	sub    $0x28,%rsp
   1400041f6:	41 89 d2             	mov    %edx,%r10d
   1400041f9:	48 83 7c 24 68 00    	cmpq   $0x0,0x68(%rsp)
   1400041ff:	74 0b                	je     14000420c <exit_lock_info.constprop.0+0x1c>
   140004201:	48 8b 44 24 68       	mov    0x68(%rsp),%rax
   140004206:	c7 00 00 00 00 00    	movl   $0x0,(%rax)
   14000420c:	4d 85 c0             	test   %r8,%r8
   14000420f:	0f 95 c0             	setne  %al
   140004212:	49 c1 e9 06          	shr    $0x6,%r9
   140004216:	44 20 c8             	and    %r9b,%al
   140004219:	89 c3                	mov    %eax,%ebx
   14000421b:	74 04                	je     140004221 <exit_lock_info.constprop.0+0x31>
   14000421d:	41 c6 00 00          	movb   $0x0,(%r8)
   140004221:	85 c9                	test   %ecx,%ecx
   140004223:	78 0b                	js     140004230 <exit_lock_info.constprop.0+0x40>
   140004225:	48 8b 05 c4 8c 07 00 	mov    0x78cc4(%rip),%rax        # 14007cef0 <.refptr.WORLD_ROOM_COUNT>
   14000422c:	3b 08                	cmp    (%rax),%ecx
   14000422e:	7c 10                	jl     140004240 <exit_lock_info.constprop.0+0x50>
   140004230:	31 c0                	xor    %eax,%eax
   140004232:	48 83 c4 28          	add    $0x28,%rsp
   140004236:	5b                   	pop    %rbx
   140004237:	5e                   	pop    %rsi
   140004238:	c3                   	ret
   140004239:	0f 1f 80 00 00 00 00 	nopl   0x0(%rax)
   140004240:	44 89 54 24 48       	mov    %r10d,0x48(%rsp)
   140004245:	4c 89 44 24 50       	mov    %r8,0x50(%rsp)
   14000424a:	e8 b1 17 03 00       	call   140035a00 <world_slug>
   14000424f:	48 8d 15 41 23 04 00 	lea    0x42341(%rip),%rdx        # 140046597 <.rdata+0x537>
   140004256:	48 89 c1             	mov    %rax,%rcx
   140004259:	48 89 c6             	mov    %rax,%rsi
   14000425c:	e8 17 f5 03 00       	call   140043778 <strcmp>
   140004261:	44 8b 54 24 48       	mov    0x48(%rsp),%r10d
   140004266:	4c 8b 44 24 50       	mov    0x50(%rsp),%r8
   14000426b:	85 c0                	test   %eax,%eax
   14000426d:	74 61                	je     1400042d0 <exit_lock_info.constprop.0+0xe0>
   14000426f:	48 8d 15 2c 23 04 00 	lea    0x4232c(%rip),%rdx        # 1400465a2 <.rdata+0x542>
   140004276:	48 89 f1             	mov    %rsi,%rcx
   140004279:	4c 89 44 24 50       	mov    %r8,0x50(%rsp)
   14000427e:	44 89 54 24 48       	mov    %r10d,0x48(%rsp)
   140004283:	e8 f0 f4 03 00       	call   140043778 <strcmp>
   140004288:	83 7c 24 48 02       	cmpl   $0x2,0x48(%rsp)
   14000428d:	75 a1                	jne    140004230 <exit_lock_info.constprop.0+0x40>
   14000428f:	85 c0                	test   %eax,%eax
   140004291:	4c 8b 44 24 50       	mov    0x50(%rsp),%r8
   140004296:	75 98                	jne    140004230 <exit_lock_info.constprop.0+0x40>
   140004298:	84 db                	test   %bl,%bl
   14000429a:	0f 85 90 00 00 00    	jne    140004330 <exit_lock_info.constprop.0+0x140>
   1400042a0:	8b 15 7a 16 21 00    	mov    0x21167a(%rip),%edx        # 140215920 <g_shed_unlocked>
   1400042a6:	31 c0                	xor    %eax,%eax
   1400042a8:	85 d2                	test   %edx,%edx
   1400042aa:	48 8b 54 24 60       	mov    0x60(%rsp),%rdx
   1400042af:	0f 94 c0             	sete   %al
   1400042b2:	89 02                	mov    %eax,(%rdx)
   1400042b4:	48 83 7c 24 68 00    	cmpq   $0x0,0x68(%rsp)
   1400042ba:	74 4b                	je     140004307 <exit_lock_info.constprop.0+0x117>
   1400042bc:	48 8b 44 24 68       	mov    0x68(%rsp),%rax
   1400042c1:	c7 00 03 00 00 00    	movl   $0x3,(%rax)
   1400042c7:	eb 3e                	jmp    140004307 <exit_lock_info.constprop.0+0x117>
   1400042c9:	0f 1f 80 00 00 00 00 	nopl   0x0(%rax)
   1400042d0:	41 83 fa 02          	cmp    $0x2,%r10d
   1400042d4:	0f 85 56 ff ff ff    	jne    140004230 <exit_lock_info.constprop.0+0x40>
   1400042da:	84 db                	test   %bl,%bl
   1400042dc:	75 3a                	jne    140004318 <exit_lock_info.constprop.0+0x128>
   1400042de:	44 8b 05 3f 16 21 00 	mov    0x21163f(%rip),%r8d        # 140215924 <g_front_unlocked>
   1400042e5:	31 c0                	xor    %eax,%eax
   1400042e7:	48 8b 54 24 60       	mov    0x60(%rsp),%rdx
   1400042ec:	45 85 c0             	test   %r8d,%r8d
   1400042ef:	0f 94 c0             	sete   %al
   1400042f2:	89 02                	mov    %eax,(%rdx)
   1400042f4:	48 83 7c 24 68 00    	cmpq   $0x0,0x68(%rsp)
   1400042fa:	74 0b                	je     140004307 <exit_lock_info.constprop.0+0x117>
   1400042fc:	48 8b 44 24 68       	mov    0x68(%rsp),%rax
   140004301:	c7 00 02 00 00 00    	movl   $0x2,(%rax)
   140004307:	b8 01 00 00 00       	mov    $0x1,%eax
   14000430c:	e9 21 ff ff ff       	jmp    140004232 <exit_lock_info.constprop.0+0x42>
   140004311:	0f 1f 80 00 00 00 00 	nopl   0x0(%rax)
   140004318:	48 b8 66 72 6f 6e 74 	movabs $0x6f6420746e6f7266,%rax
   14000431f:	20 64 6f 
   140004322:	49 89 00             	mov    %rax,(%r8)
   140004325:	41 c7 40 07 6f 6f 72 	movl   $0x726f6f,0x7(%r8)
   14000432c:	00 
   14000432d:	eb af                	jmp    1400042de <exit_lock_info.constprop.0+0xee>
   14000432f:	90                   	nop
   140004330:	48 b8 73 68 65 64 20 	movabs $0x636f6c2064656873,%rax
   140004337:	6c 6f 63 
   14000433a:	b9 6b 00 00 00       	mov    $0x6b,%ecx
   14000433f:	49 89 00             	mov    %rax,(%r8)
   140004342:	66 41 89 48 08       	mov    %cx,0x8(%r8)
   140004347:	e9 54 ff ff ff       	jmp    1400042a0 <exit_lock_info.constprop.0+0xb0>
   14000434c:	0f 1f 40 00          	nopl   0x0(%rax)

0000000140004350 <topic_mood_for.part.0.constprop.0>:
   140004350:	53                   	push   %rbx
   140004351:	48 83 ec 20          	sub    $0x20,%rsp
   140004355:	48 8d 15 83 22 04 00 	lea    0x42283(%rip),%rdx        # 1400465df <.rdata+0x57f>
   14000435c:	48 8d 0d 9d 12 21 00 	lea    0x21129d(%rip),%rcx        # 140215600 <g_last_topic>
   140004363:	48 8d 1d 5c 22 04 00 	lea    0x4225c(%rip),%rbx        # 1400465c6 <.rdata+0x566>
   14000436a:	e8 b9 f5 03 00       	call   140043928 <strstr>
   14000436f:	48 85 c0             	test   %rax,%rax
   140004372:	74 0c                	je     140004380 <topic_mood_for.part.0.constprop.0+0x30>
   140004374:	48 89 d8             	mov    %rbx,%rax
   140004377:	48 83 c4 20          	add    $0x20,%rsp
   14000437b:	5b                   	pop    %rbx
   14000437c:	c3                   	ret
   14000437d:	0f 1f 00             	nopl   (%rax)
   140004380:	48 8d 15 5c 22 04 00 	lea    0x4225c(%rip),%rdx        # 1400465e3 <.rdata+0x583>
   140004387:	48 8d 0d 72 12 21 00 	lea    0x211272(%rip),%rcx        # 140215600 <g_last_topic>
   14000438e:	e8 95 f5 03 00       	call   140043928 <strstr>
   140004393:	48 85 c0             	test   %rax,%rax
   140004396:	75 dc                	jne    140004374 <topic_mood_for.part.0.constprop.0+0x24>
   140004398:	48 8d 15 49 22 04 00 	lea    0x42249(%rip),%rdx        # 1400465e8 <.rdata+0x588>
   14000439f:	48 8d 0d 5a 12 21 00 	lea    0x21125a(%rip),%rcx        # 140215600 <g_last_topic>
   1400043a6:	e8 7d f5 03 00       	call   140043928 <strstr>
   1400043ab:	48 85 c0             	test   %rax,%rax
   1400043ae:	75 c4                	jne    140004374 <topic_mood_for.part.0.constprop.0+0x24>
   1400043b0:	48 8d 15 37 22 04 00 	lea    0x42237(%rip),%rdx        # 1400465ee <.rdata+0x58e>
   1400043b7:	48 8d 0d 42 12 21 00 	lea    0x211242(%rip),%rcx        # 140215600 <g_last_topic>
   1400043be:	e8 65 f5 03 00       	call   140043928 <strstr>
   1400043c3:	48 85 c0             	test   %rax,%rax
   1400043c6:	75 ac                	jne    140004374 <topic_mood_for.part.0.constprop.0+0x24>
   1400043c8:	48 8d 15 8c 20 04 00 	lea    0x4208c(%rip),%rdx        # 14004645b <.rdata+0x3fb>
   1400043cf:	48 8d 0d 2a 12 21 00 	lea    0x21122a(%rip),%rcx        # 140215600 <g_last_topic>
   1400043d6:	e8 4d f5 03 00       	call   140043928 <strstr>
   1400043db:	48 85 c0             	test   %rax,%rax
   1400043de:	75 94                	jne    140004374 <topic_mood_for.part.0.constprop.0+0x24>
   1400043e0:	48 8d 15 0d 22 04 00 	lea    0x4220d(%rip),%rdx        # 1400465f4 <.rdata+0x594>
   1400043e7:	48 8d 0d 12 12 21 00 	lea    0x211212(%rip),%rcx        # 140215600 <g_last_topic>
   1400043ee:	e8 35 f5 03 00       	call   140043928 <strstr>
   1400043f3:	48 85 c0             	test   %rax,%rax
   1400043f6:	0f 85 78 ff ff ff    	jne    140004374 <topic_mood_for.part.0.constprop.0+0x24>
   1400043fc:	48 8d 15 f7 21 04 00 	lea    0x421f7(%rip),%rdx        # 1400465fa <.rdata+0x59a>
   140004403:	48 8d 0d f6 11 21 00 	lea    0x2111f6(%rip),%rcx        # 140215600 <g_last_topic>
   14000440a:	e8 19 f5 03 00       	call   140043928 <strstr>
   14000440f:	48 8d 1d a7 21 04 00 	lea    0x421a7(%rip),%rbx        # 1400465bd <.rdata+0x55d>
   140004416:	48 85 c0             	test   %rax,%rax
   140004419:	0f 85 55 ff ff ff    	jne    140004374 <topic_mood_for.part.0.constprop.0+0x24>
   14000441f:	48 8d 15 2c 20 04 00 	lea    0x4202c(%rip),%rdx        # 140046452 <.rdata+0x3f2>
   140004426:	48 8d 0d d3 11 21 00 	lea    0x2111d3(%rip),%rcx        # 140215600 <g_last_topic>
   14000442d:	e8 f6 f4 03 00       	call   140043928 <strstr>
   140004432:	48 85 c0             	test   %rax,%rax
   140004435:	0f 85 39 ff ff ff    	jne    140004374 <topic_mood_for.part.0.constprop.0+0x24>
   14000443b:	48 8d 15 bd 21 04 00 	lea    0x421bd(%rip),%rdx        # 1400465ff <.rdata+0x59f>
   140004442:	48 8d 0d b7 11 21 00 	lea    0x2111b7(%rip),%rcx        # 140215600 <g_last_topic>
   140004449:	e8 da f4 03 00       	call   140043928 <strstr>
   14000444e:	48 85 c0             	test   %rax,%rax
   140004451:	0f 85 1d ff ff ff    	jne    140004374 <topic_mood_for.part.0.constprop.0+0x24>
   140004457:	48 8d 15 a7 21 04 00 	lea    0x421a7(%rip),%rdx        # 140046605 <.rdata+0x5a5>
   14000445e:	48 8d 0d 9b 11 21 00 	lea    0x21119b(%rip),%rcx        # 140215600 <g_last_topic>
   140004465:	e8 be f4 03 00       	call   140043928 <strstr>
   14000446a:	48 85 c0             	test   %rax,%rax
   14000446d:	0f 85 01 ff ff ff    	jne    140004374 <topic_mood_for.part.0.constprop.0+0x24>
   140004473:	48 8d 15 90 21 04 00 	lea    0x42190(%rip),%rdx        # 14004660a <.rdata+0x5aa>
   14000447a:	48 8d 0d 7f 11 21 00 	lea    0x21117f(%rip),%rcx        # 140215600 <g_last_topic>
   140004481:	e8 a2 f4 03 00       	call   140043928 <strstr>
   140004486:	48 85 c0             	test   %rax,%rax
   140004489:	0f 85 e5 fe ff ff    	jne    140004374 <topic_mood_for.part.0.constprop.0+0x24>
   14000448f:	48 8d 15 7a 21 04 00 	lea    0x4217a(%rip),%rdx        # 140046610 <.rdata+0x5b0>
   140004496:	48 8d 0d 63 11 21 00 	lea    0x211163(%rip),%rcx        # 140215600 <g_last_topic>
   14000449d:	e8 86 f4 03 00       	call   140043928 <strstr>
   1400044a2:	48 8d 1d 0e 21 04 00 	lea    0x4210e(%rip),%rbx        # 1400465b7 <.rdata+0x557>
   1400044a9:	48 85 c0             	test   %rax,%rax
   1400044ac:	0f 85 c2 fe ff ff    	jne    140004374 <topic_mood_for.part.0.constprop.0+0x24>
   1400044b2:	48 8d 15 5c 21 04 00 	lea    0x4215c(%rip),%rdx        # 140046615 <.rdata+0x5b5>
   1400044b9:	48 8d 0d 40 11 21 00 	lea    0x211140(%rip),%rcx        # 140215600 <g_last_topic>
   1400044c0:	e8 63 f4 03 00       	call   140043928 <strstr>
   1400044c5:	48 85 c0             	test   %rax,%rax
   1400044c8:	0f 85 a6 fe ff ff    	jne    140004374 <topic_mood_for.part.0.constprop.0+0x24>
   1400044ce:	48 8d 15 45 21 04 00 	lea    0x42145(%rip),%rdx        # 14004661a <.rdata+0x5ba>
   1400044d5:	48 8d 0d 24 11 21 00 	lea    0x211124(%rip),%rcx        # 140215600 <g_last_topic>
   1400044dc:	e8 47 f4 03 00       	call   140043928 <strstr>
   1400044e1:	48 85 c0             	test   %rax,%rax
   1400044e4:	0f 85 8a fe ff ff    	jne    140004374 <topic_mood_for.part.0.constprop.0+0x24>
   1400044ea:	48 8d 15 2f 21 04 00 	lea    0x4212f(%rip),%rdx        # 140046620 <.rdata+0x5c0>
   1400044f1:	48 8d 0d 08 11 21 00 	lea    0x211108(%rip),%rcx        # 140215600 <g_last_topic>
   1400044f8:	e8 2b f4 03 00       	call   140043928 <strstr>
   1400044fd:	48 85 c0             	test   %rax,%rax
   140004500:	0f 85 6e fe ff ff    	jne    140004374 <topic_mood_for.part.0.constprop.0+0x24>
   140004506:	48 8d 15 19 21 04 00 	lea    0x42119(%rip),%rdx        # 140046626 <.rdata+0x5c6>
   14000450d:	48 8d 0d ec 10 21 00 	lea    0x2110ec(%rip),%rcx        # 140215600 <g_last_topic>
   140004514:	e8 0f f4 03 00       	call   140043928 <strstr>
   140004519:	48 8d 1d 90 20 04 00 	lea    0x42090(%rip),%rbx        # 1400465b0 <.rdata+0x550>
   140004520:	48 85 c0             	test   %rax,%rax
   140004523:	0f 85 4b fe ff ff    	jne    140004374 <topic_mood_for.part.0.constprop.0+0x24>
   140004529:	48 89 da             	mov    %rbx,%rdx
   14000452c:	48 8d 0d cd 10 21 00 	lea    0x2110cd(%rip),%rcx        # 140215600 <g_last_topic>
   140004533:	e8 f0 f3 03 00       	call   140043928 <strstr>
   140004538:	48 85 c0             	test   %rax,%rax
   14000453b:	0f 85 33 fe ff ff    	jne    140004374 <topic_mood_for.part.0.constprop.0+0x24>
   140004541:	48 8d 15 e4 20 04 00 	lea    0x420e4(%rip),%rdx        # 14004662c <.rdata+0x5cc>
   140004548:	48 8d 0d b1 10 21 00 	lea    0x2110b1(%rip),%rcx        # 140215600 <g_last_topic>
   14000454f:	e8 d4 f3 03 00       	call   140043928 <strstr>
   140004554:	48 85 c0             	test   %rax,%rax
   140004557:	0f 85 17 fe ff ff    	jne    140004374 <topic_mood_for.part.0.constprop.0+0x24>
   14000455d:	48 8d 15 cd 20 04 00 	lea    0x420cd(%rip),%rdx        # 140046631 <.rdata+0x5d1>
   140004564:	48 8d 0d 95 10 21 00 	lea    0x211095(%rip),%rcx        # 140215600 <g_last_topic>
   14000456b:	e8 b8 f3 03 00       	call   140043928 <strstr>
   140004570:	48 85 c0             	test   %rax,%rax
   140004573:	0f 85 fb fd ff ff    	jne    140004374 <topic_mood_for.part.0.constprop.0+0x24>
   140004579:	48 8d 15 b7 20 04 00 	lea    0x420b7(%rip),%rdx        # 140046637 <.rdata+0x5d7>
   140004580:	48 8d 0d 79 10 21 00 	lea    0x211079(%rip),%rcx        # 140215600 <g_last_topic>
   140004587:	e8 9c f3 03 00       	call   140043928 <strstr>
   14000458c:	48 8d 1d 44 20 04 00 	lea    0x42044(%rip),%rbx        # 1400465d7 <.rdata+0x577>
   140004593:	48 85 c0             	test   %rax,%rax
   140004596:	0f 85 d8 fd ff ff    	jne    140004374 <topic_mood_for.part.0.constprop.0+0x24>
   14000459c:	48 8d 15 99 20 04 00 	lea    0x42099(%rip),%rdx        # 14004663c <.rdata+0x5dc>
   1400045a3:	48 8d 0d 56 10 21 00 	lea    0x211056(%rip),%rcx        # 140215600 <g_last_topic>
   1400045aa:	e8 79 f3 03 00       	call   140043928 <strstr>
   1400045af:	48 85 c0             	test   %rax,%rax
   1400045b2:	0f 85 bc fd ff ff    	jne    140004374 <topic_mood_for.part.0.constprop.0+0x24>
   1400045b8:	48 8d 15 82 20 04 00 	lea    0x42082(%rip),%rdx        # 140046641 <.rdata+0x5e1>
   1400045bf:	48 8d 0d 3a 10 21 00 	lea    0x21103a(%rip),%rcx        # 140215600 <g_last_topic>
   1400045c6:	e8 5d f3 03 00       	call   140043928 <strstr>
   1400045cb:	48 85 c0             	test   %rax,%rax
   1400045ce:	0f 85 a0 fd ff ff    	jne    140004374 <topic_mood_for.part.0.constprop.0+0x24>
   1400045d4:	48 8d 1d f4 1f 04 00 	lea    0x41ff4(%rip),%rbx        # 1400465cf <.rdata+0x56f>
   1400045db:	e9 94 fd ff ff       	jmp    140004374 <topic_mood_for.part.0.constprop.0+0x24>

00000001400045e0 <make_slot_save_path.constprop.0>:
   1400045e0:	41 57                	push   %r15
   1400045e2:	41 56                	push   %r14
   1400045e4:	41 55                	push   %r13
   1400045e6:	41 54                	push   %r12
   1400045e8:	55                   	push   %rbp
   1400045e9:	57                   	push   %rdi
   1400045ea:	56                   	push   %rsi
   1400045eb:	53                   	push   %rbx
   1400045ec:	48 81 ec 68 02 00 00 	sub    $0x268,%rsp
   1400045f3:	8d 41 ff             	lea    -0x1(%rcx),%eax
   1400045f6:	c6 02 00             	movb   $0x0,(%rdx)
   1400045f9:	41 89 ce             	mov    %ecx,%r14d
   1400045fc:	49 89 d4             	mov    %rdx,%r12
   1400045ff:	83 f8 09             	cmp    $0x9,%eax
   140004602:	0f 87 f0 02 00 00    	ja     1400048f8 <make_slot_save_path.constprop.0+0x318>
   140004608:	4c 8d 2d f1 45 39 00 	lea    0x3945f1(%rip),%r13        # 140398c00 <g_save_path>
   14000460f:	ba 5c 00 00 00       	mov    $0x5c,%edx
   140004614:	4c 89 e9             	mov    %r13,%rcx
   140004617:	e8 04 f3 03 00       	call   140043920 <strrchr>
   14000461c:	48 89 c3             	mov    %rax,%rbx
   14000461f:	48 85 c0             	test   %rax,%rax
   140004622:	0f 84 b8 02 00 00    	je     1400048e0 <make_slot_save_path.constprop.0+0x300>
   140004628:	ba 2e 00 00 00       	mov    $0x2e,%edx
   14000462d:	4c 89 e9             	mov    %r13,%rcx
   140004630:	e8 eb f2 03 00       	call   140043920 <strrchr>
   140004635:	48 89 c5             	mov    %rax,%rbp
   140004638:	48 85 c0             	test   %rax,%rax
   14000463b:	0f 84 2f 01 00 00    	je     140004770 <make_slot_save_path.constprop.0+0x190>
   140004641:	48 39 d8             	cmp    %rbx,%rax
   140004644:	0f 82 26 01 00 00    	jb     140004770 <make_slot_save_path.constprop.0+0x190>
   14000464a:	48 89 eb             	mov    %rbp,%rbx
   14000464d:	b8 07 02 00 00       	mov    $0x207,%eax
   140004652:	4c 8d 7c 24 50       	lea    0x50(%rsp),%r15
   140004657:	4c 29 eb             	sub    %r13,%rbx
   14000465a:	4d 89 f9             	mov    %r15,%r9
   14000465d:	4c 8d 05 9c 45 39 00 	lea    0x39459c(%rip),%r8        # 140398c00 <g_save_path>
   140004664:	48 39 c3             	cmp    %rax,%rbx
   140004667:	48 0f 47 d8          	cmova  %rax,%rbx
   14000466b:	89 da                	mov    %ebx,%edx
   14000466d:	83 fb 08             	cmp    $0x8,%ebx
   140004670:	0f 83 7a 01 00 00    	jae    1400047f0 <make_slot_save_path.constprop.0+0x210>
   140004676:	31 c0                	xor    %eax,%eax
   140004678:	f6 c2 04             	test   $0x4,%dl
   14000467b:	0f 85 4f 01 00 00    	jne    1400047d0 <make_slot_save_path.constprop.0+0x1f0>
   140004681:	f6 c2 02             	test   $0x2,%dl
   140004684:	0f 85 26 01 00 00    	jne    1400047b0 <make_slot_save_path.constprop.0+0x1d0>
   14000468a:	83 e2 01             	and    $0x1,%edx
   14000468d:	0f 85 0d 01 00 00    	jne    1400047a0 <make_slot_save_path.constprop.0+0x1c0>
   140004693:	4c 8d 6c 24 30       	lea    0x30(%rsp),%r13
   140004698:	ba 20 00 00 00       	mov    $0x20,%edx
   14000469d:	45 89 f1             	mov    %r14d,%r9d
   1400046a0:	c6 44 1c 50 00       	movb   $0x0,0x50(%rsp,%rbx,1)
   1400046a5:	4c 8d 05 9f 1f 04 00 	lea    0x41f9f(%rip),%r8        # 14004664b <.rdata+0x5eb>
   1400046ac:	4c 89 e9             	mov    %r13,%rcx
   1400046af:	e8 3c ee 03 00       	call   1400434f0 <snprintf>
   1400046b4:	4c 89 e9             	mov    %r13,%rcx
   1400046b7:	e8 cc f0 03 00       	call   140043788 <strlen>
   1400046bc:	48 89 c2             	mov    %rax,%rdx
   1400046bf:	80 7d 00 00          	cmpb   $0x0,0x0(%rbp)
   1400046c3:	0f 85 bf 00 00 00    	jne    140004788 <make_slot_save_path.constprop.0+0x1a8>
   1400046c9:	b8 04 00 00 00       	mov    $0x4,%eax
   1400046ce:	48 8d 2d 71 1f 04 00 	lea    0x41f71(%rip),%rbp        # 140046646 <.rdata+0x5e6>
   1400046d5:	4c 8d 04 13          	lea    (%rbx,%rdx,1),%r8
   1400046d9:	49 8d 4c 00 01       	lea    0x1(%r8,%rax,1),%rcx
   1400046de:	48 81 f9 08 02 00 00 	cmp    $0x208,%rcx
   1400046e5:	0f 87 2d 01 00 00    	ja     140004818 <make_slot_save_path.constprop.0+0x238>
   1400046eb:	89 d9                	mov    %ebx,%ecx
   1400046ed:	83 fb 08             	cmp    $0x8,%ebx
   1400046f0:	0f 83 aa 01 00 00    	jae    1400048a0 <make_slot_save_path.constprop.0+0x2c0>
   1400046f6:	f6 c3 04             	test   $0x4,%bl
   1400046f9:	0f 85 c1 02 00 00    	jne    1400049c0 <make_slot_save_path.constprop.0+0x3e0>
   1400046ff:	85 db                	test   %ebx,%ebx
   140004701:	0f 85 91 02 00 00    	jne    140004998 <make_slot_save_path.constprop.0+0x3b8>
   140004707:	4c 01 e3             	add    %r12,%rbx
   14000470a:	83 fa 08             	cmp    $0x8,%edx
   14000470d:	0f 83 35 01 00 00    	jae    140004848 <make_slot_save_path.constprop.0+0x268>
   140004713:	f6 c2 04             	test   $0x4,%dl
   140004716:	0f 85 c4 02 00 00    	jne    1400049e0 <make_slot_save_path.constprop.0+0x400>
   14000471c:	85 d2                	test   %edx,%edx
   14000471e:	0f 85 4c 02 00 00    	jne    140004970 <make_slot_save_path.constprop.0+0x390>
   140004724:	48 83 c0 01          	add    $0x1,%rax
   140004728:	4d 01 c4             	add    %r8,%r12
   14000472b:	83 f8 08             	cmp    $0x8,%eax
   14000472e:	0f 83 fc 01 00 00    	jae    140004930 <make_slot_save_path.constprop.0+0x350>
   140004734:	a8 04                	test   $0x4,%al
   140004736:	0f 85 c4 02 00 00    	jne    140004a00 <make_slot_save_path.constprop.0+0x420>
   14000473c:	85 c0                	test   %eax,%eax
   14000473e:	0f 84 ec 00 00 00    	je     140004830 <make_slot_save_path.constprop.0+0x250>
   140004744:	0f b6 55 00          	movzbl 0x0(%rbp),%edx
   140004748:	41 88 14 24          	mov    %dl,(%r12)
   14000474c:	a8 02                	test   $0x2,%al
   14000474e:	0f 84 dc 00 00 00    	je     140004830 <make_slot_save_path.constprop.0+0x250>
   140004754:	89 c0                	mov    %eax,%eax
   140004756:	0f b7 54 05 fe       	movzwl -0x2(%rbp,%rax,1),%edx
   14000475b:	66 41 89 54 04 fe    	mov    %dx,-0x2(%r12,%rax,1)
   140004761:	e9 ca 00 00 00       	jmp    140004830 <make_slot_save_path.constprop.0+0x250>
   140004766:	66 2e 0f 1f 84 00 00 	cs nopw 0x0(%rax,%rax,1)
   14000476d:	00 00 00 
   140004770:	4c 89 e9             	mov    %r13,%rcx
   140004773:	e8 10 f0 03 00       	call   140043788 <strlen>
   140004778:	49 8d 6c 05 00       	lea    0x0(%r13,%rax,1),%rbp
   14000477d:	e9 c8 fe ff ff       	jmp    14000464a <make_slot_save_path.constprop.0+0x6a>
   140004782:	66 0f 1f 44 00 00    	nopw   0x0(%rax,%rax,1)
   140004788:	48 89 e9             	mov    %rbp,%rcx
   14000478b:	48 89 44 24 28       	mov    %rax,0x28(%rsp)
   140004790:	e8 f3 ef 03 00       	call   140043788 <strlen>
   140004795:	48 8b 54 24 28       	mov    0x28(%rsp),%rdx
   14000479a:	e9 36 ff ff ff       	jmp    1400046d5 <make_slot_save_path.constprop.0+0xf5>
   14000479f:	90                   	nop
   1400047a0:	41 0f b6 14 00       	movzbl (%r8,%rax,1),%edx
   1400047a5:	41 88 14 01          	mov    %dl,(%r9,%rax,1)
   1400047a9:	e9 e5 fe ff ff       	jmp    140004693 <make_slot_save_path.constprop.0+0xb3>
   1400047ae:	66 90                	xchg   %ax,%ax
   1400047b0:	41 0f b7 0c 00       	movzwl (%r8,%rax,1),%ecx
   1400047b5:	66 41 89 0c 01       	mov    %cx,(%r9,%rax,1)
   1400047ba:	48 83 c0 02          	add    $0x2,%rax
   1400047be:	83 e2 01             	and    $0x1,%edx
   1400047c1:	0f 84 cc fe ff ff    	je     140004693 <make_slot_save_path.constprop.0+0xb3>
   1400047c7:	eb d7                	jmp    1400047a0 <make_slot_save_path.constprop.0+0x1c0>
   1400047c9:	0f 1f 80 00 00 00 00 	nopl   0x0(%rax)
   1400047d0:	41 8b 00             	mov    (%r8),%eax
   1400047d3:	41 89 01             	mov    %eax,(%r9)
   1400047d6:	b8 04 00 00 00       	mov    $0x4,%eax
   1400047db:	f6 c2 02             	test   $0x2,%dl
   1400047de:	0f 84 a6 fe ff ff    	je     14000468a <make_slot_save_path.constprop.0+0xaa>
   1400047e4:	eb ca                	jmp    1400047b0 <make_slot_save_path.constprop.0+0x1d0>
   1400047e6:	66 2e 0f 1f 84 00 00 	cs nopw 0x0(%rax,%rax,1)
   1400047ed:	00 00 00 
   1400047f0:	89 d9                	mov    %ebx,%ecx
   1400047f2:	4c 89 c6             	mov    %r8,%rsi
   1400047f5:	4c 89 ff             	mov    %r15,%rdi
   1400047f8:	31 c0                	xor    %eax,%eax
   1400047fa:	c1 e9 03             	shr    $0x3,%ecx
   1400047fd:	f3 48 a5             	rep movsq (%rsi),(%rdi)
   140004800:	49 89 f0             	mov    %rsi,%r8
   140004803:	49 89 f9             	mov    %rdi,%r9
   140004806:	f6 c2 04             	test   $0x4,%dl
   140004809:	0f 84 72 fe ff ff    	je     140004681 <make_slot_save_path.constprop.0+0xa1>
   14000480f:	eb bf                	jmp    1400047d0 <make_slot_save_path.constprop.0+0x1f0>
   140004811:	0f 1f 80 00 00 00 00 	nopl   0x0(%rax)
   140004818:	45 89 f1             	mov    %r14d,%r9d
   14000481b:	4c 8d 05 31 1e 04 00 	lea    0x41e31(%rip),%r8        # 140046653 <.rdata+0x5f3>
   140004822:	ba 08 02 00 00       	mov    $0x208,%edx
   140004827:	4c 89 e1             	mov    %r12,%rcx
   14000482a:	e8 c1 ec 03 00       	call   1400434f0 <snprintf>
   14000482f:	90                   	nop
   140004830:	48 81 c4 68 02 00 00 	add    $0x268,%rsp
   140004837:	5b                   	pop    %rbx
   140004838:	5e                   	pop    %rsi
   140004839:	5f                   	pop    %rdi
   14000483a:	5d                   	pop    %rbp
   14000483b:	41 5c                	pop    %r12
   14000483d:	41 5d                	pop    %r13
   14000483f:	41 5e                	pop    %r14
   140004841:	41 5f                	pop    %r15
   140004843:	c3                   	ret
   140004844:	0f 1f 40 00          	nopl   0x0(%rax)
   140004848:	48 8b 4c 24 30       	mov    0x30(%rsp),%rcx
   14000484d:	48 89 0b             	mov    %rcx,(%rbx)
   140004850:	89 d1                	mov    %edx,%ecx
   140004852:	4d 8b 4c 0d f8       	mov    -0x8(%r13,%rcx,1),%r9
   140004857:	4c 89 4c 0b f8       	mov    %r9,-0x8(%rbx,%rcx,1)
   14000485c:	48 8d 4b 08          	lea    0x8(%rbx),%rcx
   140004860:	48 83 e1 f8          	and    $0xfffffffffffffff8,%rcx
   140004864:	48 29 cb             	sub    %rcx,%rbx
   140004867:	01 da                	add    %ebx,%edx
   140004869:	49 29 dd             	sub    %rbx,%r13
   14000486c:	83 e2 f8             	and    $0xfffffff8,%edx
   14000486f:	83 fa 08             	cmp    $0x8,%edx
   140004872:	0f 82 ac fe ff ff    	jb     140004724 <make_slot_save_path.constprop.0+0x144>
   140004878:	83 e2 f8             	and    $0xfffffff8,%edx
   14000487b:	45 31 c9             	xor    %r9d,%r9d
   14000487e:	45 89 ca             	mov    %r9d,%r10d
   140004881:	41 83 c1 08          	add    $0x8,%r9d
   140004885:	4f 8b 5c 15 00       	mov    0x0(%r13,%r10,1),%r11
   14000488a:	4e 89 1c 11          	mov    %r11,(%rcx,%r10,1)
   14000488e:	41 39 d1             	cmp    %edx,%r9d
   140004891:	72 eb                	jb     14000487e <make_slot_save_path.constprop.0+0x29e>
   140004893:	e9 8c fe ff ff       	jmp    140004724 <make_slot_save_path.constprop.0+0x144>
   140004898:	0f 1f 84 00 00 00 00 	nopl   0x0(%rax,%rax,1)
   14000489f:	00 
   1400048a0:	48 8b 4c 24 50       	mov    0x50(%rsp),%rcx
   1400048a5:	49 89 0c 24          	mov    %rcx,(%r12)
   1400048a9:	89 d9                	mov    %ebx,%ecx
   1400048ab:	4d 8b 4c 0f f8       	mov    -0x8(%r15,%rcx,1),%r9
   1400048b0:	4d 89 4c 0c f8       	mov    %r9,-0x8(%r12,%rcx,1)
   1400048b5:	4d 8d 4c 24 08       	lea    0x8(%r12),%r9
   1400048ba:	4c 89 e1             	mov    %r12,%rcx
   1400048bd:	49 83 e1 f8          	and    $0xfffffffffffffff8,%r9
   1400048c1:	4c 29 c9             	sub    %r9,%rcx
   1400048c4:	4c 89 cf             	mov    %r9,%rdi
   1400048c7:	49 29 cf             	sub    %rcx,%r15
   1400048ca:	01 d9                	add    %ebx,%ecx
   1400048cc:	c1 e9 03             	shr    $0x3,%ecx
   1400048cf:	4c 89 fe             	mov    %r15,%rsi
   1400048d2:	f3 48 a5             	rep movsq (%rsi),(%rdi)
   1400048d5:	e9 2d fe ff ff       	jmp    140004707 <make_slot_save_path.constprop.0+0x127>
   1400048da:	66 0f 1f 44 00 00    	nopw   0x0(%rax,%rax,1)
   1400048e0:	ba 2f 00 00 00       	mov    $0x2f,%edx
   1400048e5:	4c 89 e9             	mov    %r13,%rcx
   1400048e8:	e8 33 f0 03 00       	call   140043920 <strrchr>
   1400048ed:	48 89 c3             	mov    %rax,%rbx
   1400048f0:	e9 33 fd ff ff       	jmp    140004628 <make_slot_save_path.constprop.0+0x48>
   1400048f5:	0f 1f 00             	nopl   (%rax)
   1400048f8:	4c 8d 0d 01 43 39 00 	lea    0x394301(%rip),%r9        # 140398c00 <g_save_path>
   1400048ff:	4c 8d 05 19 1a 04 00 	lea    0x41a19(%rip),%r8        # 14004631f <.rdata+0x2bf>
   140004906:	ba 08 02 00 00       	mov    $0x208,%edx
   14000490b:	4c 89 e1             	mov    %r12,%rcx
   14000490e:	48 81 c4 68 02 00 00 	add    $0x268,%rsp
   140004915:	5b                   	pop    %rbx
   140004916:	5e                   	pop    %rsi
   140004917:	5f                   	pop    %rdi
   140004918:	5d                   	pop    %rbp
   140004919:	41 5c                	pop    %r12
   14000491b:	41 5d                	pop    %r13
   14000491d:	41 5e                	pop    %r14
   14000491f:	41 5f                	pop    %r15
   140004921:	e9 ca eb 03 00       	jmp    1400434f0 <snprintf>
   140004926:	66 2e 0f 1f 84 00 00 	cs nopw 0x0(%rax,%rax,1)
   14000492d:	00 00 00 
   140004930:	48 8b 55 00          	mov    0x0(%rbp),%rdx
   140004934:	49 89 14 24          	mov    %rdx,(%r12)
   140004938:	89 c2                	mov    %eax,%edx
   14000493a:	48 8b 4c 15 f8       	mov    -0x8(%rbp,%rdx,1),%rcx
   14000493f:	49 89 4c 14 f8       	mov    %rcx,-0x8(%r12,%rdx,1)
   140004944:	49 8d 54 24 08       	lea    0x8(%r12),%rdx
   140004949:	48 83 e2 f8          	and    $0xfffffffffffffff8,%rdx
   14000494d:	49 29 d4             	sub    %rdx,%r12
   140004950:	48 89 d7             	mov    %rdx,%rdi
   140004953:	4c 29 e5             	sub    %r12,%rbp
   140004956:	42 8d 0c 20          	lea    (%rax,%r12,1),%ecx
   14000495a:	c1 e9 03             	shr    $0x3,%ecx
   14000495d:	48 89 ee             	mov    %rbp,%rsi
   140004960:	f3 48 a5             	rep movsq (%rsi),(%rdi)
   140004963:	e9 c8 fe ff ff       	jmp    140004830 <make_slot_save_path.constprop.0+0x250>
   140004968:	0f 1f 84 00 00 00 00 	nopl   0x0(%rax,%rax,1)
   14000496f:	00 
   140004970:	0f b6 4c 24 30       	movzbl 0x30(%rsp),%ecx
   140004975:	88 0b                	mov    %cl,(%rbx)
   140004977:	f6 c2 02             	test   $0x2,%dl
   14000497a:	0f 84 a4 fd ff ff    	je     140004724 <make_slot_save_path.constprop.0+0x144>
   140004980:	89 d2                	mov    %edx,%edx
   140004982:	41 0f b7 4c 15 fe    	movzwl -0x2(%r13,%rdx,1),%ecx
   140004988:	66 89 4c 13 fe       	mov    %cx,-0x2(%rbx,%rdx,1)
   14000498d:	e9 92 fd ff ff       	jmp    140004724 <make_slot_save_path.constprop.0+0x144>
   140004992:	66 0f 1f 44 00 00    	nopw   0x0(%rax,%rax,1)
   140004998:	0f b6 4c 24 50       	movzbl 0x50(%rsp),%ecx
   14000499d:	41 88 0c 24          	mov    %cl,(%r12)
   1400049a1:	f6 c3 02             	test   $0x2,%bl
   1400049a4:	0f 84 5d fd ff ff    	je     140004707 <make_slot_save_path.constprop.0+0x127>
   1400049aa:	89 d9                	mov    %ebx,%ecx
   1400049ac:	45 0f b7 4c 0f fe    	movzwl -0x2(%r15,%rcx,1),%r9d
   1400049b2:	66 45 89 4c 0c fe    	mov    %r9w,-0x2(%r12,%rcx,1)
   1400049b8:	e9 4a fd ff ff       	jmp    140004707 <make_slot_save_path.constprop.0+0x127>
   1400049bd:	0f 1f 00             	nopl   (%rax)
   1400049c0:	44 8b 4c 24 50       	mov    0x50(%rsp),%r9d
   1400049c5:	45 89 0c 24          	mov    %r9d,(%r12)
   1400049c9:	45 8b 4c 0f fc       	mov    -0x4(%r15,%rcx,1),%r9d
   1400049ce:	45 89 4c 0c fc       	mov    %r9d,-0x4(%r12,%rcx,1)
   1400049d3:	e9 2f fd ff ff       	jmp    140004707 <make_slot_save_path.constprop.0+0x127>
   1400049d8:	0f 1f 84 00 00 00 00 	nopl   0x0(%rax,%rax,1)
   1400049df:	00 
   1400049e0:	8b 4c 24 30          	mov    0x30(%rsp),%ecx
   1400049e4:	89 d2                	mov    %edx,%edx
   1400049e6:	89 0b                	mov    %ecx,(%rbx)
   1400049e8:	41 8b 4c 15 fc       	mov    -0x4(%r13,%rdx,1),%ecx
   1400049ed:	89 4c 13 fc          	mov    %ecx,-0x4(%rbx,%rdx,1)
   1400049f1:	e9 2e fd ff ff       	jmp    140004724 <make_slot_save_path.constprop.0+0x144>
   1400049f6:	66 2e 0f 1f 84 00 00 	cs nopw 0x0(%rax,%rax,1)
   1400049fd:	00 00 00 
   140004a00:	8b 55 00             	mov    0x0(%rbp),%edx
   140004a03:	89 c0                	mov    %eax,%eax
   140004a05:	41 89 14 24          	mov    %edx,(%r12)
   140004a09:	8b 54 05 fc          	mov    -0x4(%rbp,%rax,1),%edx
   140004a0d:	41 89 54 04 fc       	mov    %edx,-0x4(%r12,%rax,1)
   140004a12:	e9 19 fe ff ff       	jmp    140004830 <make_slot_save_path.constprop.0+0x250>
   140004a17:	66 0f 1f 84 00 00 00 	nopw   0x0(%rax,%rax,1)
   140004a1e:	00 00 

0000000140004a20 <causal_row_compact.constprop.0>:
   140004a20:	53                   	push   %rbx
   140004a21:	48 83 ec 30          	sub    $0x30,%rsp
   140004a25:	c6 02 00             	movb   $0x0,(%rdx)
   140004a28:	48 89 d3             	mov    %rdx,%rbx
   140004a2b:	48 85 c9             	test   %rcx,%rcx
   140004a2e:	74 48                	je     140004a78 <causal_row_compact.constprop.0+0x58>
   140004a30:	80 39 00             	cmpb   $0x0,(%rcx)
   140004a33:	74 43                	je     140004a78 <causal_row_compact.constprop.0+0x58>
   140004a35:	48 8d 15 2f 1c 04 00 	lea    0x41c2f(%rip),%rdx        # 14004666b <.rdata+0x60b>
   140004a3c:	48 89 4c 24 28       	mov    %rcx,0x28(%rsp)
   140004a41:	e8 e2 ee 03 00       	call   140043928 <strstr>
   140004a46:	4c 8b 4c 24 28       	mov    0x28(%rsp),%r9
   140004a4b:	48 85 c0             	test   %rax,%rax
   140004a4e:	74 0c                	je     140004a5c <causal_row_compact.constprop.0+0x3c>
   140004a50:	48 8d 50 02          	lea    0x2(%rax),%rdx
   140004a54:	80 78 02 00          	cmpb   $0x0,0x2(%rax)
   140004a58:	4c 0f 45 ca          	cmovne %rdx,%r9
   140004a5c:	4c 8d 05 bc 18 04 00 	lea    0x418bc(%rip),%r8        # 14004631f <.rdata+0x2bf>
   140004a63:	ba 60 00 00 00       	mov    $0x60,%edx
   140004a68:	48 89 d9             	mov    %rbx,%rcx
   140004a6b:	48 83 c4 30          	add    $0x30,%rsp
   140004a6f:	5b                   	pop    %rbx
   140004a70:	e9 7b ea 03 00       	jmp    1400434f0 <snprintf>
   140004a75:	0f 1f 00             	nopl   (%rax)
   140004a78:	c7 03 6e 6f 6e 65    	movl   $0x656e6f6e,(%rbx)
   140004a7e:	c6 43 04 00          	movb   $0x0,0x4(%rbx)
   140004a82:	48 83 c4 30          	add    $0x30,%rsp
   140004a86:	5b                   	pop    %rbx
   140004a87:	c3                   	ret
   140004a88:	0f 1f 84 00 00 00 00 	nopl   0x0(%rax,%rax,1)
   140004a8f:	00 

0000000140004a90 <format_why_blocked_body.constprop.0>:
   140004a90:	41 54                	push   %r12
   140004a92:	55                   	push   %rbp
   140004a93:	57                   	push   %rdi
   140004a94:	56                   	push   %rsi
   140004a95:	53                   	push   %rbx
   140004a96:	48 83 ec 20          	sub    $0x20,%rsp
   140004a9a:	c6 01 00             	movb   $0x0,(%rcx)
   140004a9d:	48 89 cf             	mov    %rcx,%rdi
   140004aa0:	e8 e3 ec 03 00       	call   140043788 <strlen>
   140004aa5:	48 ba 3d 3d 3d 20 57 	movabs $0x20594857203d3d3d,%rdx
   140004aac:	48 59 20 
   140004aaf:	48 b9 42 4c 4f 43 4b 	movabs $0x2044454b434f4c42,%rcx
   140004ab6:	45 44 20 
   140004ab9:	48 89 14 07          	mov    %rdx,(%rdi,%rax,1)
   140004abd:	48 ba 44 20 3d 3d 3d 	movabs $0xa0a3d3d3d2044,%rdx
   140004ac4:	0a 0a 00 
   140004ac7:	48 89 4c 07 08       	mov    %rcx,0x8(%rdi,%rax,1)
   140004acc:	48 89 54 07 0e       	mov    %rdx,0xe(%rdi,%rax,1)
   140004ad1:	8b 15 15 b9 20 00    	mov    0x20b915(%rip),%edx        # 1402103ec <g_causal_count>
   140004ad7:	85 d2                	test   %edx,%edx
   140004ad9:	0f 8e 19 01 00 00    	jle    140004bf8 <format_why_blocked_body.constprop.0+0x168>
   140004adf:	8b 35 0b b9 20 00    	mov    0x20b90b(%rip),%esi        # 1402103f0 <g_causal_head>
   140004ae5:	48 8d 2d 14 b9 20 00 	lea    0x20b914(%rip),%rbp        # 140210400 <g_causal_ring>
   140004aec:	29 d6                	sub    %edx,%esi
   140004aee:	8d 46 20             	lea    0x20(%rsi),%eax
   140004af1:	c1 f8 1f             	sar    $0x1f,%eax
   140004af4:	c1 e8 1b             	shr    $0x1b,%eax
   140004af7:	8d 74 30 20          	lea    0x20(%rax,%rsi,1),%esi
   140004afb:	83 e6 1f             	and    $0x1f,%esi
   140004afe:	29 c6                	sub    %eax,%esi
   140004b00:	44 8d 64 32 ff       	lea    -0x1(%rdx,%rsi,1),%r12d
   140004b05:	eb 0d                	jmp    140004b14 <format_why_blocked_body.constprop.0+0x84>
   140004b07:	66 0f 1f 84 00 00 00 	nopw   0x0(%rax,%rax,1)
   140004b0e:	00 00 
   140004b10:	41 83 ec 01          	sub    $0x1,%r12d
   140004b14:	44 89 e0             	mov    %r12d,%eax
   140004b17:	48 8d 15 68 1b 04 00 	lea    0x41b68(%rip),%rdx        # 140046686 <.rdata+0x626>
   140004b1e:	c1 f8 1f             	sar    $0x1f,%eax
   140004b21:	c1 e8 1b             	shr    $0x1b,%eax
   140004b24:	41 8d 1c 04          	lea    (%r12,%rax,1),%ebx
   140004b28:	83 e3 1f             	and    $0x1f,%ebx
   140004b2b:	29 c3                	sub    %eax,%ebx
   140004b2d:	48 63 db             	movslq %ebx,%rbx
   140004b30:	48 69 db e0 00 00 00 	imul   $0xe0,%rbx,%rbx
   140004b37:	48 01 eb             	add    %rbp,%rbx
   140004b3a:	48 89 d9             	mov    %rbx,%rcx
   140004b3d:	e8 e6 ed 03 00       	call   140043928 <strstr>
   140004b42:	48 85 c0             	test   %rax,%rax
   140004b45:	75 39                	jne    140004b80 <format_why_blocked_body.constprop.0+0xf0>
   140004b47:	44 39 e6             	cmp    %r12d,%esi
   140004b4a:	75 c4                	jne    140004b10 <format_why_blocked_body.constprop.0+0x80>
   140004b4c:	48 89 f9             	mov    %rdi,%rcx
   140004b4f:	e8 34 ec 03 00       	call   140043788 <strlen>
   140004b54:	41 b8 ff 17 00 00    	mov    $0x17ff,%r8d
   140004b5a:	48 8d 15 b7 1b 04 00 	lea    0x41bb7(%rip),%rdx        # 140046718 <.rdata+0x6b8>
   140004b61:	49 29 c0             	sub    %rax,%r8
   140004b64:	48 89 f9             	mov    %rdi,%rcx
   140004b67:	48 83 c4 20          	add    $0x20,%rsp
   140004b6b:	5b                   	pop    %rbx
   140004b6c:	5e                   	pop    %rsi
   140004b6d:	5f                   	pop    %rdi
   140004b6e:	5d                   	pop    %rbp
   140004b6f:	41 5c                	pop    %r12
   140004b71:	e9 1a ec 03 00       	jmp    140043790 <strncat>
   140004b76:	66 2e 0f 1f 84 00 00 	cs nopw 0x0(%rax,%rax,1)
   140004b7d:	00 00 00 
   140004b80:	be ff 17 00 00       	mov    $0x17ff,%esi
   140004b85:	48 89 f9             	mov    %rdi,%rcx
   140004b88:	e8 fb eb 03 00       	call   140043788 <strlen>
   140004b8d:	49 89 f0             	mov    %rsi,%r8
   140004b90:	48 8d 15 01 1b 04 00 	lea    0x41b01(%rip),%rdx        # 140046698 <.rdata+0x638>
   140004b97:	48 89 f9             	mov    %rdi,%rcx
   140004b9a:	49 29 c0             	sub    %rax,%r8
   140004b9d:	e8 ee eb 03 00       	call   140043790 <strncat>
   140004ba2:	48 89 f9             	mov    %rdi,%rcx
   140004ba5:	e8 de eb 03 00       	call   140043788 <strlen>
   140004baa:	49 89 f0             	mov    %rsi,%r8
   140004bad:	48 8d 15 04 1b 04 00 	lea    0x41b04(%rip),%rdx        # 1400466b8 <.rdata+0x658>
   140004bb4:	48 89 f9             	mov    %rdi,%rcx
   140004bb7:	49 29 c0             	sub    %rax,%r8
   140004bba:	e8 d1 eb 03 00       	call   140043790 <strncat>
   140004bbf:	48 89 f9             	mov    %rdi,%rcx
   140004bc2:	e8 c1 eb 03 00       	call   140043788 <strlen>
   140004bc7:	49 89 f0             	mov    %rsi,%r8
   140004bca:	48 89 da             	mov    %rbx,%rdx
   140004bcd:	48 89 f9             	mov    %rdi,%rcx
   140004bd0:	49 29 c0             	sub    %rax,%r8
   140004bd3:	e8 b8 eb 03 00       	call   140043790 <strncat>
   140004bd8:	48 89 f9             	mov    %rdi,%rcx
   140004bdb:	e8 a8 eb 03 00       	call   140043788 <strlen>
   140004be0:	48 8d 15 d9 1a 04 00 	lea    0x41ad9(%rip),%rdx        # 1400466c0 <.rdata+0x660>
   140004be7:	48 29 c6             	sub    %rax,%rsi
   140004bea:	49 89 f0             	mov    %rsi,%r8
   140004bed:	e9 72 ff ff ff       	jmp    140004b64 <format_why_blocked_body.constprop.0+0xd4>
   140004bf2:	66 0f 1f 44 00 00    	nopw   0x0(%rax,%rax,1)
   140004bf8:	48 89 f9             	mov    %rdi,%rcx
   140004bfb:	e8 88 eb 03 00       	call   140043788 <strlen>
   140004c00:	41 b8 ff 17 00 00    	mov    $0x17ff,%r8d
   140004c06:	48 8d 15 61 1a 04 00 	lea    0x41a61(%rip),%rdx        # 14004666e <.rdata+0x60e>
   140004c0d:	49 29 c0             	sub    %rax,%r8
   140004c10:	e9 4f ff ff ff       	jmp    140004b64 <format_why_blocked_body.constprop.0+0xd4>
   140004c15:	66 66 2e 0f 1f 84 00 	data16 cs nopw 0x0(%rax,%rax,1)
   140004c1c:	00 00 00 00 

0000000140004c20 <format_causality_recent_body.constprop.0>:
   140004c20:	41 57                	push   %r15
   140004c22:	41 56                	push   %r14
   140004c24:	41 55                	push   %r13
   140004c26:	41 54                	push   %r12
   140004c28:	55                   	push   %rbp
   140004c29:	57                   	push   %rdi
   140004c2a:	56                   	push   %rsi
   140004c2b:	53                   	push   %rbx
   140004c2c:	48 81 ec 78 02 00 00 	sub    $0x278,%rsp
   140004c33:	48 8d 05 1c 1b 04 00 	lea    0x41b1c(%rip),%rax        # 140046756 <.rdata+0x6f6>
   140004c3a:	4c 8d 25 00 1b 04 00 	lea    0x41b00(%rip),%r12        # 140046741 <.rdata+0x6e1>
   140004c41:	f3 0f 7e 05 af 28 05 	movq   0x528af(%rip),%xmm0        # 1400574f8 <DIR_LABELS+0x98>
   140004c48:	00 
   140004c49:	0f 16 05 b0 28 05 00 	movhps 0x528b0(%rip),%xmm0        # 140057500 <DIR_LABELS+0xa0>
   140004c50:	c6 01 00             	movb   $0x0,(%rcx)
   140004c53:	4c 8d 74 24 30       	lea    0x30(%rsp),%r14
   140004c58:	0f 11 44 24 38       	movups %xmm0,0x38(%rsp)
   140004c5d:	66 48 0f 6e c0       	movq   %rax,%xmm0
   140004c62:	48 89 8c 24 c0 02 00 	mov    %rcx,0x2c0(%rsp)
   140004c69:	00 
   140004c6a:	0f 11 44 24 48       	movups %xmm0,0x48(%rsp)
   140004c6f:	e8 14 eb 03 00       	call   140043788 <strlen>
   140004c74:	48 03 84 24 c0 02 00 	add    0x2c0(%rsp),%rax
   140004c7b:	00 
   140004c7c:	48 ba 3d 3d 3d 20 43 	movabs $0x53554143203d3d3d,%rdx
   140004c83:	41 55 53 
   140004c86:	48 b9 41 4c 49 54 59 	movabs $0x5553205954494c41,%rcx
   140004c8d:	20 53 55 
   140004c90:	48 89 10             	mov    %rdx,(%rax)
   140004c93:	48 8b 35 8e 3b 3a 00 	mov    0x3a3b8e(%rip),%rsi        # 1403a8828 <__imp_tolower>
   140004c9a:	48 ba 4d 4d 41 52 59 	movabs $0x5628205952414d4d,%rdx
   140004ca1:	20 28 56 
   140004ca4:	48 89 48 08          	mov    %rcx,0x8(%rax)
   140004ca8:	48 b9 32 2d 4c 49 54 	movabs $0x20294554494c2d32,%rcx
   140004caf:	45 29 20 
   140004cb2:	48 89 50 10          	mov    %rdx,0x10(%rax)
   140004cb6:	48 ba 3d 3d 3d 0a 0a 	movabs $0x736f4d0a0a3d3d3d,%rdx
   140004cbd:	4d 6f 73 
   140004cc0:	48 89 48 18          	mov    %rcx,0x18(%rax)
   140004cc4:	48 b9 74 20 72 65 63 	movabs $0x746e656365722074,%rcx
   140004ccb:	65 6e 74 
   140004cce:	48 89 50 20          	mov    %rdx,0x20(%rax)
   140004cd2:	48 ba 20 6e 6f 74 61 	movabs $0x656c6261746f6e20,%rdx
   140004cd9:	62 6c 65 
